GCASM List File (GCBASIC 2024.2.13 (Windows 64 bit) : Build 1335)

Symbols:
-X 	EQU 	30
-Y 	EQU 	26
-Z 	EQU 	18
ACBG 	EQU 	6
ACD 	EQU 	7
ACI 	EQU 	4
ACIC 	EQU 	2
ACIE 	EQU 	3
ACIS0 	EQU 	0
ACIS1 	EQU 	1
ACME 	EQU 	6
ACO 	EQU 	5
ACSR 	EQU 	48
ADATE 	EQU 	5
ADC0D 	EQU 	0
ADC10D 	EQU 	2
ADC11D 	EQU 	3
ADC12D 	EQU 	4
ADC13D 	EQU 	5
ADC14D 	EQU 	6
ADC15D 	EQU 	7
ADC1D 	EQU 	1
ADC2D 	EQU 	2
ADC3D 	EQU 	3
ADC4D 	EQU 	4
ADC5D 	EQU 	5
ADC6D 	EQU 	6
ADC7D 	EQU 	7
ADC8D 	EQU 	0
ADC9D 	EQU 	1
ADCH 	EQU 	121
ADCH0 	EQU 	0
ADCH1 	EQU 	1
ADCH2 	EQU 	2
ADCH3 	EQU 	3
ADCH4 	EQU 	4
ADCH5 	EQU 	5
ADCH6 	EQU 	6
ADCH7 	EQU 	7
ADCL 	EQU 	120
ADCL0 	EQU 	0
ADCL1 	EQU 	1
ADCL2 	EQU 	2
ADCL3 	EQU 	3
ADCL4 	EQU 	4
ADCL5 	EQU 	5
ADCL6 	EQU 	6
ADCL7 	EQU 	7
ADCSRA 	EQU 	122
ADCSRB 	EQU 	123
ADEN 	EQU 	7
ADIE 	EQU 	3
ADIF 	EQU 	4
ADLAR 	EQU 	5
ADMUX 	EQU 	124
ADPS0 	EQU 	0
ADPS1 	EQU 	1
ADPS2 	EQU 	2
ADS7843_COUNT 	EQU 	744
ADS7843_DATA 	EQU 	745
ADS7843_DATA_H 	EQU 	746
ADS7843_GETXY 	EQU 	5227
ADS7843_INIT 	EQU 	5753
ADS7843_READ 	EQU 	747
ADS7843_READ_H 	EQU 	748
ADS7843_SETPRECISION 	EQU 	5859
ADS7843_WRITE 	EQU 	5895
ADSC 	EQU 	6
ADTS0 	EQU 	0
ADTS1 	EQU 	1
ADTS2 	EQU 	2
AIN0D 	EQU 	0
AIN1D 	EQU 	1
AS2 	EQU 	5
ASSR 	EQU 	182
BASPROGRAMEND 	EQU 	5225
BASPROGRAMSTART 	EQU 	114
BLBSET 	EQU 	3
BORDERCOLOR 	EQU 	749
BORDERCOLOR_H 	EQU 	750
BORF 	EQU 	2
BX1 	EQU 	751
BX1_H 	EQU 	752
BX2 	EQU 	753
BX2_H 	EQU 	754
BY1 	EQU 	755
BY1_H 	EQU 	756
BY2 	EQU 	757
BY2_H 	EQU 	758
C 	EQU 	0
CAL0 	EQU 	0
CAL1 	EQU 	1
CAL2 	EQU 	2
CAL3 	EQU 	3
CAL4 	EQU 	4
CAL5 	EQU 	5
CAL6 	EQU 	6
CAL7 	EQU 	7
CALC 	EQU 	759
CHARCODE 	EQU 	760
CHARCOL 	EQU 	761
CHARCOLS 	EQU 	763
CHARCOL_H 	EQU 	762
CHARLOCX 	EQU 	764
CHARLOCX_H 	EQU 	765
CHARLOCY 	EQU 	766
CHARLOCY_H 	EQU 	767
CHARROW 	EQU 	768
CHARROWS 	EQU 	770
CHARROW_H 	EQU 	769
CLKPCE 	EQU 	7
CLKPR 	EQU 	97
CLKPS0 	EQU 	0
CLKPS1 	EQU 	1
CLKPS2 	EQU 	2
CLKPS3 	EQU 	3
COL 	EQU 	771
COLOR 	EQU 	772
COLOR_H 	EQU 	773
COM0A0 	EQU 	6
COM0A1 	EQU 	7
COM0B0 	EQU 	4
COM0B1 	EQU 	5
COM1A0 	EQU 	6
COM1A1 	EQU 	7
COM1B0 	EQU 	4
COM1B1 	EQU 	5
COM1C0 	EQU 	2
COM1C1 	EQU 	3
COM2A0 	EQU 	6
COM2A1 	EQU 	7
COM2B0 	EQU 	4
COM2B1 	EQU 	5
COM3A0 	EQU 	6
COM3A1 	EQU 	7
COM3B0 	EQU 	4
COM3B1 	EQU 	5
COM3C0 	EQU 	2
COM3C1 	EQU 	3
COM4A0 	EQU 	6
COM4A1 	EQU 	7
COM4B0 	EQU 	4
COM4B1 	EQU 	5
COM4C0 	EQU 	2
COM4C1 	EQU 	3
COM5A0 	EQU 	6
COM5A1 	EQU 	7
COM5B0 	EQU 	4
COM5B1 	EQU 	5
COM5C0 	EQU 	2
COM5C1 	EQU 	3
CONTROLBYTE 	EQU 	774
COUNTI 	EQU 	775
COUNTI_H 	EQU 	776
COUNTJ 	EQU 	777
COUNTJ_H 	EQU 	778
CPHA 	EQU 	2
CPOL 	EQU 	3
CREATEBUTTON 	EQU 	5945
CS00 	EQU 	0
CS01 	EQU 	1
CS02 	EQU 	2
CS10 	EQU 	0
CS11 	EQU 	1
CS12 	EQU 	2
CS20 	EQU 	0
CS21 	EQU 	1
CS22 	EQU 	2
CS30 	EQU 	0
CS31 	EQU 	1
CS32 	EQU 	2
CS40 	EQU 	0
CS41 	EQU 	1
CS42 	EQU 	2
CS50 	EQU 	0
CS51 	EQU 	1
CS52 	EQU 	2
CURRCHARCOL 	EQU 	779
CURRCHARROW 	EQU 	780
CURRCHARVAL 	EQU 	781
DATAVAL 	EQU 	782
DATAVAL_H 	EQU 	783
DDA0 	EQU 	0
DDA1 	EQU 	1
DDA2 	EQU 	2
DDA3 	EQU 	3
DDA4 	EQU 	4
DDA5 	EQU 	5
DDA6 	EQU 	6
DDA7 	EQU 	7
DDB0 	EQU 	0
DDB1 	EQU 	1
DDB2 	EQU 	2
DDB3 	EQU 	3
DDB4 	EQU 	4
DDB5 	EQU 	5
DDB6 	EQU 	6
DDB7 	EQU 	7
DDC0 	EQU 	0
DDC1 	EQU 	1
DDC2 	EQU 	2
DDC3 	EQU 	3
DDC4 	EQU 	4
DDC5 	EQU 	5
DDC6 	EQU 	6
DDC7 	EQU 	7
DDD0 	EQU 	0
DDD1 	EQU 	1
DDD2 	EQU 	2
DDD3 	EQU 	3
DDD4 	EQU 	4
DDD5 	EQU 	5
DDD6 	EQU 	6
DDD7 	EQU 	7
DDE0 	EQU 	0
DDE1 	EQU 	1
DDE2 	EQU 	2
DDE3 	EQU 	3
DDE4 	EQU 	4
DDE5 	EQU 	5
DDE6 	EQU 	6
DDE7 	EQU 	7
DDF0 	EQU 	0
DDF1 	EQU 	1
DDF2 	EQU 	2
DDF3 	EQU 	3
DDF4 	EQU 	4
DDF5 	EQU 	5
DDF6 	EQU 	6
DDF7 	EQU 	7
DDG0 	EQU 	0
DDG1 	EQU 	1
DDG2 	EQU 	2
DDG3 	EQU 	3
DDG4 	EQU 	4
DDG5 	EQU 	5
DDH0 	EQU 	0
DDH1 	EQU 	1
DDH2 	EQU 	2
DDH3 	EQU 	3
DDH4 	EQU 	4
DDH5 	EQU 	5
DDH6 	EQU 	6
DDH7 	EQU 	7
DDJ0 	EQU 	0
DDJ1 	EQU 	1
DDJ2 	EQU 	2
DDJ3 	EQU 	3
DDJ4 	EQU 	4
DDJ5 	EQU 	5
DDJ6 	EQU 	6
DDJ7 	EQU 	7
DDK0 	EQU 	0
DDK1 	EQU 	1
DDK2 	EQU 	2
DDK3 	EQU 	3
DDK4 	EQU 	4
DDK5 	EQU 	5
DDK6 	EQU 	6
DDK7 	EQU 	7
DDL0 	EQU 	0
DDL1 	EQU 	1
DDL2 	EQU 	2
DDL3 	EQU 	3
DDL4 	EQU 	4
DDL5 	EQU 	5
DDL6 	EQU 	6
DDL7 	EQU 	7
DDRA 	EQU 	1
DDRB 	EQU 	4
DDRC 	EQU 	7
DDRD 	EQU 	10
DDRE 	EQU 	13
DDRF 	EQU 	16
DDRG 	EQU 	19
DDRH 	EQU 	257
DDRJ 	EQU 	260
DDRK 	EQU 	263
DDRL 	EQU 	266
DELAYTEMP 	EQU 	r25
DELAYTEMP2 	EQU 	r26
DELAY_MS 	EQU 	6176
DELAY_S 	EQU 	6188
DIDR0 	EQU 	126
DIDR1 	EQU 	127
DIDR2 	EQU 	125
DIG 	EQU 	784
DMS_INNER 	EQU 	6179
DMS_OUTER 	EQU 	6178
DMS_START 	EQU 	6177
DOR0 	EQU 	3
DOR1 	EQU 	3
DOR2 	EQU 	3
DOR3 	EQU 	3
DORD 	EQU 	5
DRAWLINE 	EQU 	785
DRAWLINE_H 	EQU 	786
DS_START 	EQU 	6188
EEAR0 	EQU 	0
EEAR1 	EQU 	1
EEAR10 	EQU 	2
EEAR11 	EQU 	3
EEAR2 	EQU 	2
EEAR3 	EQU 	3
EEAR4 	EQU 	4
EEAR5 	EQU 	5
EEAR6 	EQU 	6
EEAR7 	EQU 	7
EEAR8 	EQU 	0
EEAR9 	EQU 	1
EEARH 	EQU 	34
EEARL 	EQU 	33
EECR 	EQU 	31
EEDR 	EQU 	32
EEDR0 	EQU 	0
EEDR1 	EQU 	1
EEDR2 	EQU 	2
EEDR3 	EQU 	3
EEDR4 	EQU 	4
EEDR5 	EQU 	5
EEDR6 	EQU 	6
EEDR7 	EQU 	7
EEMPE 	EQU 	2
EEPE 	EQU 	1
EEPM0 	EQU 	4
EEPM1 	EQU 	5
EERE 	EQU 	0
EERIE 	EQU 	3
EICRA 	EQU 	105
EICRB 	EQU 	106
EIFR 	EQU 	28
EIMSK 	EQU 	29
EIND 	EQU 	60
EIND0 	EQU 	0
ELSE23_1 	EQU 	3659
ELSE24_1 	EQU 	3831
ELSE25_1 	EQU 	4003
ELSE26_1 	EQU 	4175
ELSE27_1 	EQU 	4783
ELSE65_1 	EQU 	7991
ELSE70_1 	EQU 	9200
ELSE71_1 	EQU 	9221
ELSE72_1 	EQU 	9442
ELSE73_1 	EQU 	9379
ELSE74_1 	EQU 	9531
ELSE79_1 	EQU 	5912
ELSE84_1 	EQU 	10917
ENDIF1 	EQU 	5220
ENDIF10 	EQU 	3285
ENDIF11 	EQU 	3499
ENDIF12 	EQU 	3671
ENDIF13 	EQU 	3843
ENDIF14 	EQU 	4015
ENDIF15 	EQU 	4187
ENDIF16 	EQU 	4382
ENDIF17 	EQU 	5220
ENDIF18 	EQU 	3671
ENDIF19 	EQU 	3843
ENDIF2 	EQU 	1573
ENDIF20 	EQU 	4015
ENDIF21 	EQU 	4187
ENDIF22 	EQU 	5220
ENDIF23 	EQU 	3668
ENDIF24 	EQU 	3840
ENDIF25 	EQU 	4012
ENDIF26 	EQU 	4184
ENDIF27 	EQU 	4836
ENDIF28 	EQU 	9867
ENDIF29 	EQU 	9895
ENDIF3 	EQU 	1787
ENDIF30 	EQU 	10331
ENDIF31 	EQU 	5477
ENDIF32 	EQU 	5526
ENDIF33 	EQU 	11226
ENDIF35 	EQU 	11299
ENDIF37 	EQU 	10959
ENDIF38 	EQU 	10981
ENDIF39 	EQU 	11177
ENDIF4 	EQU 	2001
ENDIF40 	EQU 	11188
ENDIF41 	EQU 	11209
ENDIF42 	EQU 	11033
ENDIF43 	EQU 	11143
ENDIF44 	EQU 	10677
ENDIF45 	EQU 	10718
ENDIF46 	EQU 	10759
ENDIF47 	EQU 	10799
ENDIF48 	EQU 	11512
ENDIF49 	EQU 	11534
ENDIF5 	EQU 	2215
ENDIF50 	EQU 	11540
ENDIF51 	EQU 	11582
ENDIF52 	EQU 	9755
ENDIF53 	EQU 	9771
ENDIF54 	EQU 	9834
ENDIF57 	EQU 	6230
ENDIF58 	EQU 	6266
ENDIF59 	EQU 	6341
ENDIF6 	EQU 	2429
ENDIF60 	EQU 	6374
ENDIF62 	EQU 	9606
ENDIF63 	EQU 	9690
ENDIF64 	EQU 	7843
ENDIF65 	EQU 	8042
ENDIF66 	EQU 	8061
ENDIF67 	EQU 	8080
ENDIF68 	EQU 	8103
ENDIF69 	EQU 	8121
ENDIF7 	EQU 	2643
ENDIF70 	EQU 	9205
ENDIF71 	EQU 	9226
ENDIF72 	EQU 	9593
ENDIF73 	EQU 	9415
ENDIF74 	EQU 	9567
ENDIF75 	EQU 	6405
ENDIF76 	EQU 	6435
ENDIF77 	EQU 	7004
ENDIF78 	EQU 	7004
ENDIF79 	EQU 	5913
ENDIF8 	EQU 	2857
ENDIF80 	EQU 	5844
ENDIF81 	EQU 	11379
ENDIF82 	EQU 	11390
ENDIF83 	EQU 	11402
ENDIF84 	EQU 	10919
ENDIF85 	EQU 	10896
ENDIF87 	EQU 	10506
ENDIF9 	EQU 	3071
EXCLK 	EQU 	6
EXTRF 	EQU 	1
FCOLOR 	EQU 	787
FCOLOR_H 	EQU 	788
FE0 	EQU 	4
FE1 	EQU 	4
FE2 	EQU 	4
FE3 	EQU 	4
FILLCOLOR 	EQU 	789
FILLCOLOR_H 	EQU 	790
FILLEDBOX_SSD1289 	EQU 	6194
FILLROUNDRECT33 	EQU 	6375
FN_ADS7843_READ 	EQU 	5790
FN_LEN 	EQU 	9113
FN_RIGHT 	EQU 	9744
FN_STR 	EQU 	10633
FN_VAL 	EQU 	11495
FOC0A 	EQU 	7
FOC0B 	EQU 	6
FOC1A 	EQU 	7
FOC1B 	EQU 	6
FOC1C 	EQU 	5
FOC2A 	EQU 	7
FOC2B 	EQU 	6
FOC3A 	EQU 	7
FOC3B 	EQU 	6
FOC3C 	EQU 	5
FOC4A 	EQU 	7
FOC4B 	EQU 	6
FOC4C 	EQU 	5
FOC5A 	EQU 	7
FOC5B 	EQU 	6
FOC5C 	EQU 	5
FRI 	EQU 	791
FRI_H 	EQU 	792
GLCDBACKGROUND 	EQU 	793
GLCDBACKGROUND_H 	EQU 	794
GLCDCHARCOL3EXTENDED1 	EQU 	7005
GLCDCHARCOL4EXTENDED1 	EQU 	7136
GLCDCHARCOL5EXTENDED1 	EQU 	7267
GLCDCHARCOL6EXTENDED1 	EQU 	7398
GLCDCHARCOL7EXTENDED1 	EQU 	7529
GLCDCLS_SSD1289 	EQU 	7660
GLCDDEVICEHEIGHT 	EQU 	795
GLCDDEVICEHEIGHT_H 	EQU 	796
GLCDDEVICEWIDTH 	EQU 	797
GLCDDEVICEWIDTH_H 	EQU 	798
GLCDDRAWCHAR_SSD1289 	EQU 	7802
GLCDFNTDEFAULTHEIGHT 	EQU 	799
GLCDFNTDEFAULTSIZE 	EQU 	800
GLCDFONTWIDTH 	EQU 	801
GLCDFOREGROUND 	EQU 	802
GLCDFOREGROUND_H 	EQU 	803
GLCDPRINTLOC 	EQU 	804
GLCDPRINTLOC_H 	EQU 	805
GLCDROTATE_SSD1289 	EQU 	8122
GLCDTEMP 	EQU 	806
GLCDTEMPXY 	EQU 	808
GLCDTEMP_H 	EQU 	807
GPIOR0 	EQU 	30
GPIOR00 	EQU 	0
GPIOR01 	EQU 	1
GPIOR02 	EQU 	2
GPIOR03 	EQU 	3
GPIOR04 	EQU 	4
GPIOR05 	EQU 	5
GPIOR06 	EQU 	6
GPIOR07 	EQU 	7
GPIOR1 	EQU 	42
GPIOR10 	EQU 	0
GPIOR11 	EQU 	1
GPIOR12 	EQU 	2
GPIOR13 	EQU 	3
GPIOR14 	EQU 	4
GPIOR15 	EQU 	5
GPIOR16 	EQU 	6
GPIOR17 	EQU 	7
GPIOR2 	EQU 	43
GPIOR20 	EQU 	0
GPIOR21 	EQU 	1
GPIOR22 	EQU 	2
GPIOR23 	EQU 	3
GPIOR24 	EQU 	4
GPIOR25 	EQU 	5
GPIOR26 	EQU 	6
GPIOR27 	EQU 	7
GTCCR 	EQU 	35
H 	EQU 	5
I 	EQU 	7
ICES1 	EQU 	6
ICES3 	EQU 	6
ICES4 	EQU 	6
ICES5 	EQU 	6
ICF1 	EQU 	5
ICF3 	EQU 	5
ICF4 	EQU 	5
ICF5 	EQU 	5
ICIE1 	EQU 	5
ICIE3 	EQU 	5
ICIE4 	EQU 	5
ICIE5 	EQU 	5
ICNC1 	EQU 	7
ICNC3 	EQU 	7
ICNC4 	EQU 	7
ICNC5 	EQU 	7
ICR1H 	EQU 	135
ICR1L 	EQU 	134
ICR3H 	EQU 	151
ICR3L 	EQU 	150
ICR4H 	EQU 	167
ICR4L 	EQU 	166
ICR5H 	EQU 	295
ICR5H0 	EQU 	0
ICR5H1 	EQU 	1
ICR5H2 	EQU 	2
ICR5H3 	EQU 	3
ICR5H4 	EQU 	4
ICR5H5 	EQU 	5
ICR5H6 	EQU 	6
ICR5H7 	EQU 	7
ICR5L 	EQU 	294
ICR5L0 	EQU 	0
ICR5L1 	EQU 	1
ICR5L2 	EQU 	2
ICR5L3 	EQU 	3
ICR5L4 	EQU 	4
ICR5L5 	EQU 	5
ICR5L6 	EQU 	6
ICR5L7 	EQU 	7
IDRD 	EQU 	7
INITGLCD_SSD1289 	EQU 	8320
INITSYS 	EQU 	9092
INT0 	EQU 	0
INT1 	EQU 	1
INT2 	EQU 	2
INT3 	EQU 	3
INT4 	EQU 	4
INT5 	EQU 	5
INT6 	EQU 	6
INT7 	EQU 	7
INTF0 	EQU 	0
INTF1 	EQU 	1
INTF2 	EQU 	2
INTF3 	EQU 	3
INTF4 	EQU 	4
INTF5 	EQU 	5
INTF6 	EQU 	6
INTF7 	EQU 	7
ISC00 	EQU 	0
ISC01 	EQU 	1
ISC10 	EQU 	2
ISC11 	EQU 	3
ISC20 	EQU 	4
ISC21 	EQU 	5
ISC30 	EQU 	6
ISC31 	EQU 	7
ISC40 	EQU 	0
ISC41 	EQU 	1
ISC50 	EQU 	2
ISC51 	EQU 	3
ISC60 	EQU 	4
ISC61 	EQU 	5
ISC70 	EQU 	6
ISC71 	EQU 	7
IVCE 	EQU 	0
IVSEL 	EQU 	1
JTD 	EQU 	7
JTRF 	EQU 	4
LEN 	EQU 	809
LINE 	EQU 	9121
LINECOLOUR 	EQU 	810
LINECOLOUR_H 	EQU 	811
LINEDIFFX 	EQU 	812
LINEDIFFX_H 	EQU 	813
LINEDIFFX_X2 	EQU 	814
LINEDIFFX_X2_H 	EQU 	815
LINEDIFFY 	EQU 	816
LINEDIFFY_H 	EQU 	817
LINEDIFFY_X2 	EQU 	818
LINEDIFFY_X2_H 	EQU 	819
LINEERR 	EQU 	820
LINEERR_H 	EQU 	821
LINESTEPX 	EQU 	822
LINESTEPX_H 	EQU 	823
LINESTEPY 	EQU 	824
LINESTEPY_H 	EQU 	825
LINEX1 	EQU 	826
LINEX1_H 	EQU 	827
LINEX2 	EQU 	828
LINEX2_H 	EQU 	829
LINEY1 	EQU 	830
LINEY1_H 	EQU 	831
LINEY2 	EQU 	832
LINEY2_H 	EQU 	833
MCUCR 	EQU 	53
MCUSR 	EQU 	52
MPCM0 	EQU 	0
MPCM1 	EQU 	0
MPCM2 	EQU 	0
MPCM3 	EQU 	0
MSTR 	EQU 	4
MUL16LOOP 	EQU 	11218
MUL32LOOP 	EQU 	11267
MUX0 	EQU 	0
MUX1 	EQU 	1
MUX2 	EQU 	2
MUX3 	EQU 	3
MUX4 	EQU 	4
MUX5 	EQU 	3
N 	EQU 	2
OCDR 	EQU 	49
OCDR0 	EQU 	0
OCDR1 	EQU 	1
OCDR2 	EQU 	2
OCDR3 	EQU 	3
OCDR4 	EQU 	4
OCDR5 	EQU 	5
OCDR6 	EQU 	6
OCDR7 	EQU 	7
OCF0A 	EQU 	1
OCF0B 	EQU 	2
OCF1A 	EQU 	1
OCF1B 	EQU 	2
OCF1C 	EQU 	3
OCF2A 	EQU 	1
OCF2B 	EQU 	2
OCF3A 	EQU 	1
OCF3B 	EQU 	2
OCF3C 	EQU 	3
OCF4A 	EQU 	1
OCF4B 	EQU 	2
OCF4C 	EQU 	3
OCF5A 	EQU 	1
OCF5B 	EQU 	2
OCF5C 	EQU 	3
OCIE0A 	EQU 	1
OCIE0B 	EQU 	2
OCIE1A 	EQU 	1
OCIE1B 	EQU 	2
OCIE1C 	EQU 	3
OCIE2A 	EQU 	1
OCIE2B 	EQU 	2
OCIE3A 	EQU 	1
OCIE3B 	EQU 	2
OCIE3C 	EQU 	3
OCIE4A 	EQU 	1
OCIE4B 	EQU 	2
OCIE4C 	EQU 	3
OCIE5A 	EQU 	1
OCIE5B 	EQU 	2
OCIE5C 	EQU 	3
OCR0A 	EQU 	39
OCR0A_0 	EQU 	0
OCR0A_1 	EQU 	1
OCR0A_2 	EQU 	2
OCR0A_3 	EQU 	3
OCR0A_4 	EQU 	4
OCR0A_5 	EQU 	5
OCR0A_6 	EQU 	6
OCR0A_7 	EQU 	7
OCR0B 	EQU 	40
OCR0B_0 	EQU 	0
OCR0B_1 	EQU 	1
OCR0B_2 	EQU 	2
OCR0B_3 	EQU 	3
OCR0B_4 	EQU 	4
OCR0B_5 	EQU 	5
OCR0B_6 	EQU 	6
OCR0B_7 	EQU 	7
OCR1AH 	EQU 	137
OCR1AL 	EQU 	136
OCR1BH 	EQU 	139
OCR1BL 	EQU 	138
OCR1CH 	EQU 	141
OCR1CL 	EQU 	140
OCR2A 	EQU 	179
OCR2AUB 	EQU 	3
OCR2A_0 	EQU 	0
OCR2A_1 	EQU 	1
OCR2A_2 	EQU 	2
OCR2A_3 	EQU 	3
OCR2A_4 	EQU 	4
OCR2A_5 	EQU 	5
OCR2A_6 	EQU 	6
OCR2A_7 	EQU 	7
OCR2B 	EQU 	180
OCR2BUB 	EQU 	2
OCR2B_0 	EQU 	0
OCR2B_1 	EQU 	1
OCR2B_2 	EQU 	2
OCR2B_3 	EQU 	3
OCR2B_4 	EQU 	4
OCR2B_5 	EQU 	5
OCR2B_6 	EQU 	6
OCR2B_7 	EQU 	7
OCR3AH 	EQU 	153
OCR3AL 	EQU 	152
OCR3BH 	EQU 	155
OCR3BL 	EQU 	154
OCR3CH 	EQU 	157
OCR3CL 	EQU 	156
OCR4AH 	EQU 	169
OCR4AL 	EQU 	168
OCR4BH 	EQU 	171
OCR4BL 	EQU 	170
OCR4CH 	EQU 	173
OCR4CL 	EQU 	172
OCR5AH 	EQU 	297
OCR5AL 	EQU 	296
OCR5BH 	EQU 	299
OCR5BL 	EQU 	298
OCR5CH 	EQU 	301
OCR5CL 	EQU 	300
ORIENTATION_SSD1289 	EQU 	834
OSCCAL 	EQU 	102
OSCCAL0 	EQU 	0
OSCCAL1 	EQU 	1
OSCCAL2 	EQU 	2
OSCCAL3 	EQU 	3
OSCCAL4 	EQU 	4
OSCCAL5 	EQU 	5
OSCCAL6 	EQU 	6
OSCCAL7 	EQU 	7
PA0 	EQU 	0
PA1 	EQU 	1
PA2 	EQU 	2
PA3 	EQU 	3
PA4 	EQU 	4
PA5 	EQU 	5
PA6 	EQU 	6
PA7 	EQU 	7
PB0 	EQU 	0
PB1 	EQU 	1
PB2 	EQU 	2
PB3 	EQU 	3
PB4 	EQU 	4
PB5 	EQU 	5
PB6 	EQU 	6
PB7 	EQU 	7
PC0 	EQU 	0
PC1 	EQU 	1
PC2 	EQU 	2
PC3 	EQU 	3
PC4 	EQU 	4
PC5 	EQU 	5
PC6 	EQU 	6
PC7 	EQU 	7
PCICR 	EQU 	104
PCIE0 	EQU 	0
PCIE1 	EQU 	1
PCIE2 	EQU 	2
PCIF0 	EQU 	0
PCIF1 	EQU 	1
PCIF2 	EQU 	2
PCIFR 	EQU 	27
PCINT0 	EQU 	0
PCINT1 	EQU 	1
PCINT10 	EQU 	2
PCINT11 	EQU 	3
PCINT12 	EQU 	4
PCINT13 	EQU 	5
PCINT14 	EQU 	6
PCINT15 	EQU 	7
PCINT16 	EQU 	0
PCINT17 	EQU 	1
PCINT18 	EQU 	2
PCINT19 	EQU 	3
PCINT2 	EQU 	2
PCINT20 	EQU 	4
PCINT21 	EQU 	5
PCINT22 	EQU 	6
PCINT23 	EQU 	7
PCINT3 	EQU 	3
PCINT4 	EQU 	4
PCINT5 	EQU 	5
PCINT6 	EQU 	6
PCINT7 	EQU 	7
PCINT8 	EQU 	0
PCINT9 	EQU 	1
PCMSK0 	EQU 	107
PCMSK1 	EQU 	108
PCMSK2 	EQU 	109
PD0 	EQU 	0
PD1 	EQU 	1
PD2 	EQU 	2
PD3 	EQU 	3
PD4 	EQU 	4
PD5 	EQU 	5
PD6 	EQU 	6
PD7 	EQU 	7
PE0 	EQU 	0
PE1 	EQU 	1
PE2 	EQU 	2
PE3 	EQU 	3
PE4 	EQU 	4
PE5 	EQU 	5
PE6 	EQU 	6
PE7 	EQU 	7
PF0 	EQU 	0
PF1 	EQU 	1
PF2 	EQU 	2
PF3 	EQU 	3
PF4 	EQU 	4
PF5 	EQU 	5
PF6 	EQU 	6
PF7 	EQU 	7
PG0 	EQU 	0
PG1 	EQU 	1
PG2 	EQU 	2
PG3 	EQU 	3
PG4 	EQU 	4
PG5 	EQU 	5
PGERS 	EQU 	1
PGWRT 	EQU 	2
PH0 	EQU 	0
PH1 	EQU 	1
PH2 	EQU 	2
PH3 	EQU 	3
PH4 	EQU 	4
PH5 	EQU 	5
PH6 	EQU 	6
PH7 	EQU 	7
PINA 	EQU 	0
PINA0 	EQU 	0
PINA1 	EQU 	1
PINA2 	EQU 	2
PINA3 	EQU 	3
PINA4 	EQU 	4
PINA5 	EQU 	5
PINA6 	EQU 	6
PINA7 	EQU 	7
PINB 	EQU 	3
PINB0 	EQU 	0
PINB1 	EQU 	1
PINB2 	EQU 	2
PINB3 	EQU 	3
PINB4 	EQU 	4
PINB5 	EQU 	5
PINB6 	EQU 	6
PINB7 	EQU 	7
PINC 	EQU 	6
PINC0 	EQU 	0
PINC1 	EQU 	1
PINC2 	EQU 	2
PINC3 	EQU 	3
PINC4 	EQU 	4
PINC5 	EQU 	5
PINC6 	EQU 	6
PINC7 	EQU 	7
PIND 	EQU 	9
PIND0 	EQU 	0
PIND1 	EQU 	1
PIND2 	EQU 	2
PIND3 	EQU 	3
PIND4 	EQU 	4
PIND5 	EQU 	5
PIND6 	EQU 	6
PIND7 	EQU 	7
PINE 	EQU 	12
PINE0 	EQU 	0
PINE1 	EQU 	1
PINE2 	EQU 	2
PINE3 	EQU 	3
PINE4 	EQU 	4
PINE5 	EQU 	5
PINE6 	EQU 	6
PINE7 	EQU 	7
PINF 	EQU 	15
PINF0 	EQU 	0
PINF1 	EQU 	1
PINF2 	EQU 	2
PINF3 	EQU 	3
PINF4 	EQU 	4
PINF5 	EQU 	5
PINF6 	EQU 	6
PINF7 	EQU 	7
PING 	EQU 	18
PING0 	EQU 	0
PING1 	EQU 	1
PING2 	EQU 	2
PING3 	EQU 	3
PING4 	EQU 	4
PING5 	EQU 	5
PINH 	EQU 	256
PINH0 	EQU 	0
PINH1 	EQU 	1
PINH2 	EQU 	2
PINH3 	EQU 	3
PINH4 	EQU 	4
PINH5 	EQU 	5
PINH6 	EQU 	6
PINH7 	EQU 	7
PINJ 	EQU 	259
PINJ0 	EQU 	0
PINJ1 	EQU 	1
PINJ2 	EQU 	2
PINJ3 	EQU 	3
PINJ4 	EQU 	4
PINJ5 	EQU 	5
PINJ6 	EQU 	6
PINJ7 	EQU 	7
PINK 	EQU 	262
PINK0 	EQU 	0
PINK1 	EQU 	1
PINK2 	EQU 	2
PINK3 	EQU 	3
PINK4 	EQU 	4
PINK5 	EQU 	5
PINK6 	EQU 	6
PINK7 	EQU 	7
PINL 	EQU 	265
PINL0 	EQU 	0
PINL1 	EQU 	1
PINL2 	EQU 	2
PINL3 	EQU 	3
PINL4 	EQU 	4
PINL5 	EQU 	5
PINL6 	EQU 	6
PINL7 	EQU 	7
PJ0 	EQU 	0
PJ1 	EQU 	1
PJ2 	EQU 	2
PJ3 	EQU 	3
PJ4 	EQU 	4
PJ5 	EQU 	5
PJ6 	EQU 	6
PJ7 	EQU 	7
PK0 	EQU 	0
PK1 	EQU 	1
PK2 	EQU 	2
PK3 	EQU 	3
PK4 	EQU 	4
PK5 	EQU 	5
PK6 	EQU 	6
PK7 	EQU 	7
PL0 	EQU 	0
PL1 	EQU 	1
PL2 	EQU 	2
PL3 	EQU 	3
PL4 	EQU 	4
PL5 	EQU 	5
PL6 	EQU 	6
PL7 	EQU 	7
PORF 	EQU 	0
PORTA 	EQU 	2
PORTA0 	EQU 	0
PORTA1 	EQU 	1
PORTA2 	EQU 	2
PORTA3 	EQU 	3
PORTA4 	EQU 	4
PORTA5 	EQU 	5
PORTA6 	EQU 	6
PORTA7 	EQU 	7
PORTB 	EQU 	5
PORTB0 	EQU 	0
PORTB1 	EQU 	1
PORTB2 	EQU 	2
PORTB3 	EQU 	3
PORTB4 	EQU 	4
PORTB5 	EQU 	5
PORTB6 	EQU 	6
PORTB7 	EQU 	7
PORTC 	EQU 	8
PORTC0 	EQU 	0
PORTC1 	EQU 	1
PORTC2 	EQU 	2
PORTC3 	EQU 	3
PORTC4 	EQU 	4
PORTC5 	EQU 	5
PORTC6 	EQU 	6
PORTC7 	EQU 	7
PORTD 	EQU 	11
PORTD0 	EQU 	0
PORTD1 	EQU 	1
PORTD2 	EQU 	2
PORTD3 	EQU 	3
PORTD4 	EQU 	4
PORTD5 	EQU 	5
PORTD6 	EQU 	6
PORTD7 	EQU 	7
PORTE 	EQU 	14
PORTE0 	EQU 	0
PORTE1 	EQU 	1
PORTE2 	EQU 	2
PORTE3 	EQU 	3
PORTE4 	EQU 	4
PORTE5 	EQU 	5
PORTE6 	EQU 	6
PORTE7 	EQU 	7
PORTF 	EQU 	17
PORTF0 	EQU 	0
PORTF1 	EQU 	1
PORTF2 	EQU 	2
PORTF3 	EQU 	3
PORTF4 	EQU 	4
PORTF5 	EQU 	5
PORTF6 	EQU 	6
PORTF7 	EQU 	7
PORTG 	EQU 	20
PORTG0 	EQU 	0
PORTG1 	EQU 	1
PORTG2 	EQU 	2
PORTG3 	EQU 	3
PORTG4 	EQU 	4
PORTG5 	EQU 	5
PORTH 	EQU 	258
PORTH0 	EQU 	0
PORTH1 	EQU 	1
PORTH2 	EQU 	2
PORTH3 	EQU 	3
PORTH4 	EQU 	4
PORTH5 	EQU 	5
PORTH6 	EQU 	6
PORTH7 	EQU 	7
PORTJ 	EQU 	261
PORTJ0 	EQU 	0
PORTJ1 	EQU 	1
PORTJ2 	EQU 	2
PORTJ3 	EQU 	3
PORTJ4 	EQU 	4
PORTJ5 	EQU 	5
PORTJ6 	EQU 	6
PORTJ7 	EQU 	7
PORTK 	EQU 	264
PORTK0 	EQU 	0
PORTK1 	EQU 	1
PORTK2 	EQU 	2
PORTK3 	EQU 	3
PORTK4 	EQU 	4
PORTK5 	EQU 	5
PORTK6 	EQU 	6
PORTK7 	EQU 	7
PORTL 	EQU 	267
PORTL0 	EQU 	0
PORTL1 	EQU 	1
PORTL2 	EQU 	2
PORTL3 	EQU 	3
PORTL4 	EQU 	4
PORTL5 	EQU 	5
PORTL6 	EQU 	6
PORTL7 	EQU 	7
PRADC 	EQU 	0
PREC 	EQU 	835
PRECISION 	EQU 	836
PRINTLEN 	EQU 	837
PRINTLOCX 	EQU 	838
PRINTLOCX_H 	EQU 	839
PRINTLOCY 	EQU 	840
PRINTLOCY_H 	EQU 	841
PRINT_SSD1289513 	EQU 	9594
PRR0 	EQU 	100
PRR1 	EQU 	101
PRSPI 	EQU 	2
PRTIM0 	EQU 	5
PRTIM1 	EQU 	3
PRTIM2 	EQU 	6
PRTIM3 	EQU 	3
PRTIM4 	EQU 	4
PRTIM5 	EQU 	5
PRTWI 	EQU 	7
PRUSART0 	EQU 	1
PRUSART1 	EQU 	0
PRUSART2 	EQU 	1
PRUSART3 	EQU 	2
PSET_SSD1289 	EQU 	9691
PSR10 	EQU 	0
PSR2 	EQU 	1
PSRASY 	EQU 	1
PSRSYNC 	EQU 	0
PUD 	EQU 	4
PX1 	EQU 	842
PX1_H 	EQU 	843
PX2 	EQU 	844
PX2_H 	EQU 	845
PY1 	EQU 	846
PY1_H 	EQU 	847
PY2 	EQU 	848
PY2_H 	EQU 	849
RAMEND 	EQU 	8703
RAMPZ 	EQU 	59
RAMPZ0 	EQU 	0
RAMPZ1 	EQU 	1
REFS0 	EQU 	6
REFS1 	EQU 	7
RESTEXT 	EQU 	512
RESVAL 	EQU 	850
RESVAL_E 	EQU 	853
RESVAL_H 	EQU 	851
RESVAL_U 	EQU 	852
RIGHT 	EQU 	553
ROUNDRECT31 	EQU 	9839
ROW 	EQU 	854
RWWSB 	EQU 	6
RWWSRE 	EQU 	4
RX1 	EQU 	855
RX1_H 	EQU 	856
RX2 	EQU 	857
RX2_H 	EQU 	858
RXB80 	EQU 	1
RXB81 	EQU 	1
RXB82 	EQU 	1
RXB83 	EQU 	1
RXC0 	EQU 	7
RXC1 	EQU 	7
RXC2 	EQU 	7
RXC3 	EQU 	7
RXCIE0 	EQU 	7
RXCIE1 	EQU 	7
RXCIE2 	EQU 	7
RXCIE3 	EQU 	7
RXEN0 	EQU 	4
RXEN1 	EQU 	4
RXEN2 	EQU 	4
RXEN3 	EQU 	4
RY1 	EQU 	859
RY1_H 	EQU 	860
RY2 	EQU 	861
RY2_H 	EQU 	862
S 	EQU 	4
SCE16FALSE 	EQU 	10843
SCE32FALSE 	EQU 	10854
SCLT16FALSE 	EQU 	10870
SCLT16TRUE 	EQU 	10869
SCLT32FALSE 	EQU 	10885
SCLT32TRUE 	EQU 	10884
SCLTINTFALSE 	EQU 	10927
SCLTINTTRUE 	EQU 	10926
SCLTTRUE 	EQU 	10859
SE 	EQU 	0
SETBUS_SSD1289 	EQU 	10332
SET_ADDRESS_SSD1289 	EQU 	10413
SIGRD 	EQU 	5
SIZE 	EQU 	863
SM0 	EQU 	1
SM1 	EQU 	2
SM2 	EQU 	3
SMCR 	EQU 	51
SPCR 	EQU 	44
SPDR 	EQU 	46
SPDR0 	EQU 	0
SPDR1 	EQU 	1
SPDR2 	EQU 	2
SPDR3 	EQU 	3
SPDR4 	EQU 	4
SPDR5 	EQU 	5
SPDR6 	EQU 	6
SPDR7 	EQU 	7
SPE 	EQU 	6
SPH 	EQU 	62
SPI2X 	EQU 	0
SPIE 	EQU 	7
SPIF 	EQU 	7
SPL 	EQU 	61
SPMCSR 	EQU 	55
SPMEN 	EQU 	0
SPMIE 	EQU 	7
SPR0 	EQU 	0
SPR1 	EQU 	1
SPSR 	EQU 	45
SRE 	EQU 	7
SREG 	EQU 	63
SREG_C 	EQU 	0
SREG_H 	EQU 	5
SREG_I 	EQU 	7
SREG_N 	EQU 	2
SREG_S 	EQU 	4
SREG_T 	EQU 	6
SREG_V 	EQU 	3
SREG_Z 	EQU 	1
SRL0 	EQU 	4
SRL1 	EQU 	5
SRL2 	EQU 	6
SRW00 	EQU 	0
SRW01 	EQU 	1
SRW10 	EQU 	2
SRW11 	EQU 	3
STR 	EQU 	738
STRINGPOINTER 	EQU 	864
STRINGTABLE1 	EQU 	11427
STRINGTABLE10 	EQU 	11442
STRINGTABLE11 	EQU 	11443
STRINGTABLE12 	EQU 	11444
STRINGTABLE13 	EQU 	11445
STRINGTABLE14 	EQU 	11446
STRINGTABLE15 	EQU 	11447
STRINGTABLE16 	EQU 	11448
STRINGTABLE17 	EQU 	11449
STRINGTABLE18 	EQU 	11450
STRINGTABLE19 	EQU 	11451
STRINGTABLE2 	EQU 	11434
STRINGTABLE20 	EQU 	11462
STRINGTABLE21 	EQU 	11472
STRINGTABLE22 	EQU 	11473
STRINGTABLE23 	EQU 	11484
STRINGTABLE3 	EQU 	11435
STRINGTABLE4 	EQU 	11436
STRINGTABLE5 	EQU 	11437
STRINGTABLE6 	EQU 	11438
STRINGTABLE7 	EQU 	11439
STRINGTABLE8 	EQU 	11440
STRINGTABLE9 	EQU 	11441
SWAP149 	EQU 	10825
SX 	EQU 	865
SX_E 	EQU 	868
SX_H 	EQU 	866
SX_U 	EQU 	867
SY 	EQU 	869
SYSARRAYTEMP1 	EQU 	873
SYSARRAYTEMP2 	EQU 	874
SYSBITTEST 	EQU 	r5
SYSBYTETEMPA 	EQU 	r22
SYSBYTETEMPB 	EQU 	r28
SYSBYTETEMPX 	EQU 	r0
SYSCALCTEMPA 	EQU 	r22
SYSCALCTEMPA_H 	EQU 	r23
SYSCALCTEMPB 	EQU 	r28
SYSCALCTEMPB_H 	EQU 	r29
SYSCALCTEMPX 	EQU 	r0
SYSCALCTEMPX_H 	EQU 	r1
SYSCHARCOUNT 	EQU 	875
SYSCHARSTART 	EQU 	876
SYSCOMPEQUAL 	EQU 	10832
SYSCOMPEQUAL16 	EQU 	10837
SYSCOMPEQUAL32 	EQU 	10844
SYSCOMPLESSTHAN 	EQU 	10855
SYSCOMPLESSTHAN16 	EQU 	10861
SYSCOMPLESSTHAN32 	EQU 	10871
SYSCOMPLESSTHANINT 	EQU 	10886
SYSCOPYSTRING 	EQU 	10928
SYSCOPYSTRINGCHECK 	EQU 	10933
SYSCOPYSTRINGPART 	EQU 	10931
SYSDIV16START 	EQU 	10961
SYSDIV32END 	EQU 	11146
SYSDIV32START 	EQU 	11035
SYSDIVLOOP 	EQU 	r5
SYSDIVMULTA 	EQU 	r24
SYSDIVMULTA_H 	EQU 	r25
SYSDIVMULTB 	EQU 	r30
SYSDIVMULTB_H 	EQU 	r31
SYSDIVMULTX 	EQU 	r2
SYSDIVMULTX_H 	EQU 	r3
SYSDIVSUB16 	EQU 	10941
SYSDIVSUB32 	EQU 	10988
SYSDIVSUBINT 	EQU 	11163
SYSDOLOOP_E1 	EQU 	5225
SYSDOLOOP_E2 	EQU 	9416
SYSDOLOOP_E3 	EQU 	9568
SYSDOLOOP_S1 	EQU 	1354
SYSDOLOOP_S2 	EQU 	9304
SYSDOLOOP_S3 	EQU 	9456
SYSFORLOOP1 	EQU 	11515
SYSFORLOOP10 	EQU 	7919
SYSFORLOOP11 	EQU 	7930
SYSFORLOOP12 	EQU 	6482
SYSFORLOOP2 	EQU 	9784
SYSFORLOOP3 	EQU 	7751
SYSFORLOOP4 	EQU 	7767
SYSFORLOOP5 	EQU 	6274
SYSFORLOOP6 	EQU 	6282
SYSFORLOOP7 	EQU 	9617
SYSFORLOOP8 	EQU 	7846
SYSFORLOOP9 	EQU 	7908
SYSFORLOOPEND1 	EQU 	11582
SYSFORLOOPEND10 	EQU 	8080
SYSFORLOOPEND11 	EQU 	8061
SYSFORLOOPEND12 	EQU 	7004
SYSFORLOOPEND2 	EQU 	9834
SYSFORLOOPEND3 	EQU 	7800
SYSFORLOOPEND4 	EQU 	7790
SYSFORLOOPEND5 	EQU 	6374
SYSFORLOOPEND6 	EQU 	6341
SYSFORLOOPEND7 	EQU 	9690
SYSFORLOOPEND8 	EQU 	8121
SYSFORLOOPEND9 	EQU 	8103
SYSINTEGERTEMPA 	EQU 	r22
SYSINTEGERTEMPA_H 	EQU 	r23
SYSINTEGERTEMPB 	EQU 	r28
SYSINTEGERTEMPB_H 	EQU 	r29
SYSINTEGERTEMPX 	EQU 	r0
SYSINTEGERTEMPX_H 	EQU 	r1
SYSLENTEMPHANDLER 	EQU 	877
SYSLENTEMPHANDLER_H 	EQU 	878
SYSLONGDIVMULTA 	EQU 	879
SYSLONGDIVMULTA_E 	EQU 	882
SYSLONGDIVMULTA_H 	EQU 	880
SYSLONGDIVMULTA_U 	EQU 	881
SYSLONGDIVMULTB 	EQU 	883
SYSLONGDIVMULTB_E 	EQU 	886
SYSLONGDIVMULTB_H 	EQU 	884
SYSLONGDIVMULTB_U 	EQU 	885
SYSLONGDIVMULTX 	EQU 	887
SYSLONGDIVMULTX_E 	EQU 	890
SYSLONGDIVMULTX_H 	EQU 	888
SYSLONGDIVMULTX_U 	EQU 	889
SYSLONGTEMPA 	EQU 	r22
SYSLONGTEMPA_E 	EQU 	r25
SYSLONGTEMPA_H 	EQU 	r23
SYSLONGTEMPA_U 	EQU 	r24
SYSLONGTEMPB 	EQU 	r28
SYSLONGTEMPB_E 	EQU 	r31
SYSLONGTEMPB_H 	EQU 	r29
SYSLONGTEMPB_U 	EQU 	r30
SYSLONGTEMPX 	EQU 	r0
SYSLONGTEMPX_E 	EQU 	r3
SYSLONGTEMPX_H 	EQU 	r1
SYSLONGTEMPX_U 	EQU 	r2
SYSMULTSUB16 	EQU 	11210
SYSMULTSUB32 	EQU 	11242
SYSMULTSUBINT 	EQU 	11365
SYSPRINTDATAHANDLER 	EQU 	891
SYSPRINTDATAHANDLER_H 	EQU 	892
SYSPRINTTEMP 	EQU 	893
SYSREADA 	EQU 	r30
SYSREADA_H 	EQU 	r31
SYSREADSTRING 	EQU 	11403
SYSREADSTRINGPART 	EQU 	11410
SYSREPEATLOOP1 	EQU 	5254
SYSREPEATLOOP2 	EQU 	5906
SYSREPEATLOOP3 	EQU 	5801
SYSREPEATLOOP4 	EQU 	10513
SYSREPEATLOOPEND1 	EQU 	5394
SYSREPEATLOOPEND2 	EQU 	5944
SYSREPEATLOOPEND3 	EQU 	5850
SYSREPEATLOOPEND4 	EQU 	10529
SYSREPEATTEMP1 	EQU 	894
SYSREPEATTEMP2 	EQU 	895
SYSREPEATTEMP3 	EQU 	896
SYSREPEATTEMP4 	EQU 	897
SYSRESTEXT_0 	EQU 	512
SYSRIGHT_0 	EQU 	553
SYSSELECT1CASE1 	EQU 	4571
SYSSELECT1CASE2 	EQU 	4713
SYSSELECT1CASE3 	EQU 	4929
SYSSELECT1CASE4 	EQU 	5069
SYSSELECT2CASE1 	EQU 	5526
SYSSELECT2CASE2 	EQU 	5569
SYSSELECT2CASE3 	EQU 	5620
SYSSELECT2CASE4 	EQU 	5677
SYSSELECT3CASE1 	EQU 	8469
SYSSELECT3CASE2 	EQU 	8514
SYSSELECT3CASE3 	EQU 	8559
SYSSELECT3CASE4 	EQU 	8604
SYSSELECT4CASE1 	EQU 	8122
SYSSELECT4CASE2 	EQU 	8172
SYSSELECT4CASE3 	EQU 	8222
SYSSELECT4CASE4 	EQU 	8273
SYSSELECT5CASE1 	EQU 	7851
SYSSELECT5CASE2 	EQU 	7861
SYSSELECT5CASE3 	EQU 	7871
SYSSELECT5CASE4 	EQU 	7881
SYSSELECT5CASE5 	EQU 	7891
SYSSELECT6CASE1 	EQU 	6482
SYSSELECT6CASE2 	EQU 	6593
SYSSELECT6CASE3 	EQU 	6720
SYSSELECT6CASE4 	EQU 	6847
SYSSELECT7CASE1 	EQU 	5859
SYSSELECT7CASE2 	EQU 	5867
SYSSELECT7CASE3 	EQU 	5875
SYSSELECT7CASE4 	EQU 	5883
SYSSELECT7CASE5 	EQU 	5891
SYSSELECTEND1 	EQU 	5208
SYSSELECTEND2 	EQU 	5752
SYSSELECTEND3 	EQU 	8644
SYSSELECTEND4 	EQU 	8319
SYSSELECTEND5 	EQU 	7900
SYSSELECTEND6 	EQU 	6955
SYSSELECTEND7 	EQU 	5894
SYSSIGNBYTE 	EQU 	r4
SYSSTRDATA 	EQU 	898
SYSSTRINGA 	EQU 	r26
SYSSTRINGA_H 	EQU 	r27
SYSSTRINGB 	EQU 	r28
SYSSTRINGB_H 	EQU 	r29
SYSSTRINGCOPY 	EQU 	10936
SYSSTRINGLENGTH 	EQU 	r25
SYSSTRINGPARAM1 	EQU 	717
SYSSTRINGREAD 	EQU 	11419
SYSSTRINGREADCHECK 	EQU 	11416
SYSSTRINGTABLES 	EQU 	11427
SYSSTRINGTEMP 	EQU 	899
SYSSTR_0 	EQU 	738
SYSSYSINSTRINGHANDLER 	EQU 	900
SYSSYSINSTRINGHANDLER_H 	EQU 	901
SYSTEMP1 	EQU 	r6
SYSTEMP1_E 	EQU 	r9
SYSTEMP1_H 	EQU 	r7
SYSTEMP1_U 	EQU 	r8
SYSTEMP2 	EQU 	r10
SYSTEMP2_E 	EQU 	r13
SYSTEMP2_H 	EQU 	r11
SYSTEMP2_U 	EQU 	r12
SYSTEMP3 	EQU 	r14
SYSTEMP4 	EQU 	r15
SYSTEMP5 	EQU 	r16
SYSTEMP6 	EQU 	r17
SYSVALHUNDREDS 	EQU 	10728
SYSVALTEMP 	EQU 	902
SYSVALTEMP_H 	EQU 	903
SYSVALTENS 	EQU 	10769
SYSVALTHOUSANDS 	EQU 	10687
SYSVALUECOPY 	EQU 	r21
SYSWAITTEMPMS 	EQU 	r29
SYSWAITTEMPMS_H 	EQU 	r30
SYSWAITTEMPS 	EQU 	r31
SYSWORDTEMPA 	EQU 	r22
SYSWORDTEMPA_H 	EQU 	r23
SYSWORDTEMPB 	EQU 	r28
SYSWORDTEMPB_H 	EQU 	r29
SYSWORDTEMPX 	EQU 	r0
SYSWORDTEMPX_H 	EQU 	r1
SY_E 	EQU 	872
SY_H 	EQU 	870
SY_U 	EQU 	871
T 	EQU 	6
TABLEGLCDCHARCOL3EXTENDED1 	EQU 	7016
TABLEGLCDCHARCOL4EXTENDED1 	EQU 	7147
TABLEGLCDCHARCOL5EXTENDED1 	EQU 	7278
TABLEGLCDCHARCOL6EXTENDED1 	EQU 	7409
TABLEGLCDCHARCOL7EXTENDED1 	EQU 	7540
TCCR0A 	EQU 	36
TCCR0B 	EQU 	37
TCCR1A 	EQU 	128
TCCR1B 	EQU 	129
TCCR1C 	EQU 	130
TCCR2A 	EQU 	176
TCCR2B 	EQU 	177
TCCR3A 	EQU 	144
TCCR3B 	EQU 	145
TCCR3C 	EQU 	146
TCCR4A 	EQU 	160
TCCR4B 	EQU 	161
TCCR4C 	EQU 	162
TCCR5A 	EQU 	288
TCCR5B 	EQU 	289
TCCR5C 	EQU 	290
TCN2UB 	EQU 	4
TCNT0 	EQU 	38
TCNT0_0 	EQU 	0
TCNT0_1 	EQU 	1
TCNT0_2 	EQU 	2
TCNT0_3 	EQU 	3
TCNT0_4 	EQU 	4
TCNT0_5 	EQU 	5
TCNT0_6 	EQU 	6
TCNT0_7 	EQU 	7
TCNT1H 	EQU 	133
TCNT1L 	EQU 	132
TCNT2 	EQU 	178
TCNT2_0 	EQU 	0
TCNT2_1 	EQU 	1
TCNT2_2 	EQU 	2
TCNT2_3 	EQU 	3
TCNT2_4 	EQU 	4
TCNT2_5 	EQU 	5
TCNT2_6 	EQU 	6
TCNT2_7 	EQU 	7
TCNT3H 	EQU 	149
TCNT3L 	EQU 	148
TCNT4H 	EQU 	165
TCNT4L 	EQU 	164
TCNT5H 	EQU 	293
TCNT5L 	EQU 	292
TCR2AUB 	EQU 	1
TCR2BUB 	EQU 	0
TEMPCOLOR1 	EQU 	904
TEMPCOLOR1_H 	EQU 	905
TEMPCOLOR2 	EQU 	906
TEMPCOLOR2_H 	EQU 	907
TEMPTEXT 	EQU 	594
TEXT1 	EQU 	635
TEXT2 	EQU 	676
TIFR0 	EQU 	21
TIFR1 	EQU 	22
TIFR2 	EQU 	23
TIFR3 	EQU 	24
TIFR4 	EQU 	25
TIFR5 	EQU 	26
TIMSK0 	EQU 	110
TIMSK1 	EQU 	111
TIMSK2 	EQU 	112
TIMSK3 	EQU 	113
TIMSK4 	EQU 	114
TIMSK5 	EQU 	115
TOIE0 	EQU 	0
TOIE1 	EQU 	0
TOIE2 	EQU 	0
TOIE2A 	EQU 	0
TOIE3 	EQU 	0
TOIE4 	EQU 	0
TOIE5 	EQU 	0
TOV0 	EQU 	0
TOV1 	EQU 	0
TOV2 	EQU 	0
TOV3 	EQU 	0
TOV4 	EQU 	0
TOV5 	EQU 	0
TP_X 	EQU 	908
TP_X_H 	EQU 	909
TP_Y 	EQU 	910
TP_Y_H 	EQU 	911
TSM 	EQU 	7
TWA0 	EQU 	1
TWA1 	EQU 	2
TWA2 	EQU 	3
TWA3 	EQU 	4
TWA4 	EQU 	5
TWA5 	EQU 	6
TWA6 	EQU 	7
TWAM0 	EQU 	1
TWAM1 	EQU 	2
TWAM2 	EQU 	3
TWAM3 	EQU 	4
TWAM4 	EQU 	5
TWAM5 	EQU 	6
TWAM6 	EQU 	7
TWAMR 	EQU 	189
TWAMR0 	EQU 	1
TWAMR1 	EQU 	2
TWAMR2 	EQU 	3
TWAMR3 	EQU 	4
TWAMR4 	EQU 	5
TWAMR5 	EQU 	6
TWAMR6 	EQU 	7
TWAR 	EQU 	186
TWBR 	EQU 	184
TWBR0 	EQU 	0
TWBR1 	EQU 	1
TWBR2 	EQU 	2
TWBR3 	EQU 	3
TWBR4 	EQU 	4
TWBR5 	EQU 	5
TWBR6 	EQU 	6
TWBR7 	EQU 	7
TWCR 	EQU 	188
TWD0 	EQU 	0
TWD1 	EQU 	1
TWD2 	EQU 	2
TWD3 	EQU 	3
TWD4 	EQU 	4
TWD5 	EQU 	5
TWD6 	EQU 	6
TWD7 	EQU 	7
TWDR 	EQU 	187
TWEA 	EQU 	6
TWEN 	EQU 	2
TWGCE 	EQU 	0
TWIE 	EQU 	0
TWINT 	EQU 	7
TWPS0 	EQU 	0
TWPS1 	EQU 	1
TWS3 	EQU 	3
TWS4 	EQU 	4
TWS5 	EQU 	5
TWS6 	EQU 	6
TWS7 	EQU 	7
TWSR 	EQU 	185
TWSTA 	EQU 	5
TWSTO 	EQU 	4
TWWC 	EQU 	3
TXB80 	EQU 	0
TXB81 	EQU 	0
TXB82 	EQU 	0
TXB83 	EQU 	0
TXC0 	EQU 	6
TXC1 	EQU 	6
TXC2 	EQU 	6
TXC3 	EQU 	6
TXCIE0 	EQU 	6
TXCIE1 	EQU 	6
TXCIE2 	EQU 	6
TXCIE3 	EQU 	6
TXEN0 	EQU 	3
TXEN1 	EQU 	3
TXEN2 	EQU 	3
TXEN3 	EQU 	3
T_X 	EQU 	912
T_X_H 	EQU 	913
T_Y 	EQU 	914
T_Y_H 	EQU 	915
U2X0 	EQU 	1
U2X1 	EQU 	1
U2X2 	EQU 	1
U2X3 	EQU 	1
UBRR0 	EQU 	0
UBRR0H 	EQU 	197
UBRR0L 	EQU 	196
UBRR1 	EQU 	1
UBRR10 	EQU 	2
UBRR11 	EQU 	3
UBRR1H 	EQU 	205
UBRR1L 	EQU 	204
UBRR2 	EQU 	2
UBRR2H 	EQU 	213
UBRR2L 	EQU 	212
UBRR3 	EQU 	3
UBRR3H 	EQU 	309
UBRR3L 	EQU 	308
UBRR4 	EQU 	4
UBRR5 	EQU 	5
UBRR6 	EQU 	6
UBRR7 	EQU 	7
UBRR8 	EQU 	0
UBRR9 	EQU 	1
UBRR_0 	EQU 	0
UBRR_1 	EQU 	1
UBRR_10 	EQU 	2
UBRR_11 	EQU 	3
UBRR_2 	EQU 	2
UBRR_3 	EQU 	3
UBRR_4 	EQU 	4
UBRR_5 	EQU 	5
UBRR_6 	EQU 	6
UBRR_7 	EQU 	7
UBRR_8 	EQU 	0
UBRR_9 	EQU 	1
UCPHA0 	EQU 	1
UCPHA1 	EQU 	1
UCPOL0 	EQU 	0
UCPOL1 	EQU 	0
UCPOL2 	EQU 	0
UCPOL3 	EQU 	0
UCSR0A 	EQU 	192
UCSR0B 	EQU 	193
UCSR0C 	EQU 	194
UCSR1A 	EQU 	200
UCSR1B 	EQU 	201
UCSR1C 	EQU 	202
UCSR2A 	EQU 	208
UCSR2B 	EQU 	209
UCSR2C 	EQU 	210
UCSR3A 	EQU 	304
UCSR3B 	EQU 	305
UCSR3C 	EQU 	306
UCSZ00 	EQU 	1
UCSZ01 	EQU 	2
UCSZ02 	EQU 	2
UCSZ10 	EQU 	1
UCSZ11 	EQU 	2
UCSZ12 	EQU 	2
UCSZ20 	EQU 	1
UCSZ21 	EQU 	2
UCSZ22 	EQU 	2
UCSZ30 	EQU 	1
UCSZ31 	EQU 	2
UCSZ32 	EQU 	2
UDORD0 	EQU 	2
UDORD1 	EQU 	2
UDR0 	EQU 	198
UDR0_0 	EQU 	0
UDR0_1 	EQU 	1
UDR0_2 	EQU 	2
UDR0_3 	EQU 	3
UDR0_4 	EQU 	4
UDR0_5 	EQU 	5
UDR0_6 	EQU 	6
UDR0_7 	EQU 	7
UDR1 	EQU 	206
UDR1_0 	EQU 	0
UDR1_1 	EQU 	1
UDR1_2 	EQU 	2
UDR1_3 	EQU 	3
UDR1_4 	EQU 	4
UDR1_5 	EQU 	5
UDR1_6 	EQU 	6
UDR1_7 	EQU 	7
UDR2 	EQU 	214
UDR2_0 	EQU 	0
UDR2_1 	EQU 	1
UDR2_2 	EQU 	2
UDR2_3 	EQU 	3
UDR2_4 	EQU 	4
UDR2_5 	EQU 	5
UDR2_6 	EQU 	6
UDR2_7 	EQU 	7
UDR3 	EQU 	310
UDR3_0 	EQU 	0
UDR3_1 	EQU 	1
UDR3_2 	EQU 	2
UDR3_3 	EQU 	3
UDR3_4 	EQU 	4
UDR3_5 	EQU 	5
UDR3_6 	EQU 	6
UDR3_7 	EQU 	7
UDRE0 	EQU 	5
UDRE1 	EQU 	5
UDRE2 	EQU 	5
UDRE3 	EQU 	5
UDRIE0 	EQU 	5
UDRIE1 	EQU 	5
UDRIE2 	EQU 	5
UDRIE3 	EQU 	5
UMSEL0 	EQU 	6
UMSEL00 	EQU 	6
UMSEL01 	EQU 	7
UMSEL1 	EQU 	7
UMSEL10 	EQU 	6
UMSEL11 	EQU 	7
UMSEL20 	EQU 	6
UMSEL21 	EQU 	7
UMSEL30 	EQU 	6
UMSEL31 	EQU 	7
UPE0 	EQU 	2
UPE1 	EQU 	2
UPE2 	EQU 	2
UPE3 	EQU 	2
UPM00 	EQU 	4
UPM01 	EQU 	5
UPM10 	EQU 	4
UPM11 	EQU 	5
UPM20 	EQU 	4
UPM21 	EQU 	5
UPM30 	EQU 	4
UPM31 	EQU 	5
USBS0 	EQU 	3
USBS1 	EQU 	3
USBS2 	EQU 	3
USBS3 	EQU 	3
V 	EQU 	3
VAL 	EQU 	916
VAL1 	EQU 	918
VAL1_E 	EQU 	921
VAL1_H 	EQU 	919
VAL1_U 	EQU 	920
VAL2 	EQU 	922
VAL2_E 	EQU 	925
VAL2_H 	EQU 	923
VAL2_U 	EQU 	924
VAL_H 	EQU 	917
WCOL 	EQU 	6
WCOMMAND 	EQU 	926
WCOMMAND_H 	EQU 	927
WDATA 	EQU 	928
WDATA_H 	EQU 	929
WDCE 	EQU 	4
WDE 	EQU 	3
WDIE 	EQU 	6
WDIF 	EQU 	7
WDP0 	EQU 	0
WDP1 	EQU 	1
WDP2 	EQU 	2
WDP3 	EQU 	5
WDRF 	EQU 	3
WDTCSR 	EQU 	96
WGM00 	EQU 	0
WGM01 	EQU 	1
WGM02 	EQU 	3
WGM10 	EQU 	0
WGM11 	EQU 	1
WGM12 	EQU 	3
WGM13 	EQU 	4
WGM20 	EQU 	0
WGM21 	EQU 	1
WGM22 	EQU 	3
WGM30 	EQU 	0
WGM31 	EQU 	1
WGM32 	EQU 	3
WGM33 	EQU 	4
WGM40 	EQU 	0
WGM41 	EQU 	1
WGM42 	EQU 	3
WGM43 	EQU 	4
WGM50 	EQU 	0
WGM51 	EQU 	1
WGM52 	EQU 	3
WGM53 	EQU 	4
WRITE_COMMAND_DATA_SSD1289 	EQU 	11583
WRITE_COMMAND_SSD1289 	EQU 	11585
WRITE_DATA_SSD1289 	EQU 	11598
X 	EQU 	28
X+ 	EQU 	29
XCALC1 	EQU 	930
XCALC1_H 	EQU 	931
XMBK 	EQU 	7
XMCRA 	EQU 	116
XMCRB 	EQU 	117
XMM0 	EQU 	0
XMM1 	EQU 	1
XMM2 	EQU 	2
XOFFSET 	EQU 	932
XOFFSET_H 	EQU 	933
Y 	EQU 	8
Y+ 	EQU 	25
YCALC1 	EQU 	934
YCALC1_H 	EQU 	935
YOFFSET 	EQU 	936
YOFFSET_H 	EQU 	937
Z 	EQU 	1
Z+ 	EQU 	17
_UBRR0 	EQU 	0
_UBRR1 	EQU 	1
rZ 	EQU 	0

Code:
Loc	Obj Code	Original Assembly

000000	C071	RJMP BASPROGRAMSTART

000002	9518	RETI

000004	9518	RETI

000006	9518	RETI

000008	9518	RETI

00000A	9518	RETI

00000C	9518	RETI

00000E	9518	RETI

000010	9518	RETI

000012	9518	RETI

000014	9518	RETI

000016	9518	RETI

000018	9518	RETI

00001A	9518	RETI

00001C	9518	RETI

00001E	9518	RETI

000020	9518	RETI

000022	9518	RETI

000024	9518	RETI

000026	9518	RETI

000028	9518	RETI

00002A	9518	RETI

00002C	9518	RETI

00002E	9518	RETI

000030	9518	RETI

000032	9518	RETI

000034	9518	RETI

000036	9518	RETI

000038	9518	RETI

00003A	9518	RETI

00003C	9518	RETI

00003E	9518	RETI

000040	9518	RETI

000042	9518	RETI

000044	9518	RETI

000046	9518	RETI

000048	9518	RETI

00004A	9518	RETI

00004C	9518	RETI

00004E	9518	RETI

000050	9518	RETI

000052	9518	RETI

000054	9518	RETI

000056	9518	RETI

000058	9518	RETI

00005A	9518	RETI

00005C	9518	RETI

00005E	9518	RETI

000060	9518	RETI

000062	9518	RETI

000064	9518	RETI

000066	9518	RETI

000068	9518	RETI

00006A	9518	RETI

00006C	9518	RETI

00006E	9518	RETI

000070	9518	RETI



		BASPROGRAMSTART
000072	E251	LDI SYSVALUECOPY,HIGH(RAMEND)
000073	BF5E	OUT SPH, SYSVALUECOPY
000074	EF5F	LDI SYSVALUECOPY,LOW(RAMEND)
000075	BF5D	OUT SPL, SYSVALUECOPY
000076	940E 2384	CALL INITSYS
000078	940E 1679	CALL ADS7843_INIT
00007A	940E 2080	CALL INITGLCD_SSD1289

00007C	E15F	LDI SYSVALUECOPY,31
00007D	9350 0319	STS GLCDBACKGROUND,SYSVALUECOPY
00007F	E050	LDI SYSVALUECOPY,0
000080	9350 031A	STS GLCDBACKGROUND_H,SYSVALUECOPY
000082	E053	LDI SYSVALUECOPY,3
000083	9350 0342	STS ORIENTATION_SSD1289,SYSVALUECOPY
000085	940E 1FBA	CALL GLCDROTATE_SSD1289
000087	E154	LDI SYSVALUECOPY,20
000088	9350 02EF	STS BX1,SYSVALUECOPY
00008A	E050	LDI SYSVALUECOPY,0
00008B	9350 02F0	STS BX1_H,SYSVALUECOPY
00008D	E05A	LDI SYSVALUECOPY,10
00008E	9350 02F3	STS BY1,SYSVALUECOPY
000090	E050	LDI SYSVALUECOPY,0
000091	9350 02F4	STS BY1_H,SYSVALUECOPY
000093	9060 031D	LDS SYSTEMP1,GLCDDEVICEWIDTH
000095	E104	LDI SYSTEMP5,20
000096	1A60	SUB SYSTEMP1,SYSTEMP5
000097	9260 02F1	STS BX2,SYSTEMP1
000099	9060 031E	LDS SYSTEMP1,GLCDDEVICEWIDTH_H
00009B	E000	LDI SYSTEMP5,0
00009C	0A60	SBC SYSTEMP1,SYSTEMP5
00009D	9260 02F2	STS BX2_H,SYSTEMP1
00009F	E352	LDI SYSVALUECOPY,50
0000A0	9350 02F5	STS BY2,SYSVALUECOPY
0000A2	E050	LDI SYSVALUECOPY,0
0000A3	9350 02F6	STS BY2_H,SYSVALUECOPY
0000A5	E15F	LDI SYSVALUECOPY,31
0000A6	9350 0315	STS FILLCOLOR,SYSVALUECOPY
0000A8	E050	LDI SYSVALUECOPY,0
0000A9	9350 0316	STS FILLCOLOR_H,SYSVALUECOPY
0000AB	EE50	LDI SYSVALUECOPY,224
0000AC	9350 02ED	STS BORDERCOLOR,SYSVALUECOPY
0000AE	EF5F	LDI SYSVALUECOPY,255
0000AF	9350 02EE	STS BORDERCOLOR_H,SYSVALUECOPY
0000B1	ECCD	LDI SYSSTRINGB,LOW(SYSSTRINGPARAM1)
0000B2	E0D2	LDI SYSSTRINGB_H,HIGH(SYSSTRINGPARAM1)
0000B3	E4E6	LDI SYSREADA,LOW(STRINGTABLE1<<1)
0000B4	E5F9	LDI SYSREADA_H,HIGH(STRINGTABLE1<<1)
0000B5	940E 2C8B	CALL SYSREADSTRING
0000B7	EC5D	LDI SYSVALUECOPY,LOW(SYSSTRINGPARAM1)
0000B8	9350 037B	STS SYSPRINTDATAHANDLER,SYSVALUECOPY
0000BA	E052	LDI SYSVALUECOPY,HIGH(SYSSTRINGPARAM1)
0000BB	9350 037C	STS SYSPRINTDATAHANDLER_H,SYSVALUECOPY
0000BD	EE50	LDI SYSVALUECOPY,224
0000BE	9350 0313	STS FCOLOR,SYSVALUECOPY
0000C0	EF5F	LDI SYSVALUECOPY,255
0000C1	9350 0314	STS FCOLOR_H,SYSVALUECOPY
0000C3	E052	LDI SYSVALUECOPY,2
0000C4	9350 035F	STS SIZE,SYSVALUECOPY
0000C6	940E 1739	CALL CREATEBUTTON
0000C8	E154	LDI SYSVALUECOPY,20
0000C9	9350 02EF	STS BX1,SYSVALUECOPY
0000CB	E050	LDI SYSVALUECOPY,0
0000CC	9350 02F0	STS BX1_H,SYSVALUECOPY
0000CE	E35C	LDI SYSVALUECOPY,60
0000CF	9350 02F3	STS BY1,SYSVALUECOPY
0000D1	E050	LDI SYSVALUECOPY,0
0000D2	9350 02F4	STS BY1_H,SYSVALUECOPY
0000D4	E456	LDI SYSVALUECOPY,70
0000D5	9350 02F1	STS BX2,SYSVALUECOPY
0000D7	E050	LDI SYSVALUECOPY,0
0000D8	9350 02F2	STS BX2_H,SYSVALUECOPY
0000DA	E55A	LDI SYSVALUECOPY,90
0000DB	9350 02F5	STS BY2,SYSVALUECOPY
0000DD	E050	LDI SYSVALUECOPY,0
0000DE	9350 02F6	STS BY2_H,SYSVALUECOPY
0000E0	E15F	LDI SYSVALUECOPY,31
0000E1	9350 0315	STS FILLCOLOR,SYSVALUECOPY
0000E3	E050	LDI SYSVALUECOPY,0
0000E4	9350 0316	STS FILLCOLOR_H,SYSVALUECOPY
0000E6	EE50	LDI SYSVALUECOPY,224
0000E7	9350 02ED	STS BORDERCOLOR,SYSVALUECOPY
0000E9	EF5F	LDI SYSVALUECOPY,255
0000EA	9350 02EE	STS BORDERCOLOR_H,SYSVALUECOPY
0000EC	ECCD	LDI SYSSTRINGB,LOW(SYSSTRINGPARAM1)
0000ED	E0D2	LDI SYSSTRINGB_H,HIGH(SYSSTRINGPARAM1)
0000EE	E5E4	LDI SYSREADA,LOW(STRINGTABLE2<<1)
0000EF	E5F9	LDI SYSREADA_H,HIGH(STRINGTABLE2<<1)
0000F0	940E 2C8B	CALL SYSREADSTRING
0000F2	EC5D	LDI SYSVALUECOPY,LOW(SYSSTRINGPARAM1)
0000F3	9350 037B	STS SYSPRINTDATAHANDLER,SYSVALUECOPY
0000F5	E052	LDI SYSVALUECOPY,HIGH(SYSSTRINGPARAM1)
0000F6	9350 037C	STS SYSPRINTDATAHANDLER_H,SYSVALUECOPY
0000F8	EE50	LDI SYSVALUECOPY,224
0000F9	9350 0313	STS FCOLOR,SYSVALUECOPY
0000FB	EF5F	LDI SYSVALUECOPY,255
0000FC	9350 0314	STS FCOLOR_H,SYSVALUECOPY
0000FE	E052	LDI SYSVALUECOPY,2
0000FF	9350 035F	STS SIZE,SYSVALUECOPY
000101	940E 1739	CALL CREATEBUTTON
000103	E550	LDI SYSVALUECOPY,80
000104	9350 02EF	STS BX1,SYSVALUECOPY
000106	E050	LDI SYSVALUECOPY,0
000107	9350 02F0	STS BX1_H,SYSVALUECOPY
000109	E35C	LDI SYSVALUECOPY,60
00010A	9350 02F3	STS BY1,SYSVALUECOPY
00010C	E050	LDI SYSVALUECOPY,0
00010D	9350 02F4	STS BY1_H,SYSVALUECOPY
00010F	E852	LDI SYSVALUECOPY,130
000110	9350 02F1	STS BX2,SYSVALUECOPY
000112	E050	LDI SYSVALUECOPY,0
000113	9350 02F2	STS BX2_H,SYSVALUECOPY
000115	E55A	LDI SYSVALUECOPY,90
000116	9350 02F5	STS BY2,SYSVALUECOPY
000118	E050	LDI SYSVALUECOPY,0
000119	9350 02F6	STS BY2_H,SYSVALUECOPY
00011B	E15F	LDI SYSVALUECOPY,31
00011C	9350 0315	STS FILLCOLOR,SYSVALUECOPY
00011E	E050	LDI SYSVALUECOPY,0
00011F	9350 0316	STS FILLCOLOR_H,SYSVALUECOPY
000121	EE50	LDI SYSVALUECOPY,224
000122	9350 02ED	STS BORDERCOLOR,SYSVALUECOPY
000124	EF5F	LDI SYSVALUECOPY,255
000125	9350 02EE	STS BORDERCOLOR_H,SYSVALUECOPY
000127	ECCD	LDI SYSSTRINGB,LOW(SYSSTRINGPARAM1)
000128	E0D2	LDI SYSSTRINGB_H,HIGH(SYSSTRINGPARAM1)
000129	E5E6	LDI SYSREADA,LOW(STRINGTABLE3<<1)
00012A	E5F9	LDI SYSREADA_H,HIGH(STRINGTABLE3<<1)
00012B	940E 2C8B	CALL SYSREADSTRING
00012D	EC5D	LDI SYSVALUECOPY,LOW(SYSSTRINGPARAM1)
00012E	9350 037B	STS SYSPRINTDATAHANDLER,SYSVALUECOPY
000130	E052	LDI SYSVALUECOPY,HIGH(SYSSTRINGPARAM1)
000131	9350 037C	STS SYSPRINTDATAHANDLER_H,SYSVALUECOPY
000133	EE50	LDI SYSVALUECOPY,224
000134	9350 0313	STS FCOLOR,SYSVALUECOPY
000136	EF5F	LDI SYSVALUECOPY,255
000137	9350 0314	STS FCOLOR_H,SYSVALUECOPY
000139	E052	LDI SYSVALUECOPY,2
00013A	9350 035F	STS SIZE,SYSVALUECOPY
00013C	940E 1739	CALL CREATEBUTTON
00013E	E85C	LDI SYSVALUECOPY,140
00013F	9350 02EF	STS BX1,SYSVALUECOPY
000141	E050	LDI SYSVALUECOPY,0
000142	9350 02F0	STS BX1_H,SYSVALUECOPY
000144	E35C	LDI SYSVALUECOPY,60
000145	9350 02F3	STS BY1,SYSVALUECOPY
000147	E050	LDI SYSVALUECOPY,0
000148	9350 02F4	STS BY1_H,SYSVALUECOPY
00014A	EB5E	LDI SYSVALUECOPY,190
00014B	9350 02F1	STS BX2,SYSVALUECOPY
00014D	E050	LDI SYSVALUECOPY,0
00014E	9350 02F2	STS BX2_H,SYSVALUECOPY
000150	E55A	LDI SYSVALUECOPY,90
000151	9350 02F5	STS BY2,SYSVALUECOPY
000153	E050	LDI SYSVALUECOPY,0
000154	9350 02F6	STS BY2_H,SYSVALUECOPY
000156	E15F	LDI SYSVALUECOPY,31
000157	9350 0315	STS FILLCOLOR,SYSVALUECOPY
000159	E050	LDI SYSVALUECOPY,0
00015A	9350 0316	STS FILLCOLOR_H,SYSVALUECOPY
00015C	EE50	LDI SYSVALUECOPY,224
00015D	9350 02ED	STS BORDERCOLOR,SYSVALUECOPY
00015F	EF5F	LDI SYSVALUECOPY,255
000160	9350 02EE	STS BORDERCOLOR_H,SYSVALUECOPY
000162	ECCD	LDI SYSSTRINGB,LOW(SYSSTRINGPARAM1)
000163	E0D2	LDI SYSSTRINGB_H,HIGH(SYSSTRINGPARAM1)
000164	E5E8	LDI SYSREADA,LOW(STRINGTABLE4<<1)
000165	E5F9	LDI SYSREADA_H,HIGH(STRINGTABLE4<<1)
000166	940E 2C8B	CALL SYSREADSTRING
000168	EC5D	LDI SYSVALUECOPY,LOW(SYSSTRINGPARAM1)
000169	9350 037B	STS SYSPRINTDATAHANDLER,SYSVALUECOPY
00016B	E052	LDI SYSVALUECOPY,HIGH(SYSSTRINGPARAM1)
00016C	9350 037C	STS SYSPRINTDATAHANDLER_H,SYSVALUECOPY
00016E	EE50	LDI SYSVALUECOPY,224
00016F	9350 0313	STS FCOLOR,SYSVALUECOPY
000171	EF5F	LDI SYSVALUECOPY,255
000172	9350 0314	STS FCOLOR_H,SYSVALUECOPY
000174	E052	LDI SYSVALUECOPY,2
000175	9350 035F	STS SIZE,SYSVALUECOPY
000177	940E 1739	CALL CREATEBUTTON
000179	EC58	LDI SYSVALUECOPY,200
00017A	9350 02EF	STS BX1,SYSVALUECOPY
00017C	E050	LDI SYSVALUECOPY,0
00017D	9350 02F0	STS BX1_H,SYSVALUECOPY
00017F	E35C	LDI SYSVALUECOPY,60
000180	9350 02F3	STS BY1,SYSVALUECOPY
000182	E050	LDI SYSVALUECOPY,0
000183	9350 02F4	STS BY1_H,SYSVALUECOPY
000185	EF5A	LDI SYSVALUECOPY,250
000186	9350 02F1	STS BX2,SYSVALUECOPY
000188	E050	LDI SYSVALUECOPY,0
000189	9350 02F2	STS BX2_H,SYSVALUECOPY
00018B	E55A	LDI SYSVALUECOPY,90
00018C	9350 02F5	STS BY2,SYSVALUECOPY
00018E	E050	LDI SYSVALUECOPY,0
00018F	9350 02F6	STS BY2_H,SYSVALUECOPY
000191	E15F	LDI SYSVALUECOPY,31
000192	9350 0315	STS FILLCOLOR,SYSVALUECOPY
000194	E050	LDI SYSVALUECOPY,0
000195	9350 0316	STS FILLCOLOR_H,SYSVALUECOPY
000197	EE50	LDI SYSVALUECOPY,224
000198	9350 02ED	STS BORDERCOLOR,SYSVALUECOPY
00019A	EF5F	LDI SYSVALUECOPY,255
00019B	9350 02EE	STS BORDERCOLOR_H,SYSVALUECOPY
00019D	ECCD	LDI SYSSTRINGB,LOW(SYSSTRINGPARAM1)
00019E	E0D2	LDI SYSSTRINGB_H,HIGH(SYSSTRINGPARAM1)
00019F	E5EA	LDI SYSREADA,LOW(STRINGTABLE5<<1)
0001A0	E5F9	LDI SYSREADA_H,HIGH(STRINGTABLE5<<1)
0001A1	940E 2C8B	CALL SYSREADSTRING
0001A3	EC5D	LDI SYSVALUECOPY,LOW(SYSSTRINGPARAM1)
0001A4	9350 037B	STS SYSPRINTDATAHANDLER,SYSVALUECOPY
0001A6	E052	LDI SYSVALUECOPY,HIGH(SYSSTRINGPARAM1)
0001A7	9350 037C	STS SYSPRINTDATAHANDLER_H,SYSVALUECOPY
0001A9	EE50	LDI SYSVALUECOPY,224
0001AA	9350 0313	STS FCOLOR,SYSVALUECOPY
0001AC	EF5F	LDI SYSVALUECOPY,255
0001AD	9350 0314	STS FCOLOR_H,SYSVALUECOPY
0001AF	E052	LDI SYSVALUECOPY,2
0001B0	9350 035F	STS SIZE,SYSVALUECOPY
0001B2	940E 1739	CALL CREATEBUTTON
0001B4	E154	LDI SYSVALUECOPY,20
0001B5	9350 02EF	STS BX1,SYSVALUECOPY
0001B7	E050	LDI SYSVALUECOPY,0
0001B8	9350 02F0	STS BX1_H,SYSVALUECOPY
0001BA	E654	LDI SYSVALUECOPY,100
0001BB	9350 02F3	STS BY1,SYSVALUECOPY
0001BD	E050	LDI SYSVALUECOPY,0
0001BE	9350 02F4	STS BY1_H,SYSVALUECOPY
0001C0	E456	LDI SYSVALUECOPY,70
0001C1	9350 02F1	STS BX2,SYSVALUECOPY
0001C3	E050	LDI SYSVALUECOPY,0
0001C4	9350 02F2	STS BX2_H,SYSVALUECOPY
0001C6	E852	LDI SYSVALUECOPY,130
0001C7	9350 02F5	STS BY2,SYSVALUECOPY
0001C9	E050	LDI SYSVALUECOPY,0
0001CA	9350 02F6	STS BY2_H,SYSVALUECOPY
0001CC	E15F	LDI SYSVALUECOPY,31
0001CD	9350 0315	STS FILLCOLOR,SYSVALUECOPY
0001CF	E050	LDI SYSVALUECOPY,0
0001D0	9350 0316	STS FILLCOLOR_H,SYSVALUECOPY
0001D2	EE50	LDI SYSVALUECOPY,224
0001D3	9350 02ED	STS BORDERCOLOR,SYSVALUECOPY
0001D5	EF5F	LDI SYSVALUECOPY,255
0001D6	9350 02EE	STS BORDERCOLOR_H,SYSVALUECOPY
0001D8	ECCD	LDI SYSSTRINGB,LOW(SYSSTRINGPARAM1)
0001D9	E0D2	LDI SYSSTRINGB_H,HIGH(SYSSTRINGPARAM1)
0001DA	E5EC	LDI SYSREADA,LOW(STRINGTABLE6<<1)
0001DB	E5F9	LDI SYSREADA_H,HIGH(STRINGTABLE6<<1)
0001DC	940E 2C8B	CALL SYSREADSTRING
0001DE	EC5D	LDI SYSVALUECOPY,LOW(SYSSTRINGPARAM1)
0001DF	9350 037B	STS SYSPRINTDATAHANDLER,SYSVALUECOPY
0001E1	E052	LDI SYSVALUECOPY,HIGH(SYSSTRINGPARAM1)
0001E2	9350 037C	STS SYSPRINTDATAHANDLER_H,SYSVALUECOPY
0001E4	EE50	LDI SYSVALUECOPY,224
0001E5	9350 0313	STS FCOLOR,SYSVALUECOPY
0001E7	EF5F	LDI SYSVALUECOPY,255
0001E8	9350 0314	STS FCOLOR_H,SYSVALUECOPY
0001EA	E052	LDI SYSVALUECOPY,2
0001EB	9350 035F	STS SIZE,SYSVALUECOPY
0001ED	940E 1739	CALL CREATEBUTTON
0001EF	E550	LDI SYSVALUECOPY,80
0001F0	9350 02EF	STS BX1,SYSVALUECOPY
0001F2	E050	LDI SYSVALUECOPY,0
0001F3	9350 02F0	STS BX1_H,SYSVALUECOPY
0001F5	E654	LDI SYSVALUECOPY,100
0001F6	9350 02F3	STS BY1,SYSVALUECOPY
0001F8	E050	LDI SYSVALUECOPY,0
0001F9	9350 02F4	STS BY1_H,SYSVALUECOPY
0001FB	E852	LDI SYSVALUECOPY,130
0001FC	9350 02F1	STS BX2,SYSVALUECOPY
0001FE	E050	LDI SYSVALUECOPY,0
0001FF	9350 02F2	STS BX2_H,SYSVALUECOPY
000201	E852	LDI SYSVALUECOPY,130
000202	9350 02F5	STS BY2,SYSVALUECOPY
000204	E050	LDI SYSVALUECOPY,0
000205	9350 02F6	STS BY2_H,SYSVALUECOPY
000207	E15F	LDI SYSVALUECOPY,31
000208	9350 0315	STS FILLCOLOR,SYSVALUECOPY
00020A	E050	LDI SYSVALUECOPY,0
00020B	9350 0316	STS FILLCOLOR_H,SYSVALUECOPY
00020D	EE50	LDI SYSVALUECOPY,224
00020E	9350 02ED	STS BORDERCOLOR,SYSVALUECOPY
000210	EF5F	LDI SYSVALUECOPY,255
000211	9350 02EE	STS BORDERCOLOR_H,SYSVALUECOPY
000213	ECCD	LDI SYSSTRINGB,LOW(SYSSTRINGPARAM1)
000214	E0D2	LDI SYSSTRINGB_H,HIGH(SYSSTRINGPARAM1)
000215	E5EE	LDI SYSREADA,LOW(STRINGTABLE7<<1)
000216	E5F9	LDI SYSREADA_H,HIGH(STRINGTABLE7<<1)
000217	940E 2C8B	CALL SYSREADSTRING
000219	EC5D	LDI SYSVALUECOPY,LOW(SYSSTRINGPARAM1)
00021A	9350 037B	STS SYSPRINTDATAHANDLER,SYSVALUECOPY
00021C	E052	LDI SYSVALUECOPY,HIGH(SYSSTRINGPARAM1)
00021D	9350 037C	STS SYSPRINTDATAHANDLER_H,SYSVALUECOPY
00021F	EE50	LDI SYSVALUECOPY,224
000220	9350 0313	STS FCOLOR,SYSVALUECOPY
000222	EF5F	LDI SYSVALUECOPY,255
000223	9350 0314	STS FCOLOR_H,SYSVALUECOPY
000225	E052	LDI SYSVALUECOPY,2
000226	9350 035F	STS SIZE,SYSVALUECOPY
000228	940E 1739	CALL CREATEBUTTON
00022A	E85C	LDI SYSVALUECOPY,140
00022B	9350 02EF	STS BX1,SYSVALUECOPY
00022D	E050	LDI SYSVALUECOPY,0
00022E	9350 02F0	STS BX1_H,SYSVALUECOPY
000230	E654	LDI SYSVALUECOPY,100
000231	9350 02F3	STS BY1,SYSVALUECOPY
000233	E050	LDI SYSVALUECOPY,0
000234	9350 02F4	STS BY1_H,SYSVALUECOPY
000236	EB5E	LDI SYSVALUECOPY,190
000237	9350 02F1	STS BX2,SYSVALUECOPY
000239	E050	LDI SYSVALUECOPY,0
00023A	9350 02F2	STS BX2_H,SYSVALUECOPY
00023C	E852	LDI SYSVALUECOPY,130
00023D	9350 02F5	STS BY2,SYSVALUECOPY
00023F	E050	LDI SYSVALUECOPY,0
000240	9350 02F6	STS BY2_H,SYSVALUECOPY
000242	E15F	LDI SYSVALUECOPY,31
000243	9350 0315	STS FILLCOLOR,SYSVALUECOPY
000245	E050	LDI SYSVALUECOPY,0
000246	9350 0316	STS FILLCOLOR_H,SYSVALUECOPY
000248	EE50	LDI SYSVALUECOPY,224
000249	9350 02ED	STS BORDERCOLOR,SYSVALUECOPY
00024B	EF5F	LDI SYSVALUECOPY,255
00024C	9350 02EE	STS BORDERCOLOR_H,SYSVALUECOPY
00024E	ECCD	LDI SYSSTRINGB,LOW(SYSSTRINGPARAM1)
00024F	E0D2	LDI SYSSTRINGB_H,HIGH(SYSSTRINGPARAM1)
000250	E6E0	LDI SYSREADA,LOW(STRINGTABLE8<<1)
000251	E5F9	LDI SYSREADA_H,HIGH(STRINGTABLE8<<1)
000252	940E 2C8B	CALL SYSREADSTRING
000254	EC5D	LDI SYSVALUECOPY,LOW(SYSSTRINGPARAM1)
000255	9350 037B	STS SYSPRINTDATAHANDLER,SYSVALUECOPY
000257	E052	LDI SYSVALUECOPY,HIGH(SYSSTRINGPARAM1)
000258	9350 037C	STS SYSPRINTDATAHANDLER_H,SYSVALUECOPY
00025A	EE50	LDI SYSVALUECOPY,224
00025B	9350 0313	STS FCOLOR,SYSVALUECOPY
00025D	EF5F	LDI SYSVALUECOPY,255
00025E	9350 0314	STS FCOLOR_H,SYSVALUECOPY
000260	E052	LDI SYSVALUECOPY,2
000261	9350 035F	STS SIZE,SYSVALUECOPY
000263	940E 1739	CALL CREATEBUTTON
000265	EC58	LDI SYSVALUECOPY,200
000266	9350 02EF	STS BX1,SYSVALUECOPY
000268	E050	LDI SYSVALUECOPY,0
000269	9350 02F0	STS BX1_H,SYSVALUECOPY
00026B	E654	LDI SYSVALUECOPY,100
00026C	9350 02F3	STS BY1,SYSVALUECOPY
00026E	E050	LDI SYSVALUECOPY,0
00026F	9350 02F4	STS BY1_H,SYSVALUECOPY
000271	EF5A	LDI SYSVALUECOPY,250
000272	9350 02F1	STS BX2,SYSVALUECOPY
000274	E050	LDI SYSVALUECOPY,0
000275	9350 02F2	STS BX2_H,SYSVALUECOPY
000277	E852	LDI SYSVALUECOPY,130
000278	9350 02F5	STS BY2,SYSVALUECOPY
00027A	E050	LDI SYSVALUECOPY,0
00027B	9350 02F6	STS BY2_H,SYSVALUECOPY
00027D	E15F	LDI SYSVALUECOPY,31
00027E	9350 0315	STS FILLCOLOR,SYSVALUECOPY
000280	E050	LDI SYSVALUECOPY,0
000281	9350 0316	STS FILLCOLOR_H,SYSVALUECOPY
000283	EE50	LDI SYSVALUECOPY,224
000284	9350 02ED	STS BORDERCOLOR,SYSVALUECOPY
000286	EF5F	LDI SYSVALUECOPY,255
000287	9350 02EE	STS BORDERCOLOR_H,SYSVALUECOPY
000289	ECCD	LDI SYSSTRINGB,LOW(SYSSTRINGPARAM1)
00028A	E0D2	LDI SYSSTRINGB_H,HIGH(SYSSTRINGPARAM1)
00028B	E6E2	LDI SYSREADA,LOW(STRINGTABLE9<<1)
00028C	E5F9	LDI SYSREADA_H,HIGH(STRINGTABLE9<<1)
00028D	940E 2C8B	CALL SYSREADSTRING
00028F	EC5D	LDI SYSVALUECOPY,LOW(SYSSTRINGPARAM1)
000290	9350 037B	STS SYSPRINTDATAHANDLER,SYSVALUECOPY
000292	E052	LDI SYSVALUECOPY,HIGH(SYSSTRINGPARAM1)
000293	9350 037C	STS SYSPRINTDATAHANDLER_H,SYSVALUECOPY
000295	EE50	LDI SYSVALUECOPY,224
000296	9350 0313	STS FCOLOR,SYSVALUECOPY
000298	EF5F	LDI SYSVALUECOPY,255
000299	9350 0314	STS FCOLOR_H,SYSVALUECOPY
00029B	E052	LDI SYSVALUECOPY,2
00029C	9350 035F	STS SIZE,SYSVALUECOPY
00029E	940E 1739	CALL CREATEBUTTON
0002A0	E154	LDI SYSVALUECOPY,20
0002A1	9350 02EF	STS BX1,SYSVALUECOPY
0002A3	E050	LDI SYSVALUECOPY,0
0002A4	9350 02F0	STS BX1_H,SYSVALUECOPY
0002A6	E85C	LDI SYSVALUECOPY,140
0002A7	9350 02F3	STS BY1,SYSVALUECOPY
0002A9	E050	LDI SYSVALUECOPY,0
0002AA	9350 02F4	STS BY1_H,SYSVALUECOPY
0002AC	E456	LDI SYSVALUECOPY,70
0002AD	9350 02F1	STS BX2,SYSVALUECOPY
0002AF	E050	LDI SYSVALUECOPY,0
0002B0	9350 02F2	STS BX2_H,SYSVALUECOPY
0002B2	EA5A	LDI SYSVALUECOPY,170
0002B3	9350 02F5	STS BY2,SYSVALUECOPY
0002B5	E050	LDI SYSVALUECOPY,0
0002B6	9350 02F6	STS BY2_H,SYSVALUECOPY
0002B8	E15F	LDI SYSVALUECOPY,31
0002B9	9350 0315	STS FILLCOLOR,SYSVALUECOPY
0002BB	E050	LDI SYSVALUECOPY,0
0002BC	9350 0316	STS FILLCOLOR_H,SYSVALUECOPY
0002BE	EE50	LDI SYSVALUECOPY,224
0002BF	9350 02ED	STS BORDERCOLOR,SYSVALUECOPY
0002C1	EF5F	LDI SYSVALUECOPY,255
0002C2	9350 02EE	STS BORDERCOLOR_H,SYSVALUECOPY
0002C4	ECCD	LDI SYSSTRINGB,LOW(SYSSTRINGPARAM1)
0002C5	E0D2	LDI SYSSTRINGB_H,HIGH(SYSSTRINGPARAM1)
0002C6	E6E4	LDI SYSREADA,LOW(STRINGTABLE10<<1)
0002C7	E5F9	LDI SYSREADA_H,HIGH(STRINGTABLE10<<1)
0002C8	940E 2C8B	CALL SYSREADSTRING
0002CA	EC5D	LDI SYSVALUECOPY,LOW(SYSSTRINGPARAM1)
0002CB	9350 037B	STS SYSPRINTDATAHANDLER,SYSVALUECOPY
0002CD	E052	LDI SYSVALUECOPY,HIGH(SYSSTRINGPARAM1)
0002CE	9350 037C	STS SYSPRINTDATAHANDLER_H,SYSVALUECOPY
0002D0	EE50	LDI SYSVALUECOPY,224
0002D1	9350 0313	STS FCOLOR,SYSVALUECOPY
0002D3	EF5F	LDI SYSVALUECOPY,255
0002D4	9350 0314	STS FCOLOR_H,SYSVALUECOPY
0002D6	E052	LDI SYSVALUECOPY,2
0002D7	9350 035F	STS SIZE,SYSVALUECOPY
0002D9	940E 1739	CALL CREATEBUTTON
0002DB	E550	LDI SYSVALUECOPY,80
0002DC	9350 02EF	STS BX1,SYSVALUECOPY
0002DE	E050	LDI SYSVALUECOPY,0
0002DF	9350 02F0	STS BX1_H,SYSVALUECOPY
0002E1	E85C	LDI SYSVALUECOPY,140
0002E2	9350 02F3	STS BY1,SYSVALUECOPY
0002E4	E050	LDI SYSVALUECOPY,0
0002E5	9350 02F4	STS BY1_H,SYSVALUECOPY
0002E7	E852	LDI SYSVALUECOPY,130
0002E8	9350 02F1	STS BX2,SYSVALUECOPY
0002EA	E050	LDI SYSVALUECOPY,0
0002EB	9350 02F2	STS BX2_H,SYSVALUECOPY
0002ED	EA5A	LDI SYSVALUECOPY,170
0002EE	9350 02F5	STS BY2,SYSVALUECOPY
0002F0	E050	LDI SYSVALUECOPY,0
0002F1	9350 02F6	STS BY2_H,SYSVALUECOPY
0002F3	E15F	LDI SYSVALUECOPY,31
0002F4	9350 0315	STS FILLCOLOR,SYSVALUECOPY
0002F6	E050	LDI SYSVALUECOPY,0
0002F7	9350 0316	STS FILLCOLOR_H,SYSVALUECOPY
0002F9	EE50	LDI SYSVALUECOPY,224
0002FA	9350 02ED	STS BORDERCOLOR,SYSVALUECOPY
0002FC	EF5F	LDI SYSVALUECOPY,255
0002FD	9350 02EE	STS BORDERCOLOR_H,SYSVALUECOPY
0002FF	ECCD	LDI SYSSTRINGB,LOW(SYSSTRINGPARAM1)
000300	E0D2	LDI SYSSTRINGB_H,HIGH(SYSSTRINGPARAM1)
000301	E6E6	LDI SYSREADA,LOW(STRINGTABLE11<<1)
000302	E5F9	LDI SYSREADA_H,HIGH(STRINGTABLE11<<1)
000303	940E 2C8B	CALL SYSREADSTRING
000305	EC5D	LDI SYSVALUECOPY,LOW(SYSSTRINGPARAM1)
000306	9350 037B	STS SYSPRINTDATAHANDLER,SYSVALUECOPY
000308	E052	LDI SYSVALUECOPY,HIGH(SYSSTRINGPARAM1)
000309	9350 037C	STS SYSPRINTDATAHANDLER_H,SYSVALUECOPY
00030B	EE50	LDI SYSVALUECOPY,224
00030C	9350 0313	STS FCOLOR,SYSVALUECOPY
00030E	EF5F	LDI SYSVALUECOPY,255
00030F	9350 0314	STS FCOLOR_H,SYSVALUECOPY
000311	E052	LDI SYSVALUECOPY,2
000312	9350 035F	STS SIZE,SYSVALUECOPY
000314	940E 1739	CALL CREATEBUTTON
000316	E85C	LDI SYSVALUECOPY,140
000317	9350 02EF	STS BX1,SYSVALUECOPY
000319	E050	LDI SYSVALUECOPY,0
00031A	9350 02F0	STS BX1_H,SYSVALUECOPY
00031C	E85C	LDI SYSVALUECOPY,140
00031D	9350 02F3	STS BY1,SYSVALUECOPY
00031F	E050	LDI SYSVALUECOPY,0
000320	9350 02F4	STS BY1_H,SYSVALUECOPY
000322	EB5E	LDI SYSVALUECOPY,190
000323	9350 02F1	STS BX2,SYSVALUECOPY
000325	E050	LDI SYSVALUECOPY,0
000326	9350 02F2	STS BX2_H,SYSVALUECOPY
000328	EA5A	LDI SYSVALUECOPY,170
000329	9350 02F5	STS BY2,SYSVALUECOPY
00032B	E050	LDI SYSVALUECOPY,0
00032C	9350 02F6	STS BY2_H,SYSVALUECOPY
00032E	E15F	LDI SYSVALUECOPY,31
00032F	9350 0315	STS FILLCOLOR,SYSVALUECOPY
000331	E050	LDI SYSVALUECOPY,0
000332	9350 0316	STS FILLCOLOR_H,SYSVALUECOPY
000334	EE50	LDI SYSVALUECOPY,224
000335	9350 02ED	STS BORDERCOLOR,SYSVALUECOPY
000337	EF5F	LDI SYSVALUECOPY,255
000338	9350 02EE	STS BORDERCOLOR_H,SYSVALUECOPY
00033A	ECCD	LDI SYSSTRINGB,LOW(SYSSTRINGPARAM1)
00033B	E0D2	LDI SYSSTRINGB_H,HIGH(SYSSTRINGPARAM1)
00033C	E6E8	LDI SYSREADA,LOW(STRINGTABLE12<<1)
00033D	E5F9	LDI SYSREADA_H,HIGH(STRINGTABLE12<<1)
00033E	940E 2C8B	CALL SYSREADSTRING
000340	EC5D	LDI SYSVALUECOPY,LOW(SYSSTRINGPARAM1)
000341	9350 037B	STS SYSPRINTDATAHANDLER,SYSVALUECOPY
000343	E052	LDI SYSVALUECOPY,HIGH(SYSSTRINGPARAM1)
000344	9350 037C	STS SYSPRINTDATAHANDLER_H,SYSVALUECOPY
000346	EE50	LDI SYSVALUECOPY,224
000347	9350 0313	STS FCOLOR,SYSVALUECOPY
000349	EF5F	LDI SYSVALUECOPY,255
00034A	9350 0314	STS FCOLOR_H,SYSVALUECOPY
00034C	E052	LDI SYSVALUECOPY,2
00034D	9350 035F	STS SIZE,SYSVALUECOPY
00034F	940E 1739	CALL CREATEBUTTON
000351	EC58	LDI SYSVALUECOPY,200
000352	9350 02EF	STS BX1,SYSVALUECOPY
000354	E050	LDI SYSVALUECOPY,0
000355	9350 02F0	STS BX1_H,SYSVALUECOPY
000357	E85C	LDI SYSVALUECOPY,140
000358	9350 02F3	STS BY1,SYSVALUECOPY
00035A	E050	LDI SYSVALUECOPY,0
00035B	9350 02F4	STS BY1_H,SYSVALUECOPY
00035D	EF5A	LDI SYSVALUECOPY,250
00035E	9350 02F1	STS BX2,SYSVALUECOPY
000360	E050	LDI SYSVALUECOPY,0
000361	9350 02F2	STS BX2_H,SYSVALUECOPY
000363	EA5A	LDI SYSVALUECOPY,170
000364	9350 02F5	STS BY2,SYSVALUECOPY
000366	E050	LDI SYSVALUECOPY,0
000367	9350 02F6	STS BY2_H,SYSVALUECOPY
000369	E15F	LDI SYSVALUECOPY,31
00036A	9350 0315	STS FILLCOLOR,SYSVALUECOPY
00036C	E050	LDI SYSVALUECOPY,0
00036D	9350 0316	STS FILLCOLOR_H,SYSVALUECOPY
00036F	EE50	LDI SYSVALUECOPY,224
000370	9350 02ED	STS BORDERCOLOR,SYSVALUECOPY
000372	EF5F	LDI SYSVALUECOPY,255
000373	9350 02EE	STS BORDERCOLOR_H,SYSVALUECOPY
000375	ECCD	LDI SYSSTRINGB,LOW(SYSSTRINGPARAM1)
000376	E0D2	LDI SYSSTRINGB_H,HIGH(SYSSTRINGPARAM1)
000377	E6EA	LDI SYSREADA,LOW(STRINGTABLE13<<1)
000378	E5F9	LDI SYSREADA_H,HIGH(STRINGTABLE13<<1)
000379	940E 2C8B	CALL SYSREADSTRING
00037B	EC5D	LDI SYSVALUECOPY,LOW(SYSSTRINGPARAM1)
00037C	9350 037B	STS SYSPRINTDATAHANDLER,SYSVALUECOPY
00037E	E052	LDI SYSVALUECOPY,HIGH(SYSSTRINGPARAM1)
00037F	9350 037C	STS SYSPRINTDATAHANDLER_H,SYSVALUECOPY
000381	EE50	LDI SYSVALUECOPY,224
000382	9350 0313	STS FCOLOR,SYSVALUECOPY
000384	EF5F	LDI SYSVALUECOPY,255
000385	9350 0314	STS FCOLOR_H,SYSVALUECOPY
000387	E052	LDI SYSVALUECOPY,2
000388	9350 035F	STS SIZE,SYSVALUECOPY
00038A	940E 1739	CALL CREATEBUTTON
00038C	E154	LDI SYSVALUECOPY,20
00038D	9350 02EF	STS BX1,SYSVALUECOPY
00038F	E050	LDI SYSVALUECOPY,0
000390	9350 02F0	STS BX1_H,SYSVALUECOPY
000392	EB54	LDI SYSVALUECOPY,180
000393	9350 02F3	STS BY1,SYSVALUECOPY
000395	E050	LDI SYSVALUECOPY,0
000396	9350 02F4	STS BY1_H,SYSVALUECOPY
000398	E852	LDI SYSVALUECOPY,130
000399	9350 02F1	STS BX2,SYSVALUECOPY
00039B	E050	LDI SYSVALUECOPY,0
00039C	9350 02F2	STS BX2_H,SYSVALUECOPY
00039E	ED52	LDI SYSVALUECOPY,210
00039F	9350 02F5	STS BY2,SYSVALUECOPY
0003A1	E050	LDI SYSVALUECOPY,0
0003A2	9350 02F6	STS BY2_H,SYSVALUECOPY
0003A4	E15F	LDI SYSVALUECOPY,31
0003A5	9350 0315	STS FILLCOLOR,SYSVALUECOPY
0003A7	E050	LDI SYSVALUECOPY,0
0003A8	9350 0316	STS FILLCOLOR_H,SYSVALUECOPY
0003AA	EE50	LDI SYSVALUECOPY,224
0003AB	9350 02ED	STS BORDERCOLOR,SYSVALUECOPY
0003AD	EF5F	LDI SYSVALUECOPY,255
0003AE	9350 02EE	STS BORDERCOLOR_H,SYSVALUECOPY
0003B0	ECCD	LDI SYSSTRINGB,LOW(SYSSTRINGPARAM1)
0003B1	E0D2	LDI SYSSTRINGB_H,HIGH(SYSSTRINGPARAM1)
0003B2	E6EC	LDI SYSREADA,LOW(STRINGTABLE14<<1)
0003B3	E5F9	LDI SYSREADA_H,HIGH(STRINGTABLE14<<1)
0003B4	940E 2C8B	CALL SYSREADSTRING
0003B6	EC5D	LDI SYSVALUECOPY,LOW(SYSSTRINGPARAM1)
0003B7	9350 037B	STS SYSPRINTDATAHANDLER,SYSVALUECOPY
0003B9	E052	LDI SYSVALUECOPY,HIGH(SYSSTRINGPARAM1)
0003BA	9350 037C	STS SYSPRINTDATAHANDLER_H,SYSVALUECOPY
0003BC	EE50	LDI SYSVALUECOPY,224
0003BD	9350 0313	STS FCOLOR,SYSVALUECOPY
0003BF	EF5F	LDI SYSVALUECOPY,255
0003C0	9350 0314	STS FCOLOR_H,SYSVALUECOPY
0003C2	E052	LDI SYSVALUECOPY,2
0003C3	9350 035F	STS SIZE,SYSVALUECOPY
0003C5	940E 1739	CALL CREATEBUTTON
0003C7	E85C	LDI SYSVALUECOPY,140
0003C8	9350 02EF	STS BX1,SYSVALUECOPY
0003CA	E050	LDI SYSVALUECOPY,0
0003CB	9350 02F0	STS BX1_H,SYSVALUECOPY
0003CD	EB54	LDI SYSVALUECOPY,180
0003CE	9350 02F3	STS BY1,SYSVALUECOPY
0003D0	E050	LDI SYSVALUECOPY,0
0003D1	9350 02F4	STS BY1_H,SYSVALUECOPY
0003D3	EB5E	LDI SYSVALUECOPY,190
0003D4	9350 02F1	STS BX2,SYSVALUECOPY
0003D6	E050	LDI SYSVALUECOPY,0
0003D7	9350 02F2	STS BX2_H,SYSVALUECOPY
0003D9	ED52	LDI SYSVALUECOPY,210
0003DA	9350 02F5	STS BY2,SYSVALUECOPY
0003DC	E050	LDI SYSVALUECOPY,0
0003DD	9350 02F6	STS BY2_H,SYSVALUECOPY
0003DF	E15F	LDI SYSVALUECOPY,31
0003E0	9350 0315	STS FILLCOLOR,SYSVALUECOPY
0003E2	E050	LDI SYSVALUECOPY,0
0003E3	9350 0316	STS FILLCOLOR_H,SYSVALUECOPY
0003E5	EE50	LDI SYSVALUECOPY,224
0003E6	9350 02ED	STS BORDERCOLOR,SYSVALUECOPY
0003E8	EF5F	LDI SYSVALUECOPY,255
0003E9	9350 02EE	STS BORDERCOLOR_H,SYSVALUECOPY
0003EB	ECCD	LDI SYSSTRINGB,LOW(SYSSTRINGPARAM1)
0003EC	E0D2	LDI SYSSTRINGB_H,HIGH(SYSSTRINGPARAM1)
0003ED	E6EE	LDI SYSREADA,LOW(STRINGTABLE15<<1)
0003EE	E5F9	LDI SYSREADA_H,HIGH(STRINGTABLE15<<1)
0003EF	940E 2C8B	CALL SYSREADSTRING
0003F1	EC5D	LDI SYSVALUECOPY,LOW(SYSSTRINGPARAM1)
0003F2	9350 037B	STS SYSPRINTDATAHANDLER,SYSVALUECOPY
0003F4	E052	LDI SYSVALUECOPY,HIGH(SYSSTRINGPARAM1)
0003F5	9350 037C	STS SYSPRINTDATAHANDLER_H,SYSVALUECOPY
0003F7	EE50	LDI SYSVALUECOPY,224
0003F8	9350 0313	STS FCOLOR,SYSVALUECOPY
0003FA	EF5F	LDI SYSVALUECOPY,255
0003FB	9350 0314	STS FCOLOR_H,SYSVALUECOPY
0003FD	E052	LDI SYSVALUECOPY,2
0003FE	9350 035F	STS SIZE,SYSVALUECOPY
000400	940E 1739	CALL CREATEBUTTON
000402	EC58	LDI SYSVALUECOPY,200
000403	9350 02EF	STS BX1,SYSVALUECOPY
000405	E050	LDI SYSVALUECOPY,0
000406	9350 02F0	STS BX1_H,SYSVALUECOPY
000408	EB54	LDI SYSVALUECOPY,180
000409	9350 02F3	STS BY1,SYSVALUECOPY
00040B	E050	LDI SYSVALUECOPY,0
00040C	9350 02F4	STS BY1_H,SYSVALUECOPY
00040E	EF5A	LDI SYSVALUECOPY,250
00040F	9350 02F1	STS BX2,SYSVALUECOPY
000411	E050	LDI SYSVALUECOPY,0
000412	9350 02F2	STS BX2_H,SYSVALUECOPY
000414	ED52	LDI SYSVALUECOPY,210
000415	9350 02F5	STS BY2,SYSVALUECOPY
000417	E050	LDI SYSVALUECOPY,0
000418	9350 02F6	STS BY2_H,SYSVALUECOPY
00041A	E15F	LDI SYSVALUECOPY,31
00041B	9350 0315	STS FILLCOLOR,SYSVALUECOPY
00041D	E050	LDI SYSVALUECOPY,0
00041E	9350 0316	STS FILLCOLOR_H,SYSVALUECOPY
000420	EE50	LDI SYSVALUECOPY,224
000421	9350 02ED	STS BORDERCOLOR,SYSVALUECOPY
000423	EF5F	LDI SYSVALUECOPY,255
000424	9350 02EE	STS BORDERCOLOR_H,SYSVALUECOPY
000426	ECCD	LDI SYSSTRINGB,LOW(SYSSTRINGPARAM1)
000427	E0D2	LDI SYSSTRINGB_H,HIGH(SYSSTRINGPARAM1)
000428	E7E0	LDI SYSREADA,LOW(STRINGTABLE16<<1)
000429	E5F9	LDI SYSREADA_H,HIGH(STRINGTABLE16<<1)
00042A	940E 2C8B	CALL SYSREADSTRING
00042C	EC5D	LDI SYSVALUECOPY,LOW(SYSSTRINGPARAM1)
00042D	9350 037B	STS SYSPRINTDATAHANDLER,SYSVALUECOPY
00042F	E052	LDI SYSVALUECOPY,HIGH(SYSSTRINGPARAM1)
000430	9350 037C	STS SYSPRINTDATAHANDLER_H,SYSVALUECOPY
000432	EE50	LDI SYSVALUECOPY,224
000433	9350 0313	STS FCOLOR,SYSVALUECOPY
000435	EF5F	LDI SYSVALUECOPY,255
000436	9350 0314	STS FCOLOR_H,SYSVALUECOPY
000438	E052	LDI SYSVALUECOPY,2
000439	9350 035F	STS SIZE,SYSVALUECOPY
00043B	940E 1739	CALL CREATEBUTTON
00043D	E054	LDI SYSVALUECOPY,4
00043E	9350 02EF	STS BX1,SYSVALUECOPY
000440	E051	LDI SYSVALUECOPY,1
000441	9350 02F0	STS BX1_H,SYSVALUECOPY
000443	E35C	LDI SYSVALUECOPY,60
000444	9350 02F3	STS BY1,SYSVALUECOPY
000446	E050	LDI SYSVALUECOPY,0
000447	9350 02F4	STS BY1_H,SYSVALUECOPY
000449	E25B	LDI SYSVALUECOPY,43
00044A	9350 02F1	STS BX2,SYSVALUECOPY
00044C	E051	LDI SYSVALUECOPY,1
00044D	9350 02F2	STS BX2_H,SYSVALUECOPY
00044F	E852	LDI SYSVALUECOPY,130
000450	9350 02F5	STS BY2,SYSVALUECOPY
000452	E050	LDI SYSVALUECOPY,0
000453	9350 02F6	STS BY2_H,SYSVALUECOPY
000455	E15F	LDI SYSVALUECOPY,31
000456	9350 0315	STS FILLCOLOR,SYSVALUECOPY
000458	E050	LDI SYSVALUECOPY,0
000459	9350 0316	STS FILLCOLOR_H,SYSVALUECOPY
00045B	EE50	LDI SYSVALUECOPY,224
00045C	9350 02ED	STS BORDERCOLOR,SYSVALUECOPY
00045E	EF5F	LDI SYSVALUECOPY,255
00045F	9350 02EE	STS BORDERCOLOR_H,SYSVALUECOPY
000461	ECCD	LDI SYSSTRINGB,LOW(SYSSTRINGPARAM1)
000462	E0D2	LDI SYSSTRINGB_H,HIGH(SYSSTRINGPARAM1)
000463	E7E2	LDI SYSREADA,LOW(STRINGTABLE17<<1)
000464	E5F9	LDI SYSREADA_H,HIGH(STRINGTABLE17<<1)
000465	940E 2C8B	CALL SYSREADSTRING
000467	EC5D	LDI SYSVALUECOPY,LOW(SYSSTRINGPARAM1)
000468	9350 037B	STS SYSPRINTDATAHANDLER,SYSVALUECOPY
00046A	E052	LDI SYSVALUECOPY,HIGH(SYSSTRINGPARAM1)
00046B	9350 037C	STS SYSPRINTDATAHANDLER_H,SYSVALUECOPY
00046D	EE50	LDI SYSVALUECOPY,224
00046E	9350 0313	STS FCOLOR,SYSVALUECOPY
000470	EF5F	LDI SYSVALUECOPY,255
000471	9350 0314	STS FCOLOR_H,SYSVALUECOPY
000473	E052	LDI SYSVALUECOPY,2
000474	9350 035F	STS SIZE,SYSVALUECOPY
000476	940E 1739	CALL CREATEBUTTON
000478	E054	LDI SYSVALUECOPY,4
000479	9350 02EF	STS BX1,SYSVALUECOPY
00047B	E051	LDI SYSVALUECOPY,1
00047C	9350 02F0	STS BX1_H,SYSVALUECOPY
00047E	E85C	LDI SYSVALUECOPY,140
00047F	9350 02F3	STS BY1,SYSVALUECOPY
000481	E050	LDI SYSVALUECOPY,0
000482	9350 02F4	STS BY1_H,SYSVALUECOPY
000484	E25B	LDI SYSVALUECOPY,43
000485	9350 02F1	STS BX2,SYSVALUECOPY
000487	E051	LDI SYSVALUECOPY,1
000488	9350 02F2	STS BX2_H,SYSVALUECOPY
00048A	ED52	LDI SYSVALUECOPY,210
00048B	9350 02F5	STS BY2,SYSVALUECOPY
00048D	E050	LDI SYSVALUECOPY,0
00048E	9350 02F6	STS BY2_H,SYSVALUECOPY
000490	E15F	LDI SYSVALUECOPY,31
000491	9350 0315	STS FILLCOLOR,SYSVALUECOPY
000493	E050	LDI SYSVALUECOPY,0
000494	9350 0316	STS FILLCOLOR_H,SYSVALUECOPY
000496	EE50	LDI SYSVALUECOPY,224
000497	9350 02ED	STS BORDERCOLOR,SYSVALUECOPY
000499	EF5F	LDI SYSVALUECOPY,255
00049A	9350 02EE	STS BORDERCOLOR_H,SYSVALUECOPY
00049C	ECCD	LDI SYSSTRINGB,LOW(SYSSTRINGPARAM1)
00049D	E0D2	LDI SYSSTRINGB_H,HIGH(SYSSTRINGPARAM1)
00049E	E7E4	LDI SYSREADA,LOW(STRINGTABLE18<<1)
00049F	E5F9	LDI SYSREADA_H,HIGH(STRINGTABLE18<<1)
0004A0	940E 2C8B	CALL SYSREADSTRING
0004A2	EC5D	LDI SYSVALUECOPY,LOW(SYSSTRINGPARAM1)
0004A3	9350 037B	STS SYSPRINTDATAHANDLER,SYSVALUECOPY
0004A5	E052	LDI SYSVALUECOPY,HIGH(SYSSTRINGPARAM1)
0004A6	9350 037C	STS SYSPRINTDATAHANDLER_H,SYSVALUECOPY
0004A8	EE50	LDI SYSVALUECOPY,224
0004A9	9350 0313	STS FCOLOR,SYSVALUECOPY
0004AB	EF5F	LDI SYSVALUECOPY,255
0004AC	9350 0314	STS FCOLOR_H,SYSVALUECOPY
0004AE	E052	LDI SYSVALUECOPY,2
0004AF	9350 035F	STS SIZE,SYSVALUECOPY
0004B1	940E 1739	CALL CREATEBUTTON
0004B3	E154	LDI SYSVALUECOPY,20
0004B4	9350 02EF	STS BX1,SYSVALUECOPY
0004B6	E050	LDI SYSVALUECOPY,0
0004B7	9350 02F0	STS BX1_H,SYSVALUECOPY
0004B9	E05A	LDI SYSVALUECOPY,10
0004BA	9350 02F3	STS BY1,SYSVALUECOPY
0004BC	E050	LDI SYSVALUECOPY,0
0004BD	9350 02F4	STS BY1_H,SYSVALUECOPY
0004BF	9060 031D	LDS SYSTEMP1,GLCDDEVICEWIDTH
0004C1	E104	LDI SYSTEMP5,20
0004C2	1A60	SUB SYSTEMP1,SYSTEMP5
0004C3	9260 02F1	STS BX2,SYSTEMP1
0004C5	9060 031E	LDS SYSTEMP1,GLCDDEVICEWIDTH_H
0004C7	E000	LDI SYSTEMP5,0
0004C8	0A60	SBC SYSTEMP1,SYSTEMP5
0004C9	9260 02F2	STS BX2_H,SYSTEMP1
0004CB	E352	LDI SYSVALUECOPY,50
0004CC	9350 02F5	STS BY2,SYSVALUECOPY
0004CE	E050	LDI SYSVALUECOPY,0
0004CF	9350 02F6	STS BY2_H,SYSVALUECOPY
0004D1	E15F	LDI SYSVALUECOPY,31
0004D2	9350 0315	STS FILLCOLOR,SYSVALUECOPY
0004D4	E050	LDI SYSVALUECOPY,0
0004D5	9350 0316	STS FILLCOLOR_H,SYSVALUECOPY
0004D7	EE50	LDI SYSVALUECOPY,224
0004D8	9350 02ED	STS BORDERCOLOR,SYSVALUECOPY
0004DA	EF5F	LDI SYSVALUECOPY,255
0004DB	9350 02EE	STS BORDERCOLOR_H,SYSVALUECOPY
0004DD	ECCD	LDI SYSSTRINGB,LOW(SYSSTRINGPARAM1)
0004DE	E0D2	LDI SYSSTRINGB_H,HIGH(SYSSTRINGPARAM1)
0004DF	E7E6	LDI SYSREADA,LOW(STRINGTABLE19<<1)
0004E0	E5F9	LDI SYSREADA_H,HIGH(STRINGTABLE19<<1)
0004E1	940E 2C8B	CALL SYSREADSTRING
0004E3	EC5D	LDI SYSVALUECOPY,LOW(SYSSTRINGPARAM1)
0004E4	9350 037B	STS SYSPRINTDATAHANDLER,SYSVALUECOPY
0004E6	E052	LDI SYSVALUECOPY,HIGH(SYSSTRINGPARAM1)
0004E7	9350 037C	STS SYSPRINTDATAHANDLER_H,SYSVALUECOPY
0004E9	EE50	LDI SYSVALUECOPY,224
0004EA	9350 0313	STS FCOLOR,SYSVALUECOPY
0004EC	EF5F	LDI SYSVALUECOPY,255
0004ED	9350 0314	STS FCOLOR_H,SYSVALUECOPY
0004EF	E052	LDI SYSVALUECOPY,2
0004F0	9350 035F	STS SIZE,SYSVALUECOPY
0004F2	940E 1739	CALL CREATEBUTTON
0004F4	E0F1	LDI SYSWAITTEMPS,1
0004F5	940E 182C	CALL DELAY_S
0004F7	E154	LDI SYSVALUECOPY,20
0004F8	9350 02EF	STS BX1,SYSVALUECOPY
0004FA	E050	LDI SYSVALUECOPY,0
0004FB	9350 02F0	STS BX1_H,SYSVALUECOPY
0004FD	E05A	LDI SYSVALUECOPY,10
0004FE	9350 02F3	STS BY1,SYSVALUECOPY
000500	E050	LDI SYSVALUECOPY,0
000501	9350 02F4	STS BY1_H,SYSVALUECOPY
000503	9060 031D	LDS SYSTEMP1,GLCDDEVICEWIDTH
000505	E104	LDI SYSTEMP5,20
000506	1A60	SUB SYSTEMP1,SYSTEMP5
000507	9260 02F1	STS BX2,SYSTEMP1
000509	9060 031E	LDS SYSTEMP1,GLCDDEVICEWIDTH_H
00050B	E000	LDI SYSTEMP5,0
00050C	0A60	SBC SYSTEMP1,SYSTEMP5
00050D	9260 02F2	STS BX2_H,SYSTEMP1
00050F	E352	LDI SYSVALUECOPY,50
000510	9350 02F5	STS BY2,SYSVALUECOPY
000512	E050	LDI SYSVALUECOPY,0
000513	9350 02F6	STS BY2_H,SYSVALUECOPY
000515	E15F	LDI SYSVALUECOPY,31
000516	9350 0315	STS FILLCOLOR,SYSVALUECOPY
000518	E050	LDI SYSVALUECOPY,0
000519	9350 0316	STS FILLCOLOR_H,SYSVALUECOPY
00051B	EE50	LDI SYSVALUECOPY,224
00051C	9350 02ED	STS BORDERCOLOR,SYSVALUECOPY
00051E	EF5F	LDI SYSVALUECOPY,255
00051F	9350 02EE	STS BORDERCOLOR_H,SYSVALUECOPY
000521	ECCD	LDI SYSSTRINGB,LOW(SYSSTRINGPARAM1)
000522	E0D2	LDI SYSSTRINGB_H,HIGH(SYSSTRINGPARAM1)
000523	E8EC	LDI SYSREADA,LOW(STRINGTABLE20<<1)
000524	E5F9	LDI SYSREADA_H,HIGH(STRINGTABLE20<<1)
000525	940E 2C8B	CALL SYSREADSTRING
000527	EC5D	LDI SYSVALUECOPY,LOW(SYSSTRINGPARAM1)
000528	9350 037B	STS SYSPRINTDATAHANDLER,SYSVALUECOPY
00052A	E052	LDI SYSVALUECOPY,HIGH(SYSSTRINGPARAM1)
00052B	9350 037C	STS SYSPRINTDATAHANDLER_H,SYSVALUECOPY
00052D	EE50	LDI SYSVALUECOPY,224
00052E	9350 0313	STS FCOLOR,SYSVALUECOPY
000530	EF5F	LDI SYSVALUECOPY,255
000531	9350 0314	STS FCOLOR_H,SYSVALUECOPY
000533	E052	LDI SYSVALUECOPY,2
000534	9350 035F	STS SIZE,SYSVALUECOPY
000536	940E 1739	CALL CREATEBUTTON
000538	E050	LDI SYSVALUECOPY,0
000539	9350 0310	STS DIG,SYSVALUECOPY
00053B	E050	LDI SYSVALUECOPY,0
00053C	9350 02F7	STS CALC,SYSVALUECOPY
00053E	E0C0	LDI SYSSTRINGB,LOW(RESTEXT)
00053F	E0D2	LDI SYSSTRINGB_H,HIGH(RESTEXT)
000540	EAE0	LDI SYSREADA,LOW(STRINGTABLE21<<1)
000541	E5F9	LDI SYSREADA_H,HIGH(STRINGTABLE21<<1)
000542	940E 2C8B	CALL SYSREADSTRING
000544	E5C2	LDI SYSSTRINGB,LOW(TEMPTEXT)
000545	E0D2	LDI SYSSTRINGB_H,HIGH(TEMPTEXT)
000546	EAE2	LDI SYSREADA,LOW(STRINGTABLE22<<1)
000547	E5F9	LDI SYSREADA_H,HIGH(STRINGTABLE22<<1)
000548	940E 2C8B	CALL SYSREADSTRING
		SYSDOLOOP_S1
00054A	9964	SBIC PINE,4
00054B	940C 1464	JMP ENDIF1
00054D	940E 146B	CALL ADS7843_GETXY
00054F	9160 038C	LDS SYSWORDTEMPA,TP_X
000551	9170 038D	LDS SYSWORDTEMPA_H,TP_X_H
000553	E1C4	LDI SYSWORDTEMPB,20
000554	E0D0	LDI SYSWORDTEMPB_H,0
000555	940E 2A6D	CALL SYSCOMPLESSTHAN16
000557	9400	COM SYSBYTETEMPX
000558	2C60	MOV SYSTEMP1,SYSBYTETEMPX
000559	91C0 038C	LDS SYSWORDTEMPB,TP_X
00055B	91D0 038D	LDS SYSWORDTEMPB_H,TP_X_H
00055D	E466	LDI SYSWORDTEMPA,70
00055E	E070	LDI SYSWORDTEMPA_H,0
00055F	940E 2A6D	CALL SYSCOMPLESSTHAN16
000561	9400	COM SYSBYTETEMPX
000562	2CA0	MOV SYSTEMP2,SYSBYTETEMPX
000563	20A6	AND SYSTEMP2,SYSTEMP1
000564	2CEA	MOV SYSTEMP3,SYSTEMP2
000565	9160 038E	LDS SYSWORDTEMPA,TP_Y
000567	9170 038F	LDS SYSWORDTEMPA_H,TP_Y_H
000569	E3CC	LDI SYSWORDTEMPB,60
00056A	E0D0	LDI SYSWORDTEMPB_H,0
00056B	940E 2A6D	CALL SYSCOMPLESSTHAN16
00056D	9400	COM SYSBYTETEMPX
00056E	2C60	MOV SYSTEMP1,SYSBYTETEMPX
00056F	91C0 038E	LDS SYSWORDTEMPB,TP_Y
000571	91D0 038F	LDS SYSWORDTEMPB_H,TP_Y_H
000573	E56A	LDI SYSWORDTEMPA,90
000574	E070	LDI SYSWORDTEMPA_H,0
000575	940E 2A6D	CALL SYSCOMPLESSTHAN16
000577	9400	COM SYSBYTETEMPX
000578	2CA0	MOV SYSTEMP2,SYSBYTETEMPX
000579	20A6	AND SYSTEMP2,SYSTEMP1
00057A	2CFA	MOV SYSTEMP4,SYSTEMP2
00057B	20FE	AND SYSTEMP4,SYSTEMP3
00057C	2C6F	MOV SYSTEMP1,SYSTEMP4
00057D	FE60	SBRS SYSTEMP1,0
00057E	C0A6	RJMP ENDIF2
00057F	E154	LDI SYSVALUECOPY,20
000580	9350 0357	STS RX1,SYSVALUECOPY
000582	E050	LDI SYSVALUECOPY,0
000583	9350 0358	STS RX1_H,SYSVALUECOPY
000585	E35C	LDI SYSVALUECOPY,60
000586	9350 035B	STS RY1,SYSVALUECOPY
000588	E050	LDI SYSVALUECOPY,0
000589	9350 035C	STS RY1_H,SYSVALUECOPY
00058B	E456	LDI SYSVALUECOPY,70
00058C	9350 0359	STS RX2,SYSVALUECOPY
00058E	E050	LDI SYSVALUECOPY,0
00058F	9350 035A	STS RX2_H,SYSVALUECOPY
000591	E55A	LDI SYSVALUECOPY,90
000592	9350 035D	STS RY2,SYSVALUECOPY
000594	E050	LDI SYSVALUECOPY,0
000595	9350 035E	STS RY2_H,SYSVALUECOPY
000597	E050	LDI SYSVALUECOPY,0
000598	9350 0304	STS COLOR,SYSVALUECOPY
00059A	EF58	LDI SYSVALUECOPY,248
00059B	9350 0305	STS COLOR_H,SYSVALUECOPY
00059D	940E 266F	CALL ROUNDRECT31
00059F	E6D4	LDI SYSWAITTEMPMS,100
0005A0	E0E0	LDI SYSWAITTEMPMS_H,0
0005A1	940E 1820	CALL DELAY_MS
0005A3	E154	LDI SYSVALUECOPY,20
0005A4	9350 0357	STS RX1,SYSVALUECOPY
0005A6	E050	LDI SYSVALUECOPY,0
0005A7	9350 0358	STS RX1_H,SYSVALUECOPY
0005A9	E35C	LDI SYSVALUECOPY,60
0005AA	9350 035B	STS RY1,SYSVALUECOPY
0005AC	E050	LDI SYSVALUECOPY,0
0005AD	9350 035C	STS RY1_H,SYSVALUECOPY
0005AF	E456	LDI SYSVALUECOPY,70
0005B0	9350 0359	STS RX2,SYSVALUECOPY
0005B2	E050	LDI SYSVALUECOPY,0
0005B3	9350 035A	STS RX2_H,SYSVALUECOPY
0005B5	E55A	LDI SYSVALUECOPY,90
0005B6	9350 035D	STS RY2,SYSVALUECOPY
0005B8	E050	LDI SYSVALUECOPY,0
0005B9	9350 035E	STS RY2_H,SYSVALUECOPY
0005BB	EE50	LDI SYSVALUECOPY,224
0005BC	9350 0304	STS COLOR,SYSVALUECOPY
0005BE	EF5F	LDI SYSVALUECOPY,255
0005BF	9350 0305	STS COLOR_H,SYSVALUECOPY
0005C1	940E 266F	CALL ROUNDRECT31
0005C3	E5C2	LDI SYSSTRINGB,LOW(TEMPTEXT)
0005C4	E0D2	LDI SYSSTRINGB_H,HIGH(TEMPTEXT)
0005C5	2799	CLR SYSSTRINGLENGTH
0005C6	9159	LD SYSVALUECOPY, Y+
0005C7	E5A2	LDI SYSSTRINGA,LOW(TEMPTEXT)
0005C8	E0B2	LDI SYSSTRINGA_H,HIGH(TEMPTEXT)
0005C9	940E 2AB3	CALL SYSCOPYSTRINGPART
0005CB	E5E4	LDI SYSREADA,LOW(STRINGTABLE2<<1)
0005CC	E5F9	LDI SYSREADA_H,HIGH(STRINGTABLE2<<1)
0005CD	940E 2C92	CALL SYSREADSTRINGPART
0005CF	E5A2	LDI SYSSTRINGA,LOW(TEMPTEXT)
0005D0	E0B2	LDI SYSSTRINGA_H,HIGH(TEMPTEXT)
0005D1	939C	ST X, SYSSTRINGLENGTH
0005D2	9060 0310	LDS SYSTEMP1,DIG
0005D4	9463	INC SYSTEMP1
0005D5	9260 0310	STS DIG,SYSTEMP1
0005D7	E552	LDI SYSVALUECOPY,LOW(TEMPTEXT)
0005D8	9350 0384	STS SYSSYSINSTRINGHANDLER,SYSVALUECOPY
0005DA	E052	LDI SYSVALUECOPY,HIGH(TEMPTEXT)
0005DB	9350 0385	STS SYSSYSINSTRINGHANDLER_H,SYSVALUECOPY
0005DD	E154	LDI SYSVALUECOPY,20
0005DE	9350 036B	STS SYSCHARCOUNT,SYSVALUECOPY
0005E0	940E 2610	CALL FN_RIGHT
0005E2	E5C2	LDI SYSSTRINGB,LOW(TEMPTEXT)
0005E3	E0D2	LDI SYSSTRINGB_H,HIGH(TEMPTEXT)
0005E4	E2A9	LDI SYSSTRINGA,LOW(RIGHT)
0005E5	E0B2	LDI SYSSTRINGA_H,HIGH(RIGHT)
0005E6	940E 2AB0	CALL SYSCOPYSTRING
0005E8	E156	LDI SYSVALUECOPY,22
0005E9	9350 033A	STS LINEX1,SYSVALUECOPY
0005EB	E050	LDI SYSVALUECOPY,0
0005EC	9350 033B	STS LINEX1_H,SYSVALUECOPY
0005EE	E05C	LDI SYSVALUECOPY,12
0005EF	9350 033E	STS LINEY1,SYSVALUECOPY
0005F1	E050	LDI SYSVALUECOPY,0
0005F2	9350 033F	STS LINEY1_H,SYSVALUECOPY
0005F4	E259	LDI SYSVALUECOPY,41
0005F5	9350 033C	STS LINEX2,SYSVALUECOPY
0005F7	E051	LDI SYSVALUECOPY,1
0005F8	9350 033D	STS LINEX2_H,SYSVALUECOPY
0005FA	E350	LDI SYSVALUECOPY,48
0005FB	9350 0340	STS LINEY2,SYSVALUECOPY
0005FD	E050	LDI SYSVALUECOPY,0
0005FE	9350 0341	STS LINEY2_H,SYSVALUECOPY
000600	E15F	LDI SYSVALUECOPY,31
000601	9350 032A	STS LINECOLOUR,SYSVALUECOPY
000603	E050	LDI SYSVALUECOPY,0
000604	9350 032B	STS LINECOLOUR_H,SYSVALUECOPY
000606	940E 1832	CALL FILLEDBOX_SSD1289
000608	E25A	LDI SYSVALUECOPY,42
000609	9350 0346	STS PRINTLOCX,SYSVALUECOPY
00060B	E050	LDI SYSVALUECOPY,0
00060C	9350 0347	STS PRINTLOCX_H,SYSVALUECOPY
00060E	E154	LDI SYSVALUECOPY,20
00060F	9350 0348	STS PRINTLOCY,SYSVALUECOPY
000611	E050	LDI SYSVALUECOPY,0
000612	9350 0349	STS PRINTLOCY_H,SYSVALUECOPY
000614	E552	LDI SYSVALUECOPY,LOW(TEMPTEXT)
000615	9350 037B	STS SYSPRINTDATAHANDLER,SYSVALUECOPY
000617	E052	LDI SYSVALUECOPY,HIGH(TEMPTEXT)
000618	9350 037C	STS SYSPRINTDATAHANDLER_H,SYSVALUECOPY
00061A	EE50	LDI SYSVALUECOPY,224
00061B	9350 0322	STS GLCDFOREGROUND,SYSVALUECOPY
00061D	EF5F	LDI SYSVALUECOPY,255
00061E	9350 0323	STS GLCDFOREGROUND_H,SYSVALUECOPY
000620	E052	LDI SYSVALUECOPY,2
000621	9350 035F	STS SIZE,SYSVALUECOPY
000623	940E 257A	CALL PRINT_SSD1289513
		ENDIF2
000625	9160 038C	LDS SYSWORDTEMPA,TP_X
000627	9170 038D	LDS SYSWORDTEMPA_H,TP_X_H
000629	E5C0	LDI SYSWORDTEMPB,80
00062A	E0D0	LDI SYSWORDTEMPB_H,0
00062B	940E 2A6D	CALL SYSCOMPLESSTHAN16
00062D	9400	COM SYSBYTETEMPX
00062E	2C60	MOV SYSTEMP1,SYSBYTETEMPX
00062F	91C0 038C	LDS SYSWORDTEMPB,TP_X
000631	91D0 038D	LDS SYSWORDTEMPB_H,TP_X_H
000633	E862	LDI SYSWORDTEMPA,130
000634	E070	LDI SYSWORDTEMPA_H,0
000635	940E 2A6D	CALL SYSCOMPLESSTHAN16
000637	9400	COM SYSBYTETEMPX
000638	2CA0	MOV SYSTEMP2,SYSBYTETEMPX
000639	20A6	AND SYSTEMP2,SYSTEMP1
00063A	2CEA	MOV SYSTEMP3,SYSTEMP2
00063B	9160 038E	LDS SYSWORDTEMPA,TP_Y
00063D	9170 038F	LDS SYSWORDTEMPA_H,TP_Y_H
00063F	E3CC	LDI SYSWORDTEMPB,60
000640	E0D0	LDI SYSWORDTEMPB_H,0
000641	940E 2A6D	CALL SYSCOMPLESSTHAN16
000643	9400	COM SYSBYTETEMPX
000644	2C60	MOV SYSTEMP1,SYSBYTETEMPX
000645	91C0 038E	LDS SYSWORDTEMPB,TP_Y
000647	91D0 038F	LDS SYSWORDTEMPB_H,TP_Y_H
000649	E56A	LDI SYSWORDTEMPA,90
00064A	E070	LDI SYSWORDTEMPA_H,0
00064B	940E 2A6D	CALL SYSCOMPLESSTHAN16
00064D	9400	COM SYSBYTETEMPX
00064E	2CA0	MOV SYSTEMP2,SYSBYTETEMPX
00064F	20A6	AND SYSTEMP2,SYSTEMP1
000650	2CFA	MOV SYSTEMP4,SYSTEMP2
000651	20FE	AND SYSTEMP4,SYSTEMP3
000652	2C6F	MOV SYSTEMP1,SYSTEMP4
000653	FE60	SBRS SYSTEMP1,0
000654	C0A6	RJMP ENDIF3
000655	E550	LDI SYSVALUECOPY,80
000656	9350 0357	STS RX1,SYSVALUECOPY
000658	E050	LDI SYSVALUECOPY,0
000659	9350 0358	STS RX1_H,SYSVALUECOPY
00065B	E35C	LDI SYSVALUECOPY,60
00065C	9350 035B	STS RY1,SYSVALUECOPY
00065E	E050	LDI SYSVALUECOPY,0
00065F	9350 035C	STS RY1_H,SYSVALUECOPY
000661	E852	LDI SYSVALUECOPY,130
000662	9350 0359	STS RX2,SYSVALUECOPY
000664	E050	LDI SYSVALUECOPY,0
000665	9350 035A	STS RX2_H,SYSVALUECOPY
000667	E55A	LDI SYSVALUECOPY,90
000668	9350 035D	STS RY2,SYSVALUECOPY
00066A	E050	LDI SYSVALUECOPY,0
00066B	9350 035E	STS RY2_H,SYSVALUECOPY
00066D	E050	LDI SYSVALUECOPY,0
00066E	9350 0304	STS COLOR,SYSVALUECOPY
000670	EF58	LDI SYSVALUECOPY,248
000671	9350 0305	STS COLOR_H,SYSVALUECOPY
000673	940E 266F	CALL ROUNDRECT31
000675	E6D4	LDI SYSWAITTEMPMS,100
000676	E0E0	LDI SYSWAITTEMPMS_H,0
000677	940E 1820	CALL DELAY_MS
000679	E550	LDI SYSVALUECOPY,80
00067A	9350 0357	STS RX1,SYSVALUECOPY
00067C	E050	LDI SYSVALUECOPY,0
00067D	9350 0358	STS RX1_H,SYSVALUECOPY
00067F	E35C	LDI SYSVALUECOPY,60
000680	9350 035B	STS RY1,SYSVALUECOPY
000682	E050	LDI SYSVALUECOPY,0
000683	9350 035C	STS RY1_H,SYSVALUECOPY
000685	E852	LDI SYSVALUECOPY,130
000686	9350 0359	STS RX2,SYSVALUECOPY
000688	E050	LDI SYSVALUECOPY,0
000689	9350 035A	STS RX2_H,SYSVALUECOPY
00068B	E55A	LDI SYSVALUECOPY,90
00068C	9350 035D	STS RY2,SYSVALUECOPY
00068E	E050	LDI SYSVALUECOPY,0
00068F	9350 035E	STS RY2_H,SYSVALUECOPY
000691	EE50	LDI SYSVALUECOPY,224
000692	9350 0304	STS COLOR,SYSVALUECOPY
000694	EF5F	LDI SYSVALUECOPY,255
000695	9350 0305	STS COLOR_H,SYSVALUECOPY
000697	940E 266F	CALL ROUNDRECT31
000699	E5C2	LDI SYSSTRINGB,LOW(TEMPTEXT)
00069A	E0D2	LDI SYSSTRINGB_H,HIGH(TEMPTEXT)
00069B	2799	CLR SYSSTRINGLENGTH
00069C	9159	LD SYSVALUECOPY, Y+
00069D	E5A2	LDI SYSSTRINGA,LOW(TEMPTEXT)
00069E	E0B2	LDI SYSSTRINGA_H,HIGH(TEMPTEXT)
00069F	940E 2AB3	CALL SYSCOPYSTRINGPART
0006A1	E5E6	LDI SYSREADA,LOW(STRINGTABLE3<<1)
0006A2	E5F9	LDI SYSREADA_H,HIGH(STRINGTABLE3<<1)
0006A3	940E 2C92	CALL SYSREADSTRINGPART
0006A5	E5A2	LDI SYSSTRINGA,LOW(TEMPTEXT)
0006A6	E0B2	LDI SYSSTRINGA_H,HIGH(TEMPTEXT)
0006A7	939C	ST X, SYSSTRINGLENGTH
0006A8	9060 0310	LDS SYSTEMP1,DIG
0006AA	9463	INC SYSTEMP1
0006AB	9260 0310	STS DIG,SYSTEMP1
0006AD	E552	LDI SYSVALUECOPY,LOW(TEMPTEXT)
0006AE	9350 0384	STS SYSSYSINSTRINGHANDLER,SYSVALUECOPY
0006B0	E052	LDI SYSVALUECOPY,HIGH(TEMPTEXT)
0006B1	9350 0385	STS SYSSYSINSTRINGHANDLER_H,SYSVALUECOPY
0006B3	E154	LDI SYSVALUECOPY,20
0006B4	9350 036B	STS SYSCHARCOUNT,SYSVALUECOPY
0006B6	940E 2610	CALL FN_RIGHT
0006B8	E5C2	LDI SYSSTRINGB,LOW(TEMPTEXT)
0006B9	E0D2	LDI SYSSTRINGB_H,HIGH(TEMPTEXT)
0006BA	E2A9	LDI SYSSTRINGA,LOW(RIGHT)
0006BB	E0B2	LDI SYSSTRINGA_H,HIGH(RIGHT)
0006BC	940E 2AB0	CALL SYSCOPYSTRING
0006BE	E156	LDI SYSVALUECOPY,22
0006BF	9350 033A	STS LINEX1,SYSVALUECOPY
0006C1	E050	LDI SYSVALUECOPY,0
0006C2	9350 033B	STS LINEX1_H,SYSVALUECOPY
0006C4	E05C	LDI SYSVALUECOPY,12
0006C5	9350 033E	STS LINEY1,SYSVALUECOPY
0006C7	E050	LDI SYSVALUECOPY,0
0006C8	9350 033F	STS LINEY1_H,SYSVALUECOPY
0006CA	E259	LDI SYSVALUECOPY,41
0006CB	9350 033C	STS LINEX2,SYSVALUECOPY
0006CD	E051	LDI SYSVALUECOPY,1
0006CE	9350 033D	STS LINEX2_H,SYSVALUECOPY
0006D0	E350	LDI SYSVALUECOPY,48
0006D1	9350 0340	STS LINEY2,SYSVALUECOPY
0006D3	E050	LDI SYSVALUECOPY,0
0006D4	9350 0341	STS LINEY2_H,SYSVALUECOPY
0006D6	E15F	LDI SYSVALUECOPY,31
0006D7	9350 032A	STS LINECOLOUR,SYSVALUECOPY
0006D9	E050	LDI SYSVALUECOPY,0
0006DA	9350 032B	STS LINECOLOUR_H,SYSVALUECOPY
0006DC	940E 1832	CALL FILLEDBOX_SSD1289
0006DE	E25A	LDI SYSVALUECOPY,42
0006DF	9350 0346	STS PRINTLOCX,SYSVALUECOPY
0006E1	E050	LDI SYSVALUECOPY,0
0006E2	9350 0347	STS PRINTLOCX_H,SYSVALUECOPY
0006E4	E154	LDI SYSVALUECOPY,20
0006E5	9350 0348	STS PRINTLOCY,SYSVALUECOPY
0006E7	E050	LDI SYSVALUECOPY,0
0006E8	9350 0349	STS PRINTLOCY_H,SYSVALUECOPY
0006EA	E552	LDI SYSVALUECOPY,LOW(TEMPTEXT)
0006EB	9350 037B	STS SYSPRINTDATAHANDLER,SYSVALUECOPY
0006ED	E052	LDI SYSVALUECOPY,HIGH(TEMPTEXT)
0006EE	9350 037C	STS SYSPRINTDATAHANDLER_H,SYSVALUECOPY
0006F0	EE50	LDI SYSVALUECOPY,224
0006F1	9350 0322	STS GLCDFOREGROUND,SYSVALUECOPY
0006F3	EF5F	LDI SYSVALUECOPY,255
0006F4	9350 0323	STS GLCDFOREGROUND_H,SYSVALUECOPY
0006F6	E052	LDI SYSVALUECOPY,2
0006F7	9350 035F	STS SIZE,SYSVALUECOPY
0006F9	940E 257A	CALL PRINT_SSD1289513
		ENDIF3
0006FB	9160 038C	LDS SYSWORDTEMPA,TP_X
0006FD	9170 038D	LDS SYSWORDTEMPA_H,TP_X_H
0006FF	E8CC	LDI SYSWORDTEMPB,140
000700	E0D0	LDI SYSWORDTEMPB_H,0
000701	940E 2A6D	CALL SYSCOMPLESSTHAN16
000703	9400	COM SYSBYTETEMPX
000704	2C60	MOV SYSTEMP1,SYSBYTETEMPX
000705	91C0 038C	LDS SYSWORDTEMPB,TP_X
000707	91D0 038D	LDS SYSWORDTEMPB_H,TP_X_H
000709	EB6E	LDI SYSWORDTEMPA,190
00070A	E070	LDI SYSWORDTEMPA_H,0
00070B	940E 2A6D	CALL SYSCOMPLESSTHAN16
00070D	9400	COM SYSBYTETEMPX
00070E	2CA0	MOV SYSTEMP2,SYSBYTETEMPX
00070F	20A6	AND SYSTEMP2,SYSTEMP1
000710	2CEA	MOV SYSTEMP3,SYSTEMP2
000711	9160 038E	LDS SYSWORDTEMPA,TP_Y
000713	9170 038F	LDS SYSWORDTEMPA_H,TP_Y_H
000715	E3CC	LDI SYSWORDTEMPB,60
000716	E0D0	LDI SYSWORDTEMPB_H,0
000717	940E 2A6D	CALL SYSCOMPLESSTHAN16
000719	9400	COM SYSBYTETEMPX
00071A	2C60	MOV SYSTEMP1,SYSBYTETEMPX
00071B	91C0 038E	LDS SYSWORDTEMPB,TP_Y
00071D	91D0 038F	LDS SYSWORDTEMPB_H,TP_Y_H
00071F	E56A	LDI SYSWORDTEMPA,90
000720	E070	LDI SYSWORDTEMPA_H,0
000721	940E 2A6D	CALL SYSCOMPLESSTHAN16
000723	9400	COM SYSBYTETEMPX
000724	2CA0	MOV SYSTEMP2,SYSBYTETEMPX
000725	20A6	AND SYSTEMP2,SYSTEMP1
000726	2CFA	MOV SYSTEMP4,SYSTEMP2
000727	20FE	AND SYSTEMP4,SYSTEMP3
000728	2C6F	MOV SYSTEMP1,SYSTEMP4
000729	FE60	SBRS SYSTEMP1,0
00072A	C0A6	RJMP ENDIF4
00072B	E85C	LDI SYSVALUECOPY,140
00072C	9350 0357	STS RX1,SYSVALUECOPY
00072E	E050	LDI SYSVALUECOPY,0
00072F	9350 0358	STS RX1_H,SYSVALUECOPY
000731	E35C	LDI SYSVALUECOPY,60
000732	9350 035B	STS RY1,SYSVALUECOPY
000734	E050	LDI SYSVALUECOPY,0
000735	9350 035C	STS RY1_H,SYSVALUECOPY
000737	EB5E	LDI SYSVALUECOPY,190
000738	9350 0359	STS RX2,SYSVALUECOPY
00073A	E050	LDI SYSVALUECOPY,0
00073B	9350 035A	STS RX2_H,SYSVALUECOPY
00073D	E55A	LDI SYSVALUECOPY,90
00073E	9350 035D	STS RY2,SYSVALUECOPY
000740	E050	LDI SYSVALUECOPY,0
000741	9350 035E	STS RY2_H,SYSVALUECOPY
000743	E050	LDI SYSVALUECOPY,0
000744	9350 0304	STS COLOR,SYSVALUECOPY
000746	EF58	LDI SYSVALUECOPY,248
000747	9350 0305	STS COLOR_H,SYSVALUECOPY
000749	940E 266F	CALL ROUNDRECT31
00074B	E6D4	LDI SYSWAITTEMPMS,100
00074C	E0E0	LDI SYSWAITTEMPMS_H,0
00074D	940E 1820	CALL DELAY_MS
00074F	E85C	LDI SYSVALUECOPY,140
000750	9350 0357	STS RX1,SYSVALUECOPY
000752	E050	LDI SYSVALUECOPY,0
000753	9350 0358	STS RX1_H,SYSVALUECOPY
000755	E35C	LDI SYSVALUECOPY,60
000756	9350 035B	STS RY1,SYSVALUECOPY
000758	E050	LDI SYSVALUECOPY,0
000759	9350 035C	STS RY1_H,SYSVALUECOPY
00075B	EB5E	LDI SYSVALUECOPY,190
00075C	9350 0359	STS RX2,SYSVALUECOPY
00075E	E050	LDI SYSVALUECOPY,0
00075F	9350 035A	STS RX2_H,SYSVALUECOPY
000761	E55A	LDI SYSVALUECOPY,90
000762	9350 035D	STS RY2,SYSVALUECOPY
000764	E050	LDI SYSVALUECOPY,0
000765	9350 035E	STS RY2_H,SYSVALUECOPY
000767	EE50	LDI SYSVALUECOPY,224
000768	9350 0304	STS COLOR,SYSVALUECOPY
00076A	EF5F	LDI SYSVALUECOPY,255
00076B	9350 0305	STS COLOR_H,SYSVALUECOPY
00076D	940E 266F	CALL ROUNDRECT31
00076F	E5C2	LDI SYSSTRINGB,LOW(TEMPTEXT)
000770	E0D2	LDI SYSSTRINGB_H,HIGH(TEMPTEXT)
000771	2799	CLR SYSSTRINGLENGTH
000772	9159	LD SYSVALUECOPY, Y+
000773	E5A2	LDI SYSSTRINGA,LOW(TEMPTEXT)
000774	E0B2	LDI SYSSTRINGA_H,HIGH(TEMPTEXT)
000775	940E 2AB3	CALL SYSCOPYSTRINGPART
000777	E5E8	LDI SYSREADA,LOW(STRINGTABLE4<<1)
000778	E5F9	LDI SYSREADA_H,HIGH(STRINGTABLE4<<1)
000779	940E 2C92	CALL SYSREADSTRINGPART
00077B	E5A2	LDI SYSSTRINGA,LOW(TEMPTEXT)
00077C	E0B2	LDI SYSSTRINGA_H,HIGH(TEMPTEXT)
00077D	939C	ST X, SYSSTRINGLENGTH
00077E	9060 0310	LDS SYSTEMP1,DIG
000780	9463	INC SYSTEMP1
000781	9260 0310	STS DIG,SYSTEMP1
000783	E552	LDI SYSVALUECOPY,LOW(TEMPTEXT)
000784	9350 0384	STS SYSSYSINSTRINGHANDLER,SYSVALUECOPY
000786	E052	LDI SYSVALUECOPY,HIGH(TEMPTEXT)
000787	9350 0385	STS SYSSYSINSTRINGHANDLER_H,SYSVALUECOPY
000789	E154	LDI SYSVALUECOPY,20
00078A	9350 036B	STS SYSCHARCOUNT,SYSVALUECOPY
00078C	940E 2610	CALL FN_RIGHT
00078E	E5C2	LDI SYSSTRINGB,LOW(TEMPTEXT)
00078F	E0D2	LDI SYSSTRINGB_H,HIGH(TEMPTEXT)
000790	E2A9	LDI SYSSTRINGA,LOW(RIGHT)
000791	E0B2	LDI SYSSTRINGA_H,HIGH(RIGHT)
000792	940E 2AB0	CALL SYSCOPYSTRING
000794	E156	LDI SYSVALUECOPY,22
000795	9350 033A	STS LINEX1,SYSVALUECOPY
000797	E050	LDI SYSVALUECOPY,0
000798	9350 033B	STS LINEX1_H,SYSVALUECOPY
00079A	E05C	LDI SYSVALUECOPY,12
00079B	9350 033E	STS LINEY1,SYSVALUECOPY
00079D	E050	LDI SYSVALUECOPY,0
00079E	9350 033F	STS LINEY1_H,SYSVALUECOPY
0007A0	E259	LDI SYSVALUECOPY,41
0007A1	9350 033C	STS LINEX2,SYSVALUECOPY
0007A3	E051	LDI SYSVALUECOPY,1
0007A4	9350 033D	STS LINEX2_H,SYSVALUECOPY
0007A6	E350	LDI SYSVALUECOPY,48
0007A7	9350 0340	STS LINEY2,SYSVALUECOPY
0007A9	E050	LDI SYSVALUECOPY,0
0007AA	9350 0341	STS LINEY2_H,SYSVALUECOPY
0007AC	E15F	LDI SYSVALUECOPY,31
0007AD	9350 032A	STS LINECOLOUR,SYSVALUECOPY
0007AF	E050	LDI SYSVALUECOPY,0
0007B0	9350 032B	STS LINECOLOUR_H,SYSVALUECOPY
0007B2	940E 1832	CALL FILLEDBOX_SSD1289
0007B4	E25A	LDI SYSVALUECOPY,42
0007B5	9350 0346	STS PRINTLOCX,SYSVALUECOPY
0007B7	E050	LDI SYSVALUECOPY,0
0007B8	9350 0347	STS PRINTLOCX_H,SYSVALUECOPY
0007BA	E154	LDI SYSVALUECOPY,20
0007BB	9350 0348	STS PRINTLOCY,SYSVALUECOPY
0007BD	E050	LDI SYSVALUECOPY,0
0007BE	9350 0349	STS PRINTLOCY_H,SYSVALUECOPY
0007C0	E552	LDI SYSVALUECOPY,LOW(TEMPTEXT)
0007C1	9350 037B	STS SYSPRINTDATAHANDLER,SYSVALUECOPY
0007C3	E052	LDI SYSVALUECOPY,HIGH(TEMPTEXT)
0007C4	9350 037C	STS SYSPRINTDATAHANDLER_H,SYSVALUECOPY
0007C6	EE50	LDI SYSVALUECOPY,224
0007C7	9350 0322	STS GLCDFOREGROUND,SYSVALUECOPY
0007C9	EF5F	LDI SYSVALUECOPY,255
0007CA	9350 0323	STS GLCDFOREGROUND_H,SYSVALUECOPY
0007CC	E052	LDI SYSVALUECOPY,2
0007CD	9350 035F	STS SIZE,SYSVALUECOPY
0007CF	940E 257A	CALL PRINT_SSD1289513
		ENDIF4
0007D1	9160 038C	LDS SYSWORDTEMPA,TP_X
0007D3	9170 038D	LDS SYSWORDTEMPA_H,TP_X_H
0007D5	E1C4	LDI SYSWORDTEMPB,20
0007D6	E0D0	LDI SYSWORDTEMPB_H,0
0007D7	940E 2A6D	CALL SYSCOMPLESSTHAN16
0007D9	9400	COM SYSBYTETEMPX
0007DA	2C60	MOV SYSTEMP1,SYSBYTETEMPX
0007DB	91C0 038C	LDS SYSWORDTEMPB,TP_X
0007DD	91D0 038D	LDS SYSWORDTEMPB_H,TP_X_H
0007DF	E466	LDI SYSWORDTEMPA,70
0007E0	E070	LDI SYSWORDTEMPA_H,0
0007E1	940E 2A6D	CALL SYSCOMPLESSTHAN16
0007E3	9400	COM SYSBYTETEMPX
0007E4	2CA0	MOV SYSTEMP2,SYSBYTETEMPX
0007E5	20A6	AND SYSTEMP2,SYSTEMP1
0007E6	2CEA	MOV SYSTEMP3,SYSTEMP2
0007E7	9160 038E	LDS SYSWORDTEMPA,TP_Y
0007E9	9170 038F	LDS SYSWORDTEMPA_H,TP_Y_H
0007EB	E6C4	LDI SYSWORDTEMPB,100
0007EC	E0D0	LDI SYSWORDTEMPB_H,0
0007ED	940E 2A6D	CALL SYSCOMPLESSTHAN16
0007EF	9400	COM SYSBYTETEMPX
0007F0	2C60	MOV SYSTEMP1,SYSBYTETEMPX
0007F1	91C0 038E	LDS SYSWORDTEMPB,TP_Y
0007F3	91D0 038F	LDS SYSWORDTEMPB_H,TP_Y_H
0007F5	E862	LDI SYSWORDTEMPA,130
0007F6	E070	LDI SYSWORDTEMPA_H,0
0007F7	940E 2A6D	CALL SYSCOMPLESSTHAN16
0007F9	9400	COM SYSBYTETEMPX
0007FA	2CA0	MOV SYSTEMP2,SYSBYTETEMPX
0007FB	20A6	AND SYSTEMP2,SYSTEMP1
0007FC	2CFA	MOV SYSTEMP4,SYSTEMP2
0007FD	20FE	AND SYSTEMP4,SYSTEMP3
0007FE	2C6F	MOV SYSTEMP1,SYSTEMP4
0007FF	FE60	SBRS SYSTEMP1,0
000800	C0A6	RJMP ENDIF5
000801	E154	LDI SYSVALUECOPY,20
000802	9350 0357	STS RX1,SYSVALUECOPY
000804	E050	LDI SYSVALUECOPY,0
000805	9350 0358	STS RX1_H,SYSVALUECOPY
000807	E654	LDI SYSVALUECOPY,100
000808	9350 035B	STS RY1,SYSVALUECOPY
00080A	E050	LDI SYSVALUECOPY,0
00080B	9350 035C	STS RY1_H,SYSVALUECOPY
00080D	E456	LDI SYSVALUECOPY,70
00080E	9350 0359	STS RX2,SYSVALUECOPY
000810	E050	LDI SYSVALUECOPY,0
000811	9350 035A	STS RX2_H,SYSVALUECOPY
000813	E852	LDI SYSVALUECOPY,130
000814	9350 035D	STS RY2,SYSVALUECOPY
000816	E050	LDI SYSVALUECOPY,0
000817	9350 035E	STS RY2_H,SYSVALUECOPY
000819	E050	LDI SYSVALUECOPY,0
00081A	9350 0304	STS COLOR,SYSVALUECOPY
00081C	EF58	LDI SYSVALUECOPY,248
00081D	9350 0305	STS COLOR_H,SYSVALUECOPY
00081F	940E 266F	CALL ROUNDRECT31
000821	E6D4	LDI SYSWAITTEMPMS,100
000822	E0E0	LDI SYSWAITTEMPMS_H,0
000823	940E 1820	CALL DELAY_MS
000825	E154	LDI SYSVALUECOPY,20
000826	9350 0357	STS RX1,SYSVALUECOPY
000828	E050	LDI SYSVALUECOPY,0
000829	9350 0358	STS RX1_H,SYSVALUECOPY
00082B	E654	LDI SYSVALUECOPY,100
00082C	9350 035B	STS RY1,SYSVALUECOPY
00082E	E050	LDI SYSVALUECOPY,0
00082F	9350 035C	STS RY1_H,SYSVALUECOPY
000831	E456	LDI SYSVALUECOPY,70
000832	9350 0359	STS RX2,SYSVALUECOPY
000834	E050	LDI SYSVALUECOPY,0
000835	9350 035A	STS RX2_H,SYSVALUECOPY
000837	E852	LDI SYSVALUECOPY,130
000838	9350 035D	STS RY2,SYSVALUECOPY
00083A	E050	LDI SYSVALUECOPY,0
00083B	9350 035E	STS RY2_H,SYSVALUECOPY
00083D	EE50	LDI SYSVALUECOPY,224
00083E	9350 0304	STS COLOR,SYSVALUECOPY
000840	EF5F	LDI SYSVALUECOPY,255
000841	9350 0305	STS COLOR_H,SYSVALUECOPY
000843	940E 266F	CALL ROUNDRECT31
000845	E5C2	LDI SYSSTRINGB,LOW(TEMPTEXT)
000846	E0D2	LDI SYSSTRINGB_H,HIGH(TEMPTEXT)
000847	2799	CLR SYSSTRINGLENGTH
000848	9159	LD SYSVALUECOPY, Y+
000849	E5A2	LDI SYSSTRINGA,LOW(TEMPTEXT)
00084A	E0B2	LDI SYSSTRINGA_H,HIGH(TEMPTEXT)
00084B	940E 2AB3	CALL SYSCOPYSTRINGPART
00084D	E5EC	LDI SYSREADA,LOW(STRINGTABLE6<<1)
00084E	E5F9	LDI SYSREADA_H,HIGH(STRINGTABLE6<<1)
00084F	940E 2C92	CALL SYSREADSTRINGPART
000851	E5A2	LDI SYSSTRINGA,LOW(TEMPTEXT)
000852	E0B2	LDI SYSSTRINGA_H,HIGH(TEMPTEXT)
000853	939C	ST X, SYSSTRINGLENGTH
000854	9060 0310	LDS SYSTEMP1,DIG
000856	9463	INC SYSTEMP1
000857	9260 0310	STS DIG,SYSTEMP1
000859	E552	LDI SYSVALUECOPY,LOW(TEMPTEXT)
00085A	9350 0384	STS SYSSYSINSTRINGHANDLER,SYSVALUECOPY
00085C	E052	LDI SYSVALUECOPY,HIGH(TEMPTEXT)
00085D	9350 0385	STS SYSSYSINSTRINGHANDLER_H,SYSVALUECOPY
00085F	E154	LDI SYSVALUECOPY,20
000860	9350 036B	STS SYSCHARCOUNT,SYSVALUECOPY
000862	940E 2610	CALL FN_RIGHT
000864	E5C2	LDI SYSSTRINGB,LOW(TEMPTEXT)
000865	E0D2	LDI SYSSTRINGB_H,HIGH(TEMPTEXT)
000866	E2A9	LDI SYSSTRINGA,LOW(RIGHT)
000867	E0B2	LDI SYSSTRINGA_H,HIGH(RIGHT)
000868	940E 2AB0	CALL SYSCOPYSTRING
00086A	E156	LDI SYSVALUECOPY,22
00086B	9350 033A	STS LINEX1,SYSVALUECOPY
00086D	E050	LDI SYSVALUECOPY,0
00086E	9350 033B	STS LINEX1_H,SYSVALUECOPY
000870	E05C	LDI SYSVALUECOPY,12
000871	9350 033E	STS LINEY1,SYSVALUECOPY
000873	E050	LDI SYSVALUECOPY,0
000874	9350 033F	STS LINEY1_H,SYSVALUECOPY
000876	E259	LDI SYSVALUECOPY,41
000877	9350 033C	STS LINEX2,SYSVALUECOPY
000879	E051	LDI SYSVALUECOPY,1
00087A	9350 033D	STS LINEX2_H,SYSVALUECOPY
00087C	E350	LDI SYSVALUECOPY,48
00087D	9350 0340	STS LINEY2,SYSVALUECOPY
00087F	E050	LDI SYSVALUECOPY,0
000880	9350 0341	STS LINEY2_H,SYSVALUECOPY
000882	E15F	LDI SYSVALUECOPY,31
000883	9350 032A	STS LINECOLOUR,SYSVALUECOPY
000885	E050	LDI SYSVALUECOPY,0
000886	9350 032B	STS LINECOLOUR_H,SYSVALUECOPY
000888	940E 1832	CALL FILLEDBOX_SSD1289
00088A	E25A	LDI SYSVALUECOPY,42
00088B	9350 0346	STS PRINTLOCX,SYSVALUECOPY
00088D	E050	LDI SYSVALUECOPY,0
00088E	9350 0347	STS PRINTLOCX_H,SYSVALUECOPY
000890	E154	LDI SYSVALUECOPY,20
000891	9350 0348	STS PRINTLOCY,SYSVALUECOPY
000893	E050	LDI SYSVALUECOPY,0
000894	9350 0349	STS PRINTLOCY_H,SYSVALUECOPY
000896	E552	LDI SYSVALUECOPY,LOW(TEMPTEXT)
000897	9350 037B	STS SYSPRINTDATAHANDLER,SYSVALUECOPY
000899	E052	LDI SYSVALUECOPY,HIGH(TEMPTEXT)
00089A	9350 037C	STS SYSPRINTDATAHANDLER_H,SYSVALUECOPY
00089C	EE50	LDI SYSVALUECOPY,224
00089D	9350 0322	STS GLCDFOREGROUND,SYSVALUECOPY
00089F	EF5F	LDI SYSVALUECOPY,255
0008A0	9350 0323	STS GLCDFOREGROUND_H,SYSVALUECOPY
0008A2	E052	LDI SYSVALUECOPY,2
0008A3	9350 035F	STS SIZE,SYSVALUECOPY
0008A5	940E 257A	CALL PRINT_SSD1289513
		ENDIF5
0008A7	9160 038C	LDS SYSWORDTEMPA,TP_X
0008A9	9170 038D	LDS SYSWORDTEMPA_H,TP_X_H
0008AB	E5C0	LDI SYSWORDTEMPB,80
0008AC	E0D0	LDI SYSWORDTEMPB_H,0
0008AD	940E 2A6D	CALL SYSCOMPLESSTHAN16
0008AF	9400	COM SYSBYTETEMPX
0008B0	2C60	MOV SYSTEMP1,SYSBYTETEMPX
0008B1	91C0 038C	LDS SYSWORDTEMPB,TP_X
0008B3	91D0 038D	LDS SYSWORDTEMPB_H,TP_X_H
0008B5	E862	LDI SYSWORDTEMPA,130
0008B6	E070	LDI SYSWORDTEMPA_H,0
0008B7	940E 2A6D	CALL SYSCOMPLESSTHAN16
0008B9	9400	COM SYSBYTETEMPX
0008BA	2CA0	MOV SYSTEMP2,SYSBYTETEMPX
0008BB	20A6	AND SYSTEMP2,SYSTEMP1
0008BC	2CEA	MOV SYSTEMP3,SYSTEMP2
0008BD	9160 038E	LDS SYSWORDTEMPA,TP_Y
0008BF	9170 038F	LDS SYSWORDTEMPA_H,TP_Y_H
0008C1	E6C4	LDI SYSWORDTEMPB,100
0008C2	E0D0	LDI SYSWORDTEMPB_H,0
0008C3	940E 2A6D	CALL SYSCOMPLESSTHAN16
0008C5	9400	COM SYSBYTETEMPX
0008C6	2C60	MOV SYSTEMP1,SYSBYTETEMPX
0008C7	91C0 038E	LDS SYSWORDTEMPB,TP_Y
0008C9	91D0 038F	LDS SYSWORDTEMPB_H,TP_Y_H
0008CB	E862	LDI SYSWORDTEMPA,130
0008CC	E070	LDI SYSWORDTEMPA_H,0
0008CD	940E 2A6D	CALL SYSCOMPLESSTHAN16
0008CF	9400	COM SYSBYTETEMPX
0008D0	2CA0	MOV SYSTEMP2,SYSBYTETEMPX
0008D1	20A6	AND SYSTEMP2,SYSTEMP1
0008D2	2CFA	MOV SYSTEMP4,SYSTEMP2
0008D3	20FE	AND SYSTEMP4,SYSTEMP3
0008D4	2C6F	MOV SYSTEMP1,SYSTEMP4
0008D5	FE60	SBRS SYSTEMP1,0
0008D6	C0A6	RJMP ENDIF6
0008D7	E550	LDI SYSVALUECOPY,80
0008D8	9350 0357	STS RX1,SYSVALUECOPY
0008DA	E050	LDI SYSVALUECOPY,0
0008DB	9350 0358	STS RX1_H,SYSVALUECOPY
0008DD	E654	LDI SYSVALUECOPY,100
0008DE	9350 035B	STS RY1,SYSVALUECOPY
0008E0	E050	LDI SYSVALUECOPY,0
0008E1	9350 035C	STS RY1_H,SYSVALUECOPY
0008E3	E852	LDI SYSVALUECOPY,130
0008E4	9350 0359	STS RX2,SYSVALUECOPY
0008E6	E050	LDI SYSVALUECOPY,0
0008E7	9350 035A	STS RX2_H,SYSVALUECOPY
0008E9	E852	LDI SYSVALUECOPY,130
0008EA	9350 035D	STS RY2,SYSVALUECOPY
0008EC	E050	LDI SYSVALUECOPY,0
0008ED	9350 035E	STS RY2_H,SYSVALUECOPY
0008EF	E050	LDI SYSVALUECOPY,0
0008F0	9350 0304	STS COLOR,SYSVALUECOPY
0008F2	EF58	LDI SYSVALUECOPY,248
0008F3	9350 0305	STS COLOR_H,SYSVALUECOPY
0008F5	940E 266F	CALL ROUNDRECT31
0008F7	E6D4	LDI SYSWAITTEMPMS,100
0008F8	E0E0	LDI SYSWAITTEMPMS_H,0
0008F9	940E 1820	CALL DELAY_MS
0008FB	E550	LDI SYSVALUECOPY,80
0008FC	9350 0357	STS RX1,SYSVALUECOPY
0008FE	E050	LDI SYSVALUECOPY,0
0008FF	9350 0358	STS RX1_H,SYSVALUECOPY
000901	E654	LDI SYSVALUECOPY,100
000902	9350 035B	STS RY1,SYSVALUECOPY
000904	E050	LDI SYSVALUECOPY,0
000905	9350 035C	STS RY1_H,SYSVALUECOPY
000907	E852	LDI SYSVALUECOPY,130
000908	9350 0359	STS RX2,SYSVALUECOPY
00090A	E050	LDI SYSVALUECOPY,0
00090B	9350 035A	STS RX2_H,SYSVALUECOPY
00090D	E852	LDI SYSVALUECOPY,130
00090E	9350 035D	STS RY2,SYSVALUECOPY
000910	E050	LDI SYSVALUECOPY,0
000911	9350 035E	STS RY2_H,SYSVALUECOPY
000913	EE50	LDI SYSVALUECOPY,224
000914	9350 0304	STS COLOR,SYSVALUECOPY
000916	EF5F	LDI SYSVALUECOPY,255
000917	9350 0305	STS COLOR_H,SYSVALUECOPY
000919	940E 266F	CALL ROUNDRECT31
00091B	E5C2	LDI SYSSTRINGB,LOW(TEMPTEXT)
00091C	E0D2	LDI SYSSTRINGB_H,HIGH(TEMPTEXT)
00091D	2799	CLR SYSSTRINGLENGTH
00091E	9159	LD SYSVALUECOPY, Y+
00091F	E5A2	LDI SYSSTRINGA,LOW(TEMPTEXT)
000920	E0B2	LDI SYSSTRINGA_H,HIGH(TEMPTEXT)
000921	940E 2AB3	CALL SYSCOPYSTRINGPART
000923	E5EE	LDI SYSREADA,LOW(STRINGTABLE7<<1)
000924	E5F9	LDI SYSREADA_H,HIGH(STRINGTABLE7<<1)
000925	940E 2C92	CALL SYSREADSTRINGPART
000927	E5A2	LDI SYSSTRINGA,LOW(TEMPTEXT)
000928	E0B2	LDI SYSSTRINGA_H,HIGH(TEMPTEXT)
000929	939C	ST X, SYSSTRINGLENGTH
00092A	9060 0310	LDS SYSTEMP1,DIG
00092C	9463	INC SYSTEMP1
00092D	9260 0310	STS DIG,SYSTEMP1
00092F	E552	LDI SYSVALUECOPY,LOW(TEMPTEXT)
000930	9350 0384	STS SYSSYSINSTRINGHANDLER,SYSVALUECOPY
000932	E052	LDI SYSVALUECOPY,HIGH(TEMPTEXT)
000933	9350 0385	STS SYSSYSINSTRINGHANDLER_H,SYSVALUECOPY
000935	E154	LDI SYSVALUECOPY,20
000936	9350 036B	STS SYSCHARCOUNT,SYSVALUECOPY
000938	940E 2610	CALL FN_RIGHT
00093A	E5C2	LDI SYSSTRINGB,LOW(TEMPTEXT)
00093B	E0D2	LDI SYSSTRINGB_H,HIGH(TEMPTEXT)
00093C	E2A9	LDI SYSSTRINGA,LOW(RIGHT)
00093D	E0B2	LDI SYSSTRINGA_H,HIGH(RIGHT)
00093E	940E 2AB0	CALL SYSCOPYSTRING
000940	E156	LDI SYSVALUECOPY,22
000941	9350 033A	STS LINEX1,SYSVALUECOPY
000943	E050	LDI SYSVALUECOPY,0
000944	9350 033B	STS LINEX1_H,SYSVALUECOPY
000946	E05C	LDI SYSVALUECOPY,12
000947	9350 033E	STS LINEY1,SYSVALUECOPY
000949	E050	LDI SYSVALUECOPY,0
00094A	9350 033F	STS LINEY1_H,SYSVALUECOPY
00094C	E259	LDI SYSVALUECOPY,41
00094D	9350 033C	STS LINEX2,SYSVALUECOPY
00094F	E051	LDI SYSVALUECOPY,1
000950	9350 033D	STS LINEX2_H,SYSVALUECOPY
000952	E350	LDI SYSVALUECOPY,48
000953	9350 0340	STS LINEY2,SYSVALUECOPY
000955	E050	LDI SYSVALUECOPY,0
000956	9350 0341	STS LINEY2_H,SYSVALUECOPY
000958	E15F	LDI SYSVALUECOPY,31
000959	9350 032A	STS LINECOLOUR,SYSVALUECOPY
00095B	E050	LDI SYSVALUECOPY,0
00095C	9350 032B	STS LINECOLOUR_H,SYSVALUECOPY
00095E	940E 1832	CALL FILLEDBOX_SSD1289
000960	E25A	LDI SYSVALUECOPY,42
000961	9350 0346	STS PRINTLOCX,SYSVALUECOPY
000963	E050	LDI SYSVALUECOPY,0
000964	9350 0347	STS PRINTLOCX_H,SYSVALUECOPY
000966	E154	LDI SYSVALUECOPY,20
000967	9350 0348	STS PRINTLOCY,SYSVALUECOPY
000969	E050	LDI SYSVALUECOPY,0
00096A	9350 0349	STS PRINTLOCY_H,SYSVALUECOPY
00096C	E552	LDI SYSVALUECOPY,LOW(TEMPTEXT)
00096D	9350 037B	STS SYSPRINTDATAHANDLER,SYSVALUECOPY
00096F	E052	LDI SYSVALUECOPY,HIGH(TEMPTEXT)
000970	9350 037C	STS SYSPRINTDATAHANDLER_H,SYSVALUECOPY
000972	EE50	LDI SYSVALUECOPY,224
000973	9350 0322	STS GLCDFOREGROUND,SYSVALUECOPY
000975	EF5F	LDI SYSVALUECOPY,255
000976	9350 0323	STS GLCDFOREGROUND_H,SYSVALUECOPY
000978	E052	LDI SYSVALUECOPY,2
000979	9350 035F	STS SIZE,SYSVALUECOPY
00097B	940E 257A	CALL PRINT_SSD1289513
		ENDIF6
00097D	9160 038C	LDS SYSWORDTEMPA,TP_X
00097F	9170 038D	LDS SYSWORDTEMPA_H,TP_X_H
000981	E8CC	LDI SYSWORDTEMPB,140
000982	E0D0	LDI SYSWORDTEMPB_H,0
000983	940E 2A6D	CALL SYSCOMPLESSTHAN16
000985	9400	COM SYSBYTETEMPX
000986	2C60	MOV SYSTEMP1,SYSBYTETEMPX
000987	91C0 038C	LDS SYSWORDTEMPB,TP_X
000989	91D0 038D	LDS SYSWORDTEMPB_H,TP_X_H
00098B	EB6E	LDI SYSWORDTEMPA,190
00098C	E070	LDI SYSWORDTEMPA_H,0
00098D	940E 2A6D	CALL SYSCOMPLESSTHAN16
00098F	9400	COM SYSBYTETEMPX
000990	2CA0	MOV SYSTEMP2,SYSBYTETEMPX
000991	20A6	AND SYSTEMP2,SYSTEMP1
000992	2CEA	MOV SYSTEMP3,SYSTEMP2
000993	9160 038E	LDS SYSWORDTEMPA,TP_Y
000995	9170 038F	LDS SYSWORDTEMPA_H,TP_Y_H
000997	E6C4	LDI SYSWORDTEMPB,100
000998	E0D0	LDI SYSWORDTEMPB_H,0
000999	940E 2A6D	CALL SYSCOMPLESSTHAN16
00099B	9400	COM SYSBYTETEMPX
00099C	2C60	MOV SYSTEMP1,SYSBYTETEMPX
00099D	91C0 038E	LDS SYSWORDTEMPB,TP_Y
00099F	91D0 038F	LDS SYSWORDTEMPB_H,TP_Y_H
0009A1	E862	LDI SYSWORDTEMPA,130
0009A2	E070	LDI SYSWORDTEMPA_H,0
0009A3	940E 2A6D	CALL SYSCOMPLESSTHAN16
0009A5	9400	COM SYSBYTETEMPX
0009A6	2CA0	MOV SYSTEMP2,SYSBYTETEMPX
0009A7	20A6	AND SYSTEMP2,SYSTEMP1
0009A8	2CFA	MOV SYSTEMP4,SYSTEMP2
0009A9	20FE	AND SYSTEMP4,SYSTEMP3
0009AA	2C6F	MOV SYSTEMP1,SYSTEMP4
0009AB	FE60	SBRS SYSTEMP1,0
0009AC	C0A6	RJMP ENDIF7
0009AD	E85C	LDI SYSVALUECOPY,140
0009AE	9350 0357	STS RX1,SYSVALUECOPY
0009B0	E050	LDI SYSVALUECOPY,0
0009B1	9350 0358	STS RX1_H,SYSVALUECOPY
0009B3	E654	LDI SYSVALUECOPY,100
0009B4	9350 035B	STS RY1,SYSVALUECOPY
0009B6	E050	LDI SYSVALUECOPY,0
0009B7	9350 035C	STS RY1_H,SYSVALUECOPY
0009B9	EB5E	LDI SYSVALUECOPY,190
0009BA	9350 0359	STS RX2,SYSVALUECOPY
0009BC	E050	LDI SYSVALUECOPY,0
0009BD	9350 035A	STS RX2_H,SYSVALUECOPY
0009BF	E852	LDI SYSVALUECOPY,130
0009C0	9350 035D	STS RY2,SYSVALUECOPY
0009C2	E050	LDI SYSVALUECOPY,0
0009C3	9350 035E	STS RY2_H,SYSVALUECOPY
0009C5	E050	LDI SYSVALUECOPY,0
0009C6	9350 0304	STS COLOR,SYSVALUECOPY
0009C8	EF58	LDI SYSVALUECOPY,248
0009C9	9350 0305	STS COLOR_H,SYSVALUECOPY
0009CB	940E 266F	CALL ROUNDRECT31
0009CD	E6D4	LDI SYSWAITTEMPMS,100
0009CE	E0E0	LDI SYSWAITTEMPMS_H,0
0009CF	940E 1820	CALL DELAY_MS
0009D1	E85C	LDI SYSVALUECOPY,140
0009D2	9350 0357	STS RX1,SYSVALUECOPY
0009D4	E050	LDI SYSVALUECOPY,0
0009D5	9350 0358	STS RX1_H,SYSVALUECOPY
0009D7	E654	LDI SYSVALUECOPY,100
0009D8	9350 035B	STS RY1,SYSVALUECOPY
0009DA	E050	LDI SYSVALUECOPY,0
0009DB	9350 035C	STS RY1_H,SYSVALUECOPY
0009DD	EB5E	LDI SYSVALUECOPY,190
0009DE	9350 0359	STS RX2,SYSVALUECOPY
0009E0	E050	LDI SYSVALUECOPY,0
0009E1	9350 035A	STS RX2_H,SYSVALUECOPY
0009E3	E852	LDI SYSVALUECOPY,130
0009E4	9350 035D	STS RY2,SYSVALUECOPY
0009E6	E050	LDI SYSVALUECOPY,0
0009E7	9350 035E	STS RY2_H,SYSVALUECOPY
0009E9	EE50	LDI SYSVALUECOPY,224
0009EA	9350 0304	STS COLOR,SYSVALUECOPY
0009EC	EF5F	LDI SYSVALUECOPY,255
0009ED	9350 0305	STS COLOR_H,SYSVALUECOPY
0009EF	940E 266F	CALL ROUNDRECT31
0009F1	E5C2	LDI SYSSTRINGB,LOW(TEMPTEXT)
0009F2	E0D2	LDI SYSSTRINGB_H,HIGH(TEMPTEXT)
0009F3	2799	CLR SYSSTRINGLENGTH
0009F4	9159	LD SYSVALUECOPY, Y+
0009F5	E5A2	LDI SYSSTRINGA,LOW(TEMPTEXT)
0009F6	E0B2	LDI SYSSTRINGA_H,HIGH(TEMPTEXT)
0009F7	940E 2AB3	CALL SYSCOPYSTRINGPART
0009F9	E6E0	LDI SYSREADA,LOW(STRINGTABLE8<<1)
0009FA	E5F9	LDI SYSREADA_H,HIGH(STRINGTABLE8<<1)
0009FB	940E 2C92	CALL SYSREADSTRINGPART
0009FD	E5A2	LDI SYSSTRINGA,LOW(TEMPTEXT)
0009FE	E0B2	LDI SYSSTRINGA_H,HIGH(TEMPTEXT)
0009FF	939C	ST X, SYSSTRINGLENGTH
000A00	9060 0310	LDS SYSTEMP1,DIG
000A02	9463	INC SYSTEMP1
000A03	9260 0310	STS DIG,SYSTEMP1
000A05	E552	LDI SYSVALUECOPY,LOW(TEMPTEXT)
000A06	9350 0384	STS SYSSYSINSTRINGHANDLER,SYSVALUECOPY
000A08	E052	LDI SYSVALUECOPY,HIGH(TEMPTEXT)
000A09	9350 0385	STS SYSSYSINSTRINGHANDLER_H,SYSVALUECOPY
000A0B	E154	LDI SYSVALUECOPY,20
000A0C	9350 036B	STS SYSCHARCOUNT,SYSVALUECOPY
000A0E	940E 2610	CALL FN_RIGHT
000A10	E5C2	LDI SYSSTRINGB,LOW(TEMPTEXT)
000A11	E0D2	LDI SYSSTRINGB_H,HIGH(TEMPTEXT)
000A12	E2A9	LDI SYSSTRINGA,LOW(RIGHT)
000A13	E0B2	LDI SYSSTRINGA_H,HIGH(RIGHT)
000A14	940E 2AB0	CALL SYSCOPYSTRING
000A16	E156	LDI SYSVALUECOPY,22
000A17	9350 033A	STS LINEX1,SYSVALUECOPY
000A19	E050	LDI SYSVALUECOPY,0
000A1A	9350 033B	STS LINEX1_H,SYSVALUECOPY
000A1C	E05C	LDI SYSVALUECOPY,12
000A1D	9350 033E	STS LINEY1,SYSVALUECOPY
000A1F	E050	LDI SYSVALUECOPY,0
000A20	9350 033F	STS LINEY1_H,SYSVALUECOPY
000A22	E259	LDI SYSVALUECOPY,41
000A23	9350 033C	STS LINEX2,SYSVALUECOPY
000A25	E051	LDI SYSVALUECOPY,1
000A26	9350 033D	STS LINEX2_H,SYSVALUECOPY
000A28	E350	LDI SYSVALUECOPY,48
000A29	9350 0340	STS LINEY2,SYSVALUECOPY
000A2B	E050	LDI SYSVALUECOPY,0
000A2C	9350 0341	STS LINEY2_H,SYSVALUECOPY
000A2E	E15F	LDI SYSVALUECOPY,31
000A2F	9350 032A	STS LINECOLOUR,SYSVALUECOPY
000A31	E050	LDI SYSVALUECOPY,0
000A32	9350 032B	STS LINECOLOUR_H,SYSVALUECOPY
000A34	940E 1832	CALL FILLEDBOX_SSD1289
000A36	E25A	LDI SYSVALUECOPY,42
000A37	9350 0346	STS PRINTLOCX,SYSVALUECOPY
000A39	E050	LDI SYSVALUECOPY,0
000A3A	9350 0347	STS PRINTLOCX_H,SYSVALUECOPY
000A3C	E154	LDI SYSVALUECOPY,20
000A3D	9350 0348	STS PRINTLOCY,SYSVALUECOPY
000A3F	E050	LDI SYSVALUECOPY,0
000A40	9350 0349	STS PRINTLOCY_H,SYSVALUECOPY
000A42	E552	LDI SYSVALUECOPY,LOW(TEMPTEXT)
000A43	9350 037B	STS SYSPRINTDATAHANDLER,SYSVALUECOPY
000A45	E052	LDI SYSVALUECOPY,HIGH(TEMPTEXT)
000A46	9350 037C	STS SYSPRINTDATAHANDLER_H,SYSVALUECOPY
000A48	EE50	LDI SYSVALUECOPY,224
000A49	9350 0322	STS GLCDFOREGROUND,SYSVALUECOPY
000A4B	EF5F	LDI SYSVALUECOPY,255
000A4C	9350 0323	STS GLCDFOREGROUND_H,SYSVALUECOPY
000A4E	E052	LDI SYSVALUECOPY,2
000A4F	9350 035F	STS SIZE,SYSVALUECOPY
000A51	940E 257A	CALL PRINT_SSD1289513
		ENDIF7
000A53	9160 038C	LDS SYSWORDTEMPA,TP_X
000A55	9170 038D	LDS SYSWORDTEMPA_H,TP_X_H
000A57	E1C4	LDI SYSWORDTEMPB,20
000A58	E0D0	LDI SYSWORDTEMPB_H,0
000A59	940E 2A6D	CALL SYSCOMPLESSTHAN16
000A5B	9400	COM SYSBYTETEMPX
000A5C	2C60	MOV SYSTEMP1,SYSBYTETEMPX
000A5D	91C0 038C	LDS SYSWORDTEMPB,TP_X
000A5F	91D0 038D	LDS SYSWORDTEMPB_H,TP_X_H
000A61	E466	LDI SYSWORDTEMPA,70
000A62	E070	LDI SYSWORDTEMPA_H,0
000A63	940E 2A6D	CALL SYSCOMPLESSTHAN16
000A65	9400	COM SYSBYTETEMPX
000A66	2CA0	MOV SYSTEMP2,SYSBYTETEMPX
000A67	20A6	AND SYSTEMP2,SYSTEMP1
000A68	2CEA	MOV SYSTEMP3,SYSTEMP2
000A69	9160 038E	LDS SYSWORDTEMPA,TP_Y
000A6B	9170 038F	LDS SYSWORDTEMPA_H,TP_Y_H
000A6D	E8CC	LDI SYSWORDTEMPB,140
000A6E	E0D0	LDI SYSWORDTEMPB_H,0
000A6F	940E 2A6D	CALL SYSCOMPLESSTHAN16
000A71	9400	COM SYSBYTETEMPX
000A72	2C60	MOV SYSTEMP1,SYSBYTETEMPX
000A73	91C0 038E	LDS SYSWORDTEMPB,TP_Y
000A75	91D0 038F	LDS SYSWORDTEMPB_H,TP_Y_H
000A77	EA6A	LDI SYSWORDTEMPA,170
000A78	E070	LDI SYSWORDTEMPA_H,0
000A79	940E 2A6D	CALL SYSCOMPLESSTHAN16
000A7B	9400	COM SYSBYTETEMPX
000A7C	2CA0	MOV SYSTEMP2,SYSBYTETEMPX
000A7D	20A6	AND SYSTEMP2,SYSTEMP1
000A7E	2CFA	MOV SYSTEMP4,SYSTEMP2
000A7F	20FE	AND SYSTEMP4,SYSTEMP3
000A80	2C6F	MOV SYSTEMP1,SYSTEMP4
000A81	FE60	SBRS SYSTEMP1,0
000A82	C0A6	RJMP ENDIF8
000A83	E154	LDI SYSVALUECOPY,20
000A84	9350 0357	STS RX1,SYSVALUECOPY
000A86	E050	LDI SYSVALUECOPY,0
000A87	9350 0358	STS RX1_H,SYSVALUECOPY
000A89	E85C	LDI SYSVALUECOPY,140
000A8A	9350 035B	STS RY1,SYSVALUECOPY
000A8C	E050	LDI SYSVALUECOPY,0
000A8D	9350 035C	STS RY1_H,SYSVALUECOPY
000A8F	E456	LDI SYSVALUECOPY,70
000A90	9350 0359	STS RX2,SYSVALUECOPY
000A92	E050	LDI SYSVALUECOPY,0
000A93	9350 035A	STS RX2_H,SYSVALUECOPY
000A95	EA5A	LDI SYSVALUECOPY,170
000A96	9350 035D	STS RY2,SYSVALUECOPY
000A98	E050	LDI SYSVALUECOPY,0
000A99	9350 035E	STS RY2_H,SYSVALUECOPY
000A9B	E050	LDI SYSVALUECOPY,0
000A9C	9350 0304	STS COLOR,SYSVALUECOPY
000A9E	EF58	LDI SYSVALUECOPY,248
000A9F	9350 0305	STS COLOR_H,SYSVALUECOPY
000AA1	940E 266F	CALL ROUNDRECT31
000AA3	E6D4	LDI SYSWAITTEMPMS,100
000AA4	E0E0	LDI SYSWAITTEMPMS_H,0
000AA5	940E 1820	CALL DELAY_MS
000AA7	E154	LDI SYSVALUECOPY,20
000AA8	9350 0357	STS RX1,SYSVALUECOPY
000AAA	E050	LDI SYSVALUECOPY,0
000AAB	9350 0358	STS RX1_H,SYSVALUECOPY
000AAD	E85C	LDI SYSVALUECOPY,140
000AAE	9350 035B	STS RY1,SYSVALUECOPY
000AB0	E050	LDI SYSVALUECOPY,0
000AB1	9350 035C	STS RY1_H,SYSVALUECOPY
000AB3	E456	LDI SYSVALUECOPY,70
000AB4	9350 0359	STS RX2,SYSVALUECOPY
000AB6	E050	LDI SYSVALUECOPY,0
000AB7	9350 035A	STS RX2_H,SYSVALUECOPY
000AB9	EA5A	LDI SYSVALUECOPY,170
000ABA	9350 035D	STS RY2,SYSVALUECOPY
000ABC	E050	LDI SYSVALUECOPY,0
000ABD	9350 035E	STS RY2_H,SYSVALUECOPY
000ABF	EE50	LDI SYSVALUECOPY,224
000AC0	9350 0304	STS COLOR,SYSVALUECOPY
000AC2	EF5F	LDI SYSVALUECOPY,255
000AC3	9350 0305	STS COLOR_H,SYSVALUECOPY
000AC5	940E 266F	CALL ROUNDRECT31
000AC7	E5C2	LDI SYSSTRINGB,LOW(TEMPTEXT)
000AC8	E0D2	LDI SYSSTRINGB_H,HIGH(TEMPTEXT)
000AC9	2799	CLR SYSSTRINGLENGTH
000ACA	9159	LD SYSVALUECOPY, Y+
000ACB	E5A2	LDI SYSSTRINGA,LOW(TEMPTEXT)
000ACC	E0B2	LDI SYSSTRINGA_H,HIGH(TEMPTEXT)
000ACD	940E 2AB3	CALL SYSCOPYSTRINGPART
000ACF	E6E4	LDI SYSREADA,LOW(STRINGTABLE10<<1)
000AD0	E5F9	LDI SYSREADA_H,HIGH(STRINGTABLE10<<1)
000AD1	940E 2C92	CALL SYSREADSTRINGPART
000AD3	E5A2	LDI SYSSTRINGA,LOW(TEMPTEXT)
000AD4	E0B2	LDI SYSSTRINGA_H,HIGH(TEMPTEXT)
000AD5	939C	ST X, SYSSTRINGLENGTH
000AD6	9060 0310	LDS SYSTEMP1,DIG
000AD8	9463	INC SYSTEMP1
000AD9	9260 0310	STS DIG,SYSTEMP1
000ADB	E552	LDI SYSVALUECOPY,LOW(TEMPTEXT)
000ADC	9350 0384	STS SYSSYSINSTRINGHANDLER,SYSVALUECOPY
000ADE	E052	LDI SYSVALUECOPY,HIGH(TEMPTEXT)
000ADF	9350 0385	STS SYSSYSINSTRINGHANDLER_H,SYSVALUECOPY
000AE1	E154	LDI SYSVALUECOPY,20
000AE2	9350 036B	STS SYSCHARCOUNT,SYSVALUECOPY
000AE4	940E 2610	CALL FN_RIGHT
000AE6	E5C2	LDI SYSSTRINGB,LOW(TEMPTEXT)
000AE7	E0D2	LDI SYSSTRINGB_H,HIGH(TEMPTEXT)
000AE8	E2A9	LDI SYSSTRINGA,LOW(RIGHT)
000AE9	E0B2	LDI SYSSTRINGA_H,HIGH(RIGHT)
000AEA	940E 2AB0	CALL SYSCOPYSTRING
000AEC	E156	LDI SYSVALUECOPY,22
000AED	9350 033A	STS LINEX1,SYSVALUECOPY
000AEF	E050	LDI SYSVALUECOPY,0
000AF0	9350 033B	STS LINEX1_H,SYSVALUECOPY
000AF2	E05C	LDI SYSVALUECOPY,12
000AF3	9350 033E	STS LINEY1,SYSVALUECOPY
000AF5	E050	LDI SYSVALUECOPY,0
000AF6	9350 033F	STS LINEY1_H,SYSVALUECOPY
000AF8	E259	LDI SYSVALUECOPY,41
000AF9	9350 033C	STS LINEX2,SYSVALUECOPY
000AFB	E051	LDI SYSVALUECOPY,1
000AFC	9350 033D	STS LINEX2_H,SYSVALUECOPY
000AFE	E350	LDI SYSVALUECOPY,48
000AFF	9350 0340	STS LINEY2,SYSVALUECOPY
000B01	E050	LDI SYSVALUECOPY,0
000B02	9350 0341	STS LINEY2_H,SYSVALUECOPY
000B04	E15F	LDI SYSVALUECOPY,31
000B05	9350 032A	STS LINECOLOUR,SYSVALUECOPY
000B07	E050	LDI SYSVALUECOPY,0
000B08	9350 032B	STS LINECOLOUR_H,SYSVALUECOPY
000B0A	940E 1832	CALL FILLEDBOX_SSD1289
000B0C	E25A	LDI SYSVALUECOPY,42
000B0D	9350 0346	STS PRINTLOCX,SYSVALUECOPY
000B0F	E050	LDI SYSVALUECOPY,0
000B10	9350 0347	STS PRINTLOCX_H,SYSVALUECOPY
000B12	E154	LDI SYSVALUECOPY,20
000B13	9350 0348	STS PRINTLOCY,SYSVALUECOPY
000B15	E050	LDI SYSVALUECOPY,0
000B16	9350 0349	STS PRINTLOCY_H,SYSVALUECOPY
000B18	E552	LDI SYSVALUECOPY,LOW(TEMPTEXT)
000B19	9350 037B	STS SYSPRINTDATAHANDLER,SYSVALUECOPY
000B1B	E052	LDI SYSVALUECOPY,HIGH(TEMPTEXT)
000B1C	9350 037C	STS SYSPRINTDATAHANDLER_H,SYSVALUECOPY
000B1E	EE50	LDI SYSVALUECOPY,224
000B1F	9350 0322	STS GLCDFOREGROUND,SYSVALUECOPY
000B21	EF5F	LDI SYSVALUECOPY,255
000B22	9350 0323	STS GLCDFOREGROUND_H,SYSVALUECOPY
000B24	E052	LDI SYSVALUECOPY,2
000B25	9350 035F	STS SIZE,SYSVALUECOPY
000B27	940E 257A	CALL PRINT_SSD1289513
		ENDIF8
000B29	9160 038C	LDS SYSWORDTEMPA,TP_X
000B2B	9170 038D	LDS SYSWORDTEMPA_H,TP_X_H
000B2D	E5C0	LDI SYSWORDTEMPB,80
000B2E	E0D0	LDI SYSWORDTEMPB_H,0
000B2F	940E 2A6D	CALL SYSCOMPLESSTHAN16
000B31	9400	COM SYSBYTETEMPX
000B32	2C60	MOV SYSTEMP1,SYSBYTETEMPX
000B33	91C0 038C	LDS SYSWORDTEMPB,TP_X
000B35	91D0 038D	LDS SYSWORDTEMPB_H,TP_X_H
000B37	E862	LDI SYSWORDTEMPA,130
000B38	E070	LDI SYSWORDTEMPA_H,0
000B39	940E 2A6D	CALL SYSCOMPLESSTHAN16
000B3B	9400	COM SYSBYTETEMPX
000B3C	2CA0	MOV SYSTEMP2,SYSBYTETEMPX
000B3D	20A6	AND SYSTEMP2,SYSTEMP1
000B3E	2CEA	MOV SYSTEMP3,SYSTEMP2
000B3F	9160 038E	LDS SYSWORDTEMPA,TP_Y
000B41	9170 038F	LDS SYSWORDTEMPA_H,TP_Y_H
000B43	E8CC	LDI SYSWORDTEMPB,140
000B44	E0D0	LDI SYSWORDTEMPB_H,0
000B45	940E 2A6D	CALL SYSCOMPLESSTHAN16
000B47	9400	COM SYSBYTETEMPX
000B48	2C60	MOV SYSTEMP1,SYSBYTETEMPX
000B49	91C0 038E	LDS SYSWORDTEMPB,TP_Y
000B4B	91D0 038F	LDS SYSWORDTEMPB_H,TP_Y_H
000B4D	EA6A	LDI SYSWORDTEMPA,170
000B4E	E070	LDI SYSWORDTEMPA_H,0
000B4F	940E 2A6D	CALL SYSCOMPLESSTHAN16
000B51	9400	COM SYSBYTETEMPX
000B52	2CA0	MOV SYSTEMP2,SYSBYTETEMPX
000B53	20A6	AND SYSTEMP2,SYSTEMP1
000B54	2CFA	MOV SYSTEMP4,SYSTEMP2
000B55	20FE	AND SYSTEMP4,SYSTEMP3
000B56	2C6F	MOV SYSTEMP1,SYSTEMP4
000B57	FE60	SBRS SYSTEMP1,0
000B58	C0A6	RJMP ENDIF9
000B59	E550	LDI SYSVALUECOPY,80
000B5A	9350 0357	STS RX1,SYSVALUECOPY
000B5C	E050	LDI SYSVALUECOPY,0
000B5D	9350 0358	STS RX1_H,SYSVALUECOPY
000B5F	E85C	LDI SYSVALUECOPY,140
000B60	9350 035B	STS RY1,SYSVALUECOPY
000B62	E050	LDI SYSVALUECOPY,0
000B63	9350 035C	STS RY1_H,SYSVALUECOPY
000B65	E852	LDI SYSVALUECOPY,130
000B66	9350 0359	STS RX2,SYSVALUECOPY
000B68	E050	LDI SYSVALUECOPY,0
000B69	9350 035A	STS RX2_H,SYSVALUECOPY
000B6B	EA5A	LDI SYSVALUECOPY,170
000B6C	9350 035D	STS RY2,SYSVALUECOPY
000B6E	E050	LDI SYSVALUECOPY,0
000B6F	9350 035E	STS RY2_H,SYSVALUECOPY
000B71	E050	LDI SYSVALUECOPY,0
000B72	9350 0304	STS COLOR,SYSVALUECOPY
000B74	EF58	LDI SYSVALUECOPY,248
000B75	9350 0305	STS COLOR_H,SYSVALUECOPY
000B77	940E 266F	CALL ROUNDRECT31
000B79	E6D4	LDI SYSWAITTEMPMS,100
000B7A	E0E0	LDI SYSWAITTEMPMS_H,0
000B7B	940E 1820	CALL DELAY_MS
000B7D	E550	LDI SYSVALUECOPY,80
000B7E	9350 0357	STS RX1,SYSVALUECOPY
000B80	E050	LDI SYSVALUECOPY,0
000B81	9350 0358	STS RX1_H,SYSVALUECOPY
000B83	E85C	LDI SYSVALUECOPY,140
000B84	9350 035B	STS RY1,SYSVALUECOPY
000B86	E050	LDI SYSVALUECOPY,0
000B87	9350 035C	STS RY1_H,SYSVALUECOPY
000B89	E852	LDI SYSVALUECOPY,130
000B8A	9350 0359	STS RX2,SYSVALUECOPY
000B8C	E050	LDI SYSVALUECOPY,0
000B8D	9350 035A	STS RX2_H,SYSVALUECOPY
000B8F	EA5A	LDI SYSVALUECOPY,170
000B90	9350 035D	STS RY2,SYSVALUECOPY
000B92	E050	LDI SYSVALUECOPY,0
000B93	9350 035E	STS RY2_H,SYSVALUECOPY
000B95	EE50	LDI SYSVALUECOPY,224
000B96	9350 0304	STS COLOR,SYSVALUECOPY
000B98	EF5F	LDI SYSVALUECOPY,255
000B99	9350 0305	STS COLOR_H,SYSVALUECOPY
000B9B	940E 266F	CALL ROUNDRECT31
000B9D	E5C2	LDI SYSSTRINGB,LOW(TEMPTEXT)
000B9E	E0D2	LDI SYSSTRINGB_H,HIGH(TEMPTEXT)
000B9F	2799	CLR SYSSTRINGLENGTH
000BA0	9159	LD SYSVALUECOPY, Y+
000BA1	E5A2	LDI SYSSTRINGA,LOW(TEMPTEXT)
000BA2	E0B2	LDI SYSSTRINGA_H,HIGH(TEMPTEXT)
000BA3	940E 2AB3	CALL SYSCOPYSTRINGPART
000BA5	E6E6	LDI SYSREADA,LOW(STRINGTABLE11<<1)
000BA6	E5F9	LDI SYSREADA_H,HIGH(STRINGTABLE11<<1)
000BA7	940E 2C92	CALL SYSREADSTRINGPART
000BA9	E5A2	LDI SYSSTRINGA,LOW(TEMPTEXT)
000BAA	E0B2	LDI SYSSTRINGA_H,HIGH(TEMPTEXT)
000BAB	939C	ST X, SYSSTRINGLENGTH
000BAC	9060 0310	LDS SYSTEMP1,DIG
000BAE	9463	INC SYSTEMP1
000BAF	9260 0310	STS DIG,SYSTEMP1
000BB1	E552	LDI SYSVALUECOPY,LOW(TEMPTEXT)
000BB2	9350 0384	STS SYSSYSINSTRINGHANDLER,SYSVALUECOPY
000BB4	E052	LDI SYSVALUECOPY,HIGH(TEMPTEXT)
000BB5	9350 0385	STS SYSSYSINSTRINGHANDLER_H,SYSVALUECOPY
000BB7	E154	LDI SYSVALUECOPY,20
000BB8	9350 036B	STS SYSCHARCOUNT,SYSVALUECOPY
000BBA	940E 2610	CALL FN_RIGHT
000BBC	E5C2	LDI SYSSTRINGB,LOW(TEMPTEXT)
000BBD	E0D2	LDI SYSSTRINGB_H,HIGH(TEMPTEXT)
000BBE	E2A9	LDI SYSSTRINGA,LOW(RIGHT)
000BBF	E0B2	LDI SYSSTRINGA_H,HIGH(RIGHT)
000BC0	940E 2AB0	CALL SYSCOPYSTRING
000BC2	E156	LDI SYSVALUECOPY,22
000BC3	9350 033A	STS LINEX1,SYSVALUECOPY
000BC5	E050	LDI SYSVALUECOPY,0
000BC6	9350 033B	STS LINEX1_H,SYSVALUECOPY
000BC8	E05C	LDI SYSVALUECOPY,12
000BC9	9350 033E	STS LINEY1,SYSVALUECOPY
000BCB	E050	LDI SYSVALUECOPY,0
000BCC	9350 033F	STS LINEY1_H,SYSVALUECOPY
000BCE	E259	LDI SYSVALUECOPY,41
000BCF	9350 033C	STS LINEX2,SYSVALUECOPY
000BD1	E051	LDI SYSVALUECOPY,1
000BD2	9350 033D	STS LINEX2_H,SYSVALUECOPY
000BD4	E350	LDI SYSVALUECOPY,48
000BD5	9350 0340	STS LINEY2,SYSVALUECOPY
000BD7	E050	LDI SYSVALUECOPY,0
000BD8	9350 0341	STS LINEY2_H,SYSVALUECOPY
000BDA	E15F	LDI SYSVALUECOPY,31
000BDB	9350 032A	STS LINECOLOUR,SYSVALUECOPY
000BDD	E050	LDI SYSVALUECOPY,0
000BDE	9350 032B	STS LINECOLOUR_H,SYSVALUECOPY
000BE0	940E 1832	CALL FILLEDBOX_SSD1289
000BE2	E25A	LDI SYSVALUECOPY,42
000BE3	9350 0346	STS PRINTLOCX,SYSVALUECOPY
000BE5	E050	LDI SYSVALUECOPY,0
000BE6	9350 0347	STS PRINTLOCX_H,SYSVALUECOPY
000BE8	E154	LDI SYSVALUECOPY,20
000BE9	9350 0348	STS PRINTLOCY,SYSVALUECOPY
000BEB	E050	LDI SYSVALUECOPY,0
000BEC	9350 0349	STS PRINTLOCY_H,SYSVALUECOPY
000BEE	E552	LDI SYSVALUECOPY,LOW(TEMPTEXT)
000BEF	9350 037B	STS SYSPRINTDATAHANDLER,SYSVALUECOPY
000BF1	E052	LDI SYSVALUECOPY,HIGH(TEMPTEXT)
000BF2	9350 037C	STS SYSPRINTDATAHANDLER_H,SYSVALUECOPY
000BF4	EE50	LDI SYSVALUECOPY,224
000BF5	9350 0322	STS GLCDFOREGROUND,SYSVALUECOPY
000BF7	EF5F	LDI SYSVALUECOPY,255
000BF8	9350 0323	STS GLCDFOREGROUND_H,SYSVALUECOPY
000BFA	E052	LDI SYSVALUECOPY,2
000BFB	9350 035F	STS SIZE,SYSVALUECOPY
000BFD	940E 257A	CALL PRINT_SSD1289513
		ENDIF9
000BFF	9160 038C	LDS SYSWORDTEMPA,TP_X
000C01	9170 038D	LDS SYSWORDTEMPA_H,TP_X_H
000C03	E8CC	LDI SYSWORDTEMPB,140
000C04	E0D0	LDI SYSWORDTEMPB_H,0
000C05	940E 2A6D	CALL SYSCOMPLESSTHAN16
000C07	9400	COM SYSBYTETEMPX
000C08	2C60	MOV SYSTEMP1,SYSBYTETEMPX
000C09	91C0 038C	LDS SYSWORDTEMPB,TP_X
000C0B	91D0 038D	LDS SYSWORDTEMPB_H,TP_X_H
000C0D	EB6E	LDI SYSWORDTEMPA,190
000C0E	E070	LDI SYSWORDTEMPA_H,0
000C0F	940E 2A6D	CALL SYSCOMPLESSTHAN16
000C11	9400	COM SYSBYTETEMPX
000C12	2CA0	MOV SYSTEMP2,SYSBYTETEMPX
000C13	20A6	AND SYSTEMP2,SYSTEMP1
000C14	2CEA	MOV SYSTEMP3,SYSTEMP2
000C15	9160 038E	LDS SYSWORDTEMPA,TP_Y
000C17	9170 038F	LDS SYSWORDTEMPA_H,TP_Y_H
000C19	E8CC	LDI SYSWORDTEMPB,140
000C1A	E0D0	LDI SYSWORDTEMPB_H,0
000C1B	940E 2A6D	CALL SYSCOMPLESSTHAN16
000C1D	9400	COM SYSBYTETEMPX
000C1E	2C60	MOV SYSTEMP1,SYSBYTETEMPX
000C1F	91C0 038E	LDS SYSWORDTEMPB,TP_Y
000C21	91D0 038F	LDS SYSWORDTEMPB_H,TP_Y_H
000C23	EA6A	LDI SYSWORDTEMPA,170
000C24	E070	LDI SYSWORDTEMPA_H,0
000C25	940E 2A6D	CALL SYSCOMPLESSTHAN16
000C27	9400	COM SYSBYTETEMPX
000C28	2CA0	MOV SYSTEMP2,SYSBYTETEMPX
000C29	20A6	AND SYSTEMP2,SYSTEMP1
000C2A	2CFA	MOV SYSTEMP4,SYSTEMP2
000C2B	20FE	AND SYSTEMP4,SYSTEMP3
000C2C	2C6F	MOV SYSTEMP1,SYSTEMP4
000C2D	FE60	SBRS SYSTEMP1,0
000C2E	C0A6	RJMP ENDIF10
000C2F	E85C	LDI SYSVALUECOPY,140
000C30	9350 0357	STS RX1,SYSVALUECOPY
000C32	E050	LDI SYSVALUECOPY,0
000C33	9350 0358	STS RX1_H,SYSVALUECOPY
000C35	E85C	LDI SYSVALUECOPY,140
000C36	9350 035B	STS RY1,SYSVALUECOPY
000C38	E050	LDI SYSVALUECOPY,0
000C39	9350 035C	STS RY1_H,SYSVALUECOPY
000C3B	EB5E	LDI SYSVALUECOPY,190
000C3C	9350 0359	STS RX2,SYSVALUECOPY
000C3E	E050	LDI SYSVALUECOPY,0
000C3F	9350 035A	STS RX2_H,SYSVALUECOPY
000C41	EA5A	LDI SYSVALUECOPY,170
000C42	9350 035D	STS RY2,SYSVALUECOPY
000C44	E050	LDI SYSVALUECOPY,0
000C45	9350 035E	STS RY2_H,SYSVALUECOPY
000C47	E050	LDI SYSVALUECOPY,0
000C48	9350 0304	STS COLOR,SYSVALUECOPY
000C4A	EF58	LDI SYSVALUECOPY,248
000C4B	9350 0305	STS COLOR_H,SYSVALUECOPY
000C4D	940E 266F	CALL ROUNDRECT31
000C4F	E6D4	LDI SYSWAITTEMPMS,100
000C50	E0E0	LDI SYSWAITTEMPMS_H,0
000C51	940E 1820	CALL DELAY_MS
000C53	E85C	LDI SYSVALUECOPY,140
000C54	9350 0357	STS RX1,SYSVALUECOPY
000C56	E050	LDI SYSVALUECOPY,0
000C57	9350 0358	STS RX1_H,SYSVALUECOPY
000C59	E85C	LDI SYSVALUECOPY,140
000C5A	9350 035B	STS RY1,SYSVALUECOPY
000C5C	E050	LDI SYSVALUECOPY,0
000C5D	9350 035C	STS RY1_H,SYSVALUECOPY
000C5F	EB5E	LDI SYSVALUECOPY,190
000C60	9350 0359	STS RX2,SYSVALUECOPY
000C62	E050	LDI SYSVALUECOPY,0
000C63	9350 035A	STS RX2_H,SYSVALUECOPY
000C65	EA5A	LDI SYSVALUECOPY,170
000C66	9350 035D	STS RY2,SYSVALUECOPY
000C68	E050	LDI SYSVALUECOPY,0
000C69	9350 035E	STS RY2_H,SYSVALUECOPY
000C6B	EE50	LDI SYSVALUECOPY,224
000C6C	9350 0304	STS COLOR,SYSVALUECOPY
000C6E	EF5F	LDI SYSVALUECOPY,255
000C6F	9350 0305	STS COLOR_H,SYSVALUECOPY
000C71	940E 266F	CALL ROUNDRECT31
000C73	E5C2	LDI SYSSTRINGB,LOW(TEMPTEXT)
000C74	E0D2	LDI SYSSTRINGB_H,HIGH(TEMPTEXT)
000C75	2799	CLR SYSSTRINGLENGTH
000C76	9159	LD SYSVALUECOPY, Y+
000C77	E5A2	LDI SYSSTRINGA,LOW(TEMPTEXT)
000C78	E0B2	LDI SYSSTRINGA_H,HIGH(TEMPTEXT)
000C79	940E 2AB3	CALL SYSCOPYSTRINGPART
000C7B	E6E8	LDI SYSREADA,LOW(STRINGTABLE12<<1)
000C7C	E5F9	LDI SYSREADA_H,HIGH(STRINGTABLE12<<1)
000C7D	940E 2C92	CALL SYSREADSTRINGPART
000C7F	E5A2	LDI SYSSTRINGA,LOW(TEMPTEXT)
000C80	E0B2	LDI SYSSTRINGA_H,HIGH(TEMPTEXT)
000C81	939C	ST X, SYSSTRINGLENGTH
000C82	9060 0310	LDS SYSTEMP1,DIG
000C84	9463	INC SYSTEMP1
000C85	9260 0310	STS DIG,SYSTEMP1
000C87	E552	LDI SYSVALUECOPY,LOW(TEMPTEXT)
000C88	9350 0384	STS SYSSYSINSTRINGHANDLER,SYSVALUECOPY
000C8A	E052	LDI SYSVALUECOPY,HIGH(TEMPTEXT)
000C8B	9350 0385	STS SYSSYSINSTRINGHANDLER_H,SYSVALUECOPY
000C8D	E154	LDI SYSVALUECOPY,20
000C8E	9350 036B	STS SYSCHARCOUNT,SYSVALUECOPY
000C90	940E 2610	CALL FN_RIGHT
000C92	E5C2	LDI SYSSTRINGB,LOW(TEMPTEXT)
000C93	E0D2	LDI SYSSTRINGB_H,HIGH(TEMPTEXT)
000C94	E2A9	LDI SYSSTRINGA,LOW(RIGHT)
000C95	E0B2	LDI SYSSTRINGA_H,HIGH(RIGHT)
000C96	940E 2AB0	CALL SYSCOPYSTRING
000C98	E156	LDI SYSVALUECOPY,22
000C99	9350 033A	STS LINEX1,SYSVALUECOPY
000C9B	E050	LDI SYSVALUECOPY,0
000C9C	9350 033B	STS LINEX1_H,SYSVALUECOPY
000C9E	E05C	LDI SYSVALUECOPY,12
000C9F	9350 033E	STS LINEY1,SYSVALUECOPY
000CA1	E050	LDI SYSVALUECOPY,0
000CA2	9350 033F	STS LINEY1_H,SYSVALUECOPY
000CA4	E259	LDI SYSVALUECOPY,41
000CA5	9350 033C	STS LINEX2,SYSVALUECOPY
000CA7	E051	LDI SYSVALUECOPY,1
000CA8	9350 033D	STS LINEX2_H,SYSVALUECOPY
000CAA	E350	LDI SYSVALUECOPY,48
000CAB	9350 0340	STS LINEY2,SYSVALUECOPY
000CAD	E050	LDI SYSVALUECOPY,0
000CAE	9350 0341	STS LINEY2_H,SYSVALUECOPY
000CB0	E15F	LDI SYSVALUECOPY,31
000CB1	9350 032A	STS LINECOLOUR,SYSVALUECOPY
000CB3	E050	LDI SYSVALUECOPY,0
000CB4	9350 032B	STS LINECOLOUR_H,SYSVALUECOPY
000CB6	940E 1832	CALL FILLEDBOX_SSD1289
000CB8	E25A	LDI SYSVALUECOPY,42
000CB9	9350 0346	STS PRINTLOCX,SYSVALUECOPY
000CBB	E050	LDI SYSVALUECOPY,0
000CBC	9350 0347	STS PRINTLOCX_H,SYSVALUECOPY
000CBE	E154	LDI SYSVALUECOPY,20
000CBF	9350 0348	STS PRINTLOCY,SYSVALUECOPY
000CC1	E050	LDI SYSVALUECOPY,0
000CC2	9350 0349	STS PRINTLOCY_H,SYSVALUECOPY
000CC4	E552	LDI SYSVALUECOPY,LOW(TEMPTEXT)
000CC5	9350 037B	STS SYSPRINTDATAHANDLER,SYSVALUECOPY
000CC7	E052	LDI SYSVALUECOPY,HIGH(TEMPTEXT)
000CC8	9350 037C	STS SYSPRINTDATAHANDLER_H,SYSVALUECOPY
000CCA	EE50	LDI SYSVALUECOPY,224
000CCB	9350 0322	STS GLCDFOREGROUND,SYSVALUECOPY
000CCD	EF5F	LDI SYSVALUECOPY,255
000CCE	9350 0323	STS GLCDFOREGROUND_H,SYSVALUECOPY
000CD0	E052	LDI SYSVALUECOPY,2
000CD1	9350 035F	STS SIZE,SYSVALUECOPY
000CD3	940E 257A	CALL PRINT_SSD1289513
		ENDIF10
000CD5	9160 038C	LDS SYSWORDTEMPA,TP_X
000CD7	9170 038D	LDS SYSWORDTEMPA_H,TP_X_H
000CD9	E1C4	LDI SYSWORDTEMPB,20
000CDA	E0D0	LDI SYSWORDTEMPB_H,0
000CDB	940E 2A6D	CALL SYSCOMPLESSTHAN16
000CDD	9400	COM SYSBYTETEMPX
000CDE	2C60	MOV SYSTEMP1,SYSBYTETEMPX
000CDF	91C0 038C	LDS SYSWORDTEMPB,TP_X
000CE1	91D0 038D	LDS SYSWORDTEMPB_H,TP_X_H
000CE3	E862	LDI SYSWORDTEMPA,130
000CE4	E070	LDI SYSWORDTEMPA_H,0
000CE5	940E 2A6D	CALL SYSCOMPLESSTHAN16
000CE7	9400	COM SYSBYTETEMPX
000CE8	2CA0	MOV SYSTEMP2,SYSBYTETEMPX
000CE9	20A6	AND SYSTEMP2,SYSTEMP1
000CEA	2CEA	MOV SYSTEMP3,SYSTEMP2
000CEB	9160 038E	LDS SYSWORDTEMPA,TP_Y
000CED	9170 038F	LDS SYSWORDTEMPA_H,TP_Y_H
000CEF	EBC4	LDI SYSWORDTEMPB,180
000CF0	E0D0	LDI SYSWORDTEMPB_H,0
000CF1	940E 2A6D	CALL SYSCOMPLESSTHAN16
000CF3	9400	COM SYSBYTETEMPX
000CF4	2C60	MOV SYSTEMP1,SYSBYTETEMPX
000CF5	91C0 038E	LDS SYSWORDTEMPB,TP_Y
000CF7	91D0 038F	LDS SYSWORDTEMPB_H,TP_Y_H
000CF9	ED62	LDI SYSWORDTEMPA,210
000CFA	E070	LDI SYSWORDTEMPA_H,0
000CFB	940E 2A6D	CALL SYSCOMPLESSTHAN16
000CFD	9400	COM SYSBYTETEMPX
000CFE	2CA0	MOV SYSTEMP2,SYSBYTETEMPX
000CFF	20A6	AND SYSTEMP2,SYSTEMP1
000D00	2CFA	MOV SYSTEMP4,SYSTEMP2
000D01	20FE	AND SYSTEMP4,SYSTEMP3
000D02	2C6F	MOV SYSTEMP1,SYSTEMP4
000D03	FE60	SBRS SYSTEMP1,0
000D04	C0A6	RJMP ENDIF11
000D05	E154	LDI SYSVALUECOPY,20
000D06	9350 0357	STS RX1,SYSVALUECOPY
000D08	E050	LDI SYSVALUECOPY,0
000D09	9350 0358	STS RX1_H,SYSVALUECOPY
000D0B	EB54	LDI SYSVALUECOPY,180
000D0C	9350 035B	STS RY1,SYSVALUECOPY
000D0E	E050	LDI SYSVALUECOPY,0
000D0F	9350 035C	STS RY1_H,SYSVALUECOPY
000D11	E852	LDI SYSVALUECOPY,130
000D12	9350 0359	STS RX2,SYSVALUECOPY
000D14	E050	LDI SYSVALUECOPY,0
000D15	9350 035A	STS RX2_H,SYSVALUECOPY
000D17	ED52	LDI SYSVALUECOPY,210
000D18	9350 035D	STS RY2,SYSVALUECOPY
000D1A	E050	LDI SYSVALUECOPY,0
000D1B	9350 035E	STS RY2_H,SYSVALUECOPY
000D1D	E050	LDI SYSVALUECOPY,0
000D1E	9350 0304	STS COLOR,SYSVALUECOPY
000D20	EF58	LDI SYSVALUECOPY,248
000D21	9350 0305	STS COLOR_H,SYSVALUECOPY
000D23	940E 266F	CALL ROUNDRECT31
000D25	E6D4	LDI SYSWAITTEMPMS,100
000D26	E0E0	LDI SYSWAITTEMPMS_H,0
000D27	940E 1820	CALL DELAY_MS
000D29	E154	LDI SYSVALUECOPY,20
000D2A	9350 0357	STS RX1,SYSVALUECOPY
000D2C	E050	LDI SYSVALUECOPY,0
000D2D	9350 0358	STS RX1_H,SYSVALUECOPY
000D2F	EB54	LDI SYSVALUECOPY,180
000D30	9350 035B	STS RY1,SYSVALUECOPY
000D32	E050	LDI SYSVALUECOPY,0
000D33	9350 035C	STS RY1_H,SYSVALUECOPY
000D35	E852	LDI SYSVALUECOPY,130
000D36	9350 0359	STS RX2,SYSVALUECOPY
000D38	E050	LDI SYSVALUECOPY,0
000D39	9350 035A	STS RX2_H,SYSVALUECOPY
000D3B	ED52	LDI SYSVALUECOPY,210
000D3C	9350 035D	STS RY2,SYSVALUECOPY
000D3E	E050	LDI SYSVALUECOPY,0
000D3F	9350 035E	STS RY2_H,SYSVALUECOPY
000D41	EE50	LDI SYSVALUECOPY,224
000D42	9350 0304	STS COLOR,SYSVALUECOPY
000D44	EF5F	LDI SYSVALUECOPY,255
000D45	9350 0305	STS COLOR_H,SYSVALUECOPY
000D47	940E 266F	CALL ROUNDRECT31
000D49	E5C2	LDI SYSSTRINGB,LOW(TEMPTEXT)
000D4A	E0D2	LDI SYSSTRINGB_H,HIGH(TEMPTEXT)
000D4B	2799	CLR SYSSTRINGLENGTH
000D4C	9159	LD SYSVALUECOPY, Y+
000D4D	E5A2	LDI SYSSTRINGA,LOW(TEMPTEXT)
000D4E	E0B2	LDI SYSSTRINGA_H,HIGH(TEMPTEXT)
000D4F	940E 2AB3	CALL SYSCOPYSTRINGPART
000D51	E6EC	LDI SYSREADA,LOW(STRINGTABLE14<<1)
000D52	E5F9	LDI SYSREADA_H,HIGH(STRINGTABLE14<<1)
000D53	940E 2C92	CALL SYSREADSTRINGPART
000D55	E5A2	LDI SYSSTRINGA,LOW(TEMPTEXT)
000D56	E0B2	LDI SYSSTRINGA_H,HIGH(TEMPTEXT)
000D57	939C	ST X, SYSSTRINGLENGTH
000D58	9060 0310	LDS SYSTEMP1,DIG
000D5A	9463	INC SYSTEMP1
000D5B	9260 0310	STS DIG,SYSTEMP1
000D5D	E552	LDI SYSVALUECOPY,LOW(TEMPTEXT)
000D5E	9350 0384	STS SYSSYSINSTRINGHANDLER,SYSVALUECOPY
000D60	E052	LDI SYSVALUECOPY,HIGH(TEMPTEXT)
000D61	9350 0385	STS SYSSYSINSTRINGHANDLER_H,SYSVALUECOPY
000D63	E154	LDI SYSVALUECOPY,20
000D64	9350 036B	STS SYSCHARCOUNT,SYSVALUECOPY
000D66	940E 2610	CALL FN_RIGHT
000D68	E5C2	LDI SYSSTRINGB,LOW(TEMPTEXT)
000D69	E0D2	LDI SYSSTRINGB_H,HIGH(TEMPTEXT)
000D6A	E2A9	LDI SYSSTRINGA,LOW(RIGHT)
000D6B	E0B2	LDI SYSSTRINGA_H,HIGH(RIGHT)
000D6C	940E 2AB0	CALL SYSCOPYSTRING
000D6E	E156	LDI SYSVALUECOPY,22
000D6F	9350 033A	STS LINEX1,SYSVALUECOPY
000D71	E050	LDI SYSVALUECOPY,0
000D72	9350 033B	STS LINEX1_H,SYSVALUECOPY
000D74	E05C	LDI SYSVALUECOPY,12
000D75	9350 033E	STS LINEY1,SYSVALUECOPY
000D77	E050	LDI SYSVALUECOPY,0
000D78	9350 033F	STS LINEY1_H,SYSVALUECOPY
000D7A	E259	LDI SYSVALUECOPY,41
000D7B	9350 033C	STS LINEX2,SYSVALUECOPY
000D7D	E051	LDI SYSVALUECOPY,1
000D7E	9350 033D	STS LINEX2_H,SYSVALUECOPY
000D80	E350	LDI SYSVALUECOPY,48
000D81	9350 0340	STS LINEY2,SYSVALUECOPY
000D83	E050	LDI SYSVALUECOPY,0
000D84	9350 0341	STS LINEY2_H,SYSVALUECOPY
000D86	E15F	LDI SYSVALUECOPY,31
000D87	9350 032A	STS LINECOLOUR,SYSVALUECOPY
000D89	E050	LDI SYSVALUECOPY,0
000D8A	9350 032B	STS LINECOLOUR_H,SYSVALUECOPY
000D8C	940E 1832	CALL FILLEDBOX_SSD1289
000D8E	E25A	LDI SYSVALUECOPY,42
000D8F	9350 0346	STS PRINTLOCX,SYSVALUECOPY
000D91	E050	LDI SYSVALUECOPY,0
000D92	9350 0347	STS PRINTLOCX_H,SYSVALUECOPY
000D94	E154	LDI SYSVALUECOPY,20
000D95	9350 0348	STS PRINTLOCY,SYSVALUECOPY
000D97	E050	LDI SYSVALUECOPY,0
000D98	9350 0349	STS PRINTLOCY_H,SYSVALUECOPY
000D9A	E552	LDI SYSVALUECOPY,LOW(TEMPTEXT)
000D9B	9350 037B	STS SYSPRINTDATAHANDLER,SYSVALUECOPY
000D9D	E052	LDI SYSVALUECOPY,HIGH(TEMPTEXT)
000D9E	9350 037C	STS SYSPRINTDATAHANDLER_H,SYSVALUECOPY
000DA0	EE50	LDI SYSVALUECOPY,224
000DA1	9350 0322	STS GLCDFOREGROUND,SYSVALUECOPY
000DA3	EF5F	LDI SYSVALUECOPY,255
000DA4	9350 0323	STS GLCDFOREGROUND_H,SYSVALUECOPY
000DA6	E052	LDI SYSVALUECOPY,2
000DA7	9350 035F	STS SIZE,SYSVALUECOPY
000DA9	940E 257A	CALL PRINT_SSD1289513
		ENDIF11
000DAB	9160 038C	LDS SYSWORDTEMPA,TP_X
000DAD	9170 038D	LDS SYSWORDTEMPA_H,TP_X_H
000DAF	ECC8	LDI SYSWORDTEMPB,200
000DB0	E0D0	LDI SYSWORDTEMPB_H,0
000DB1	940E 2A6D	CALL SYSCOMPLESSTHAN16
000DB3	9400	COM SYSBYTETEMPX
000DB4	2C60	MOV SYSTEMP1,SYSBYTETEMPX
000DB5	91C0 038C	LDS SYSWORDTEMPB,TP_X
000DB7	91D0 038D	LDS SYSWORDTEMPB_H,TP_X_H
000DB9	EF6A	LDI SYSWORDTEMPA,250
000DBA	E070	LDI SYSWORDTEMPA_H,0
000DBB	940E 2A6D	CALL SYSCOMPLESSTHAN16
000DBD	9400	COM SYSBYTETEMPX
000DBE	2CA0	MOV SYSTEMP2,SYSBYTETEMPX
000DBF	20A6	AND SYSTEMP2,SYSTEMP1
000DC0	2CEA	MOV SYSTEMP3,SYSTEMP2
000DC1	9160 038E	LDS SYSWORDTEMPA,TP_Y
000DC3	9170 038F	LDS SYSWORDTEMPA_H,TP_Y_H
000DC5	EBC4	LDI SYSWORDTEMPB,180
000DC6	E0D0	LDI SYSWORDTEMPB_H,0
000DC7	940E 2A6D	CALL SYSCOMPLESSTHAN16
000DC9	9400	COM SYSBYTETEMPX
000DCA	2C60	MOV SYSTEMP1,SYSBYTETEMPX
000DCB	91C0 038E	LDS SYSWORDTEMPB,TP_Y
000DCD	91D0 038F	LDS SYSWORDTEMPB_H,TP_Y_H
000DCF	ED62	LDI SYSWORDTEMPA,210
000DD0	E070	LDI SYSWORDTEMPA_H,0
000DD1	940E 2A6D	CALL SYSCOMPLESSTHAN16
000DD3	9400	COM SYSBYTETEMPX
000DD4	2CA0	MOV SYSTEMP2,SYSBYTETEMPX
000DD5	20A6	AND SYSTEMP2,SYSTEMP1
000DD6	2CFA	MOV SYSTEMP4,SYSTEMP2
000DD7	20FE	AND SYSTEMP4,SYSTEMP3
000DD8	2C6F	MOV SYSTEMP1,SYSTEMP4
000DD9	FE60	SBRS SYSTEMP1,0
000DDA	C07C	RJMP ENDIF12
000DDB	EC58	LDI SYSVALUECOPY,200
000DDC	9350 0357	STS RX1,SYSVALUECOPY
000DDE	E050	LDI SYSVALUECOPY,0
000DDF	9350 0358	STS RX1_H,SYSVALUECOPY
000DE1	EB54	LDI SYSVALUECOPY,180
000DE2	9350 035B	STS RY1,SYSVALUECOPY
000DE4	E050	LDI SYSVALUECOPY,0
000DE5	9350 035C	STS RY1_H,SYSVALUECOPY
000DE7	EF5A	LDI SYSVALUECOPY,250
000DE8	9350 0359	STS RX2,SYSVALUECOPY
000DEA	E050	LDI SYSVALUECOPY,0
000DEB	9350 035A	STS RX2_H,SYSVALUECOPY
000DED	ED52	LDI SYSVALUECOPY,210
000DEE	9350 035D	STS RY2,SYSVALUECOPY
000DF0	E050	LDI SYSVALUECOPY,0
000DF1	9350 035E	STS RY2_H,SYSVALUECOPY
000DF3	E050	LDI SYSVALUECOPY,0
000DF4	9350 0304	STS COLOR,SYSVALUECOPY
000DF6	EF58	LDI SYSVALUECOPY,248
000DF7	9350 0305	STS COLOR_H,SYSVALUECOPY
000DF9	940E 266F	CALL ROUNDRECT31
000DFB	E6D4	LDI SYSWAITTEMPMS,100
000DFC	E0E0	LDI SYSWAITTEMPMS_H,0
000DFD	940E 1820	CALL DELAY_MS
000DFF	EC58	LDI SYSVALUECOPY,200
000E00	9350 0357	STS RX1,SYSVALUECOPY
000E02	E050	LDI SYSVALUECOPY,0
000E03	9350 0358	STS RX1_H,SYSVALUECOPY
000E05	EB54	LDI SYSVALUECOPY,180
000E06	9350 035B	STS RY1,SYSVALUECOPY
000E08	E050	LDI SYSVALUECOPY,0
000E09	9350 035C	STS RY1_H,SYSVALUECOPY
000E0B	EF5A	LDI SYSVALUECOPY,250
000E0C	9350 0359	STS RX2,SYSVALUECOPY
000E0E	E050	LDI SYSVALUECOPY,0
000E0F	9350 035A	STS RX2_H,SYSVALUECOPY
000E11	ED52	LDI SYSVALUECOPY,210
000E12	9350 035D	STS RY2,SYSVALUECOPY
000E14	E050	LDI SYSVALUECOPY,0
000E15	9350 035E	STS RY2_H,SYSVALUECOPY
000E17	EE50	LDI SYSVALUECOPY,224
000E18	9350 0304	STS COLOR,SYSVALUECOPY
000E1A	EF5F	LDI SYSVALUECOPY,255
000E1B	9350 0305	STS COLOR_H,SYSVALUECOPY
000E1D	940E 266F	CALL ROUNDRECT31
000E1F	9160 02F7	LDS SYSCALCTEMPA,CALC
000E21	2366	TST SYSCALCTEMPA
000E22	F5A1	BRNE ENDIF18
000E23	E050	LDI SYSVALUECOPY,LOW(RESTEXT)
000E24	9350 036D	STS SYSLENTEMPHANDLER,SYSVALUECOPY
000E26	E052	LDI SYSVALUECOPY,HIGH(RESTEXT)
000E27	9350 036E	STS SYSLENTEMPHANDLER_H,SYSVALUECOPY
000E29	940E 2399	CALL FN_LEN
000E2B	9160 0329	LDS SYSCALCTEMPA,LEN
000E2D	2366	TST SYSCALCTEMPA
000E2E	F4E1	BRNE ELSE23_1
000E2F	E552	LDI SYSVALUECOPY,LOW(TEMPTEXT)
000E30	9350 0384	STS SYSSYSINSTRINGHANDLER,SYSVALUECOPY
000E32	E052	LDI SYSVALUECOPY,HIGH(TEMPTEXT)
000E33	9350 0385	STS SYSSYSINSTRINGHANDLER_H,SYSVALUECOPY
000E35	9150 0310	LDS SYSVALUECOPY,DIG
000E37	9350 036B	STS SYSCHARCOUNT,SYSVALUECOPY
000E39	940E 2610	CALL FN_RIGHT
000E3B	E7CB	LDI SYSSTRINGB,LOW(TEXT1)
000E3C	E0D2	LDI SYSSTRINGB_H,HIGH(TEXT1)
000E3D	E2A9	LDI SYSSTRINGA,LOW(RIGHT)
000E3E	E0B2	LDI SYSSTRINGA_H,HIGH(RIGHT)
000E3F	940E 2AB0	CALL SYSCOPYSTRING
000E41	E050	LDI SYSVALUECOPY,0
000E42	9350 0310	STS DIG,SYSVALUECOPY
000E44	E5C2	LDI SYSSTRINGB,LOW(TEMPTEXT)
000E45	E0D2	LDI SYSSTRINGB_H,HIGH(TEMPTEXT)
000E46	EAE2	LDI SYSREADA,LOW(STRINGTABLE22<<1)
000E47	E5F9	LDI SYSREADA_H,HIGH(STRINGTABLE22<<1)
000E48	940E 2C8B	CALL SYSREADSTRING
000E4A	C009	RJMP ENDIF23
		ELSE23_1
000E4B	E7CB	LDI SYSSTRINGB,LOW(TEXT1)
000E4C	E0D2	LDI SYSSTRINGB_H,HIGH(TEXT1)
000E4D	E0A0	LDI SYSSTRINGA,LOW(RESTEXT)
000E4E	E0B2	LDI SYSSTRINGA_H,HIGH(RESTEXT)
000E4F	940E 2AB0	CALL SYSCOPYSTRING
000E51	E050	LDI SYSVALUECOPY,0
000E52	9350 0200	STS SYSRESTEXT_0,SYSVALUECOPY
		ENDIF23
000E54	E051	LDI SYSVALUECOPY,1
000E55	9350 02F7	STS CALC,SYSVALUECOPY
		ENDIF18
		ENDIF12
000E57	9160 038C	LDS SYSWORDTEMPA,TP_X
000E59	9170 038D	LDS SYSWORDTEMPA_H,TP_X_H
000E5B	ECC8	LDI SYSWORDTEMPB,200
000E5C	E0D0	LDI SYSWORDTEMPB_H,0
000E5D	940E 2A6D	CALL SYSCOMPLESSTHAN16
000E5F	9400	COM SYSBYTETEMPX
000E60	2C60	MOV SYSTEMP1,SYSBYTETEMPX
000E61	91C0 038C	LDS SYSWORDTEMPB,TP_X
000E63	91D0 038D	LDS SYSWORDTEMPB_H,TP_X_H
000E65	EF6A	LDI SYSWORDTEMPA,250
000E66	E070	LDI SYSWORDTEMPA_H,0
000E67	940E 2A6D	CALL SYSCOMPLESSTHAN16
000E69	9400	COM SYSBYTETEMPX
000E6A	2CA0	MOV SYSTEMP2,SYSBYTETEMPX
000E6B	20A6	AND SYSTEMP2,SYSTEMP1
000E6C	2CEA	MOV SYSTEMP3,SYSTEMP2
000E6D	9160 038E	LDS SYSWORDTEMPA,TP_Y
000E6F	9170 038F	LDS SYSWORDTEMPA_H,TP_Y_H
000E71	E8CC	LDI SYSWORDTEMPB,140
000E72	E0D0	LDI SYSWORDTEMPB_H,0
000E73	940E 2A6D	CALL SYSCOMPLESSTHAN16
000E75	9400	COM SYSBYTETEMPX
000E76	2C60	MOV SYSTEMP1,SYSBYTETEMPX
000E77	91C0 038E	LDS SYSWORDTEMPB,TP_Y
000E79	91D0 038F	LDS SYSWORDTEMPB_H,TP_Y_H
000E7B	EA6A	LDI SYSWORDTEMPA,170
000E7C	E070	LDI SYSWORDTEMPA_H,0
000E7D	940E 2A6D	CALL SYSCOMPLESSTHAN16
000E7F	9400	COM SYSBYTETEMPX
000E80	2CA0	MOV SYSTEMP2,SYSBYTETEMPX
000E81	20A6	AND SYSTEMP2,SYSTEMP1
000E82	2CFA	MOV SYSTEMP4,SYSTEMP2
000E83	20FE	AND SYSTEMP4,SYSTEMP3
000E84	2C6F	MOV SYSTEMP1,SYSTEMP4
000E85	FE60	SBRS SYSTEMP1,0
000E86	C07C	RJMP ENDIF13
000E87	EC58	LDI SYSVALUECOPY,200
000E88	9350 0357	STS RX1,SYSVALUECOPY
000E8A	E050	LDI SYSVALUECOPY,0
000E8B	9350 0358	STS RX1_H,SYSVALUECOPY
000E8D	E85C	LDI SYSVALUECOPY,140
000E8E	9350 035B	STS RY1,SYSVALUECOPY
000E90	E050	LDI SYSVALUECOPY,0
000E91	9350 035C	STS RY1_H,SYSVALUECOPY
000E93	EF5A	LDI SYSVALUECOPY,250
000E94	9350 0359	STS RX2,SYSVALUECOPY
000E96	E050	LDI SYSVALUECOPY,0
000E97	9350 035A	STS RX2_H,SYSVALUECOPY
000E99	EA5A	LDI SYSVALUECOPY,170
000E9A	9350 035D	STS RY2,SYSVALUECOPY
000E9C	E050	LDI SYSVALUECOPY,0
000E9D	9350 035E	STS RY2_H,SYSVALUECOPY
000E9F	E050	LDI SYSVALUECOPY,0
000EA0	9350 0304	STS COLOR,SYSVALUECOPY
000EA2	EF58	LDI SYSVALUECOPY,248
000EA3	9350 0305	STS COLOR_H,SYSVALUECOPY
000EA5	940E 266F	CALL ROUNDRECT31
000EA7	E6D4	LDI SYSWAITTEMPMS,100
000EA8	E0E0	LDI SYSWAITTEMPMS_H,0
000EA9	940E 1820	CALL DELAY_MS
000EAB	EC58	LDI SYSVALUECOPY,200
000EAC	9350 0357	STS RX1,SYSVALUECOPY
000EAE	E050	LDI SYSVALUECOPY,0
000EAF	9350 0358	STS RX1_H,SYSVALUECOPY
000EB1	E85C	LDI SYSVALUECOPY,140
000EB2	9350 035B	STS RY1,SYSVALUECOPY
000EB4	E050	LDI SYSVALUECOPY,0
000EB5	9350 035C	STS RY1_H,SYSVALUECOPY
000EB7	EF5A	LDI SYSVALUECOPY,250
000EB8	9350 0359	STS RX2,SYSVALUECOPY
000EBA	E050	LDI SYSVALUECOPY,0
000EBB	9350 035A	STS RX2_H,SYSVALUECOPY
000EBD	EA5A	LDI SYSVALUECOPY,170
000EBE	9350 035D	STS RY2,SYSVALUECOPY
000EC0	E050	LDI SYSVALUECOPY,0
000EC1	9350 035E	STS RY2_H,SYSVALUECOPY
000EC3	EE50	LDI SYSVALUECOPY,224
000EC4	9350 0304	STS COLOR,SYSVALUECOPY
000EC6	EF5F	LDI SYSVALUECOPY,255
000EC7	9350 0305	STS COLOR_H,SYSVALUECOPY
000EC9	940E 266F	CALL ROUNDRECT31
000ECB	9160 02F7	LDS SYSCALCTEMPA,CALC
000ECD	2366	TST SYSCALCTEMPA
000ECE	F5A1	BRNE ENDIF19
000ECF	E050	LDI SYSVALUECOPY,LOW(RESTEXT)
000ED0	9350 036D	STS SYSLENTEMPHANDLER,SYSVALUECOPY
000ED2	E052	LDI SYSVALUECOPY,HIGH(RESTEXT)
000ED3	9350 036E	STS SYSLENTEMPHANDLER_H,SYSVALUECOPY
000ED5	940E 2399	CALL FN_LEN
000ED7	9160 0329	LDS SYSCALCTEMPA,LEN
000ED9	2366	TST SYSCALCTEMPA
000EDA	F4E1	BRNE ELSE24_1
000EDB	E552	LDI SYSVALUECOPY,LOW(TEMPTEXT)
000EDC	9350 0384	STS SYSSYSINSTRINGHANDLER,SYSVALUECOPY
000EDE	E052	LDI SYSVALUECOPY,HIGH(TEMPTEXT)
000EDF	9350 0385	STS SYSSYSINSTRINGHANDLER_H,SYSVALUECOPY
000EE1	9150 0310	LDS SYSVALUECOPY,DIG
000EE3	9350 036B	STS SYSCHARCOUNT,SYSVALUECOPY
000EE5	940E 2610	CALL FN_RIGHT
000EE7	E7CB	LDI SYSSTRINGB,LOW(TEXT1)
000EE8	E0D2	LDI SYSSTRINGB_H,HIGH(TEXT1)
000EE9	E2A9	LDI SYSSTRINGA,LOW(RIGHT)
000EEA	E0B2	LDI SYSSTRINGA_H,HIGH(RIGHT)
000EEB	940E 2AB0	CALL SYSCOPYSTRING
000EED	E050	LDI SYSVALUECOPY,0
000EEE	9350 0310	STS DIG,SYSVALUECOPY
000EF0	E5C2	LDI SYSSTRINGB,LOW(TEMPTEXT)
000EF1	E0D2	LDI SYSSTRINGB_H,HIGH(TEMPTEXT)
000EF2	EAE2	LDI SYSREADA,LOW(STRINGTABLE22<<1)
000EF3	E5F9	LDI SYSREADA_H,HIGH(STRINGTABLE22<<1)
000EF4	940E 2C8B	CALL SYSREADSTRING
000EF6	C009	RJMP ENDIF24
		ELSE24_1
000EF7	E7CB	LDI SYSSTRINGB,LOW(TEXT1)
000EF8	E0D2	LDI SYSSTRINGB_H,HIGH(TEXT1)
000EF9	E0A0	LDI SYSSTRINGA,LOW(RESTEXT)
000EFA	E0B2	LDI SYSSTRINGA_H,HIGH(RESTEXT)
000EFB	940E 2AB0	CALL SYSCOPYSTRING
000EFD	E050	LDI SYSVALUECOPY,0
000EFE	9350 0200	STS SYSRESTEXT_0,SYSVALUECOPY
		ENDIF24
000F00	E052	LDI SYSVALUECOPY,2
000F01	9350 02F7	STS CALC,SYSVALUECOPY
		ENDIF19
		ENDIF13
000F03	9160 038C	LDS SYSWORDTEMPA,TP_X
000F05	9170 038D	LDS SYSWORDTEMPA_H,TP_X_H
000F07	ECC8	LDI SYSWORDTEMPB,200
000F08	E0D0	LDI SYSWORDTEMPB_H,0
000F09	940E 2A6D	CALL SYSCOMPLESSTHAN16
000F0B	9400	COM SYSBYTETEMPX
000F0C	2C60	MOV SYSTEMP1,SYSBYTETEMPX
000F0D	91C0 038C	LDS SYSWORDTEMPB,TP_X
000F0F	91D0 038D	LDS SYSWORDTEMPB_H,TP_X_H
000F11	EF6A	LDI SYSWORDTEMPA,250
000F12	E070	LDI SYSWORDTEMPA_H,0
000F13	940E 2A6D	CALL SYSCOMPLESSTHAN16
000F15	9400	COM SYSBYTETEMPX
000F16	2CA0	MOV SYSTEMP2,SYSBYTETEMPX
000F17	20A6	AND SYSTEMP2,SYSTEMP1
000F18	2CEA	MOV SYSTEMP3,SYSTEMP2
000F19	9160 038E	LDS SYSWORDTEMPA,TP_Y
000F1B	9170 038F	LDS SYSWORDTEMPA_H,TP_Y_H
000F1D	E6C4	LDI SYSWORDTEMPB,100
000F1E	E0D0	LDI SYSWORDTEMPB_H,0
000F1F	940E 2A6D	CALL SYSCOMPLESSTHAN16
000F21	9400	COM SYSBYTETEMPX
000F22	2C60	MOV SYSTEMP1,SYSBYTETEMPX
000F23	91C0 038E	LDS SYSWORDTEMPB,TP_Y
000F25	91D0 038F	LDS SYSWORDTEMPB_H,TP_Y_H
000F27	E862	LDI SYSWORDTEMPA,130
000F28	E070	LDI SYSWORDTEMPA_H,0
000F29	940E 2A6D	CALL SYSCOMPLESSTHAN16
000F2B	9400	COM SYSBYTETEMPX
000F2C	2CA0	MOV SYSTEMP2,SYSBYTETEMPX
000F2D	20A6	AND SYSTEMP2,SYSTEMP1
000F2E	2CFA	MOV SYSTEMP4,SYSTEMP2
000F2F	20FE	AND SYSTEMP4,SYSTEMP3
000F30	2C6F	MOV SYSTEMP1,SYSTEMP4
000F31	FE60	SBRS SYSTEMP1,0
000F32	C07C	RJMP ENDIF14
000F33	EC58	LDI SYSVALUECOPY,200
000F34	9350 0357	STS RX1,SYSVALUECOPY
000F36	E050	LDI SYSVALUECOPY,0
000F37	9350 0358	STS RX1_H,SYSVALUECOPY
000F39	E654	LDI SYSVALUECOPY,100
000F3A	9350 035B	STS RY1,SYSVALUECOPY
000F3C	E050	LDI SYSVALUECOPY,0
000F3D	9350 035C	STS RY1_H,SYSVALUECOPY
000F3F	EF5A	LDI SYSVALUECOPY,250
000F40	9350 0359	STS RX2,SYSVALUECOPY
000F42	E050	LDI SYSVALUECOPY,0
000F43	9350 035A	STS RX2_H,SYSVALUECOPY
000F45	E852	LDI SYSVALUECOPY,130
000F46	9350 035D	STS RY2,SYSVALUECOPY
000F48	E050	LDI SYSVALUECOPY,0
000F49	9350 035E	STS RY2_H,SYSVALUECOPY
000F4B	E050	LDI SYSVALUECOPY,0
000F4C	9350 0304	STS COLOR,SYSVALUECOPY
000F4E	EF58	LDI SYSVALUECOPY,248
000F4F	9350 0305	STS COLOR_H,SYSVALUECOPY
000F51	940E 266F	CALL ROUNDRECT31
000F53	E6D4	LDI SYSWAITTEMPMS,100
000F54	E0E0	LDI SYSWAITTEMPMS_H,0
000F55	940E 1820	CALL DELAY_MS
000F57	EC58	LDI SYSVALUECOPY,200
000F58	9350 0357	STS RX1,SYSVALUECOPY
000F5A	E050	LDI SYSVALUECOPY,0
000F5B	9350 0358	STS RX1_H,SYSVALUECOPY
000F5D	E654	LDI SYSVALUECOPY,100
000F5E	9350 035B	STS RY1,SYSVALUECOPY
000F60	E050	LDI SYSVALUECOPY,0
000F61	9350 035C	STS RY1_H,SYSVALUECOPY
000F63	EF5A	LDI SYSVALUECOPY,250
000F64	9350 0359	STS RX2,SYSVALUECOPY
000F66	E050	LDI SYSVALUECOPY,0
000F67	9350 035A	STS RX2_H,SYSVALUECOPY
000F69	E852	LDI SYSVALUECOPY,130
000F6A	9350 035D	STS RY2,SYSVALUECOPY
000F6C	E050	LDI SYSVALUECOPY,0
000F6D	9350 035E	STS RY2_H,SYSVALUECOPY
000F6F	EE50	LDI SYSVALUECOPY,224
000F70	9350 0304	STS COLOR,SYSVALUECOPY
000F72	EF5F	LDI SYSVALUECOPY,255
000F73	9350 0305	STS COLOR_H,SYSVALUECOPY
000F75	940E 266F	CALL ROUNDRECT31
000F77	9160 02F7	LDS SYSCALCTEMPA,CALC
000F79	2366	TST SYSCALCTEMPA
000F7A	F5A1	BRNE ENDIF20
000F7B	E050	LDI SYSVALUECOPY,LOW(RESTEXT)
000F7C	9350 036D	STS SYSLENTEMPHANDLER,SYSVALUECOPY
000F7E	E052	LDI SYSVALUECOPY,HIGH(RESTEXT)
000F7F	9350 036E	STS SYSLENTEMPHANDLER_H,SYSVALUECOPY
000F81	940E 2399	CALL FN_LEN
000F83	9160 0329	LDS SYSCALCTEMPA,LEN
000F85	2366	TST SYSCALCTEMPA
000F86	F4E1	BRNE ELSE25_1
000F87	E552	LDI SYSVALUECOPY,LOW(TEMPTEXT)
000F88	9350 0384	STS SYSSYSINSTRINGHANDLER,SYSVALUECOPY
000F8A	E052	LDI SYSVALUECOPY,HIGH(TEMPTEXT)
000F8B	9350 0385	STS SYSSYSINSTRINGHANDLER_H,SYSVALUECOPY
000F8D	9150 0310	LDS SYSVALUECOPY,DIG
000F8F	9350 036B	STS SYSCHARCOUNT,SYSVALUECOPY
000F91	940E 2610	CALL FN_RIGHT
000F93	E7CB	LDI SYSSTRINGB,LOW(TEXT1)
000F94	E0D2	LDI SYSSTRINGB_H,HIGH(TEXT1)
000F95	E2A9	LDI SYSSTRINGA,LOW(RIGHT)
000F96	E0B2	LDI SYSSTRINGA_H,HIGH(RIGHT)
000F97	940E 2AB0	CALL SYSCOPYSTRING
000F99	E050	LDI SYSVALUECOPY,0
000F9A	9350 0310	STS DIG,SYSVALUECOPY
000F9C	E5C2	LDI SYSSTRINGB,LOW(TEMPTEXT)
000F9D	E0D2	LDI SYSSTRINGB_H,HIGH(TEMPTEXT)
000F9E	EAE2	LDI SYSREADA,LOW(STRINGTABLE22<<1)
000F9F	E5F9	LDI SYSREADA_H,HIGH(STRINGTABLE22<<1)
000FA0	940E 2C8B	CALL SYSREADSTRING
000FA2	C009	RJMP ENDIF25
		ELSE25_1
000FA3	E7CB	LDI SYSSTRINGB,LOW(TEXT1)
000FA4	E0D2	LDI SYSSTRINGB_H,HIGH(TEXT1)
000FA5	E0A0	LDI SYSSTRINGA,LOW(RESTEXT)
000FA6	E0B2	LDI SYSSTRINGA_H,HIGH(RESTEXT)
000FA7	940E 2AB0	CALL SYSCOPYSTRING
000FA9	E050	LDI SYSVALUECOPY,0
000FAA	9350 0200	STS SYSRESTEXT_0,SYSVALUECOPY
		ENDIF25
000FAC	E053	LDI SYSVALUECOPY,3
000FAD	9350 02F7	STS CALC,SYSVALUECOPY
		ENDIF20
		ENDIF14
000FAF	9160 038C	LDS SYSWORDTEMPA,TP_X
000FB1	9170 038D	LDS SYSWORDTEMPA_H,TP_X_H
000FB3	ECC8	LDI SYSWORDTEMPB,200
000FB4	E0D0	LDI SYSWORDTEMPB_H,0
000FB5	940E 2A6D	CALL SYSCOMPLESSTHAN16
000FB7	9400	COM SYSBYTETEMPX
000FB8	2C60	MOV SYSTEMP1,SYSBYTETEMPX
000FB9	91C0 038C	LDS SYSWORDTEMPB,TP_X
000FBB	91D0 038D	LDS SYSWORDTEMPB_H,TP_X_H
000FBD	EF6A	LDI SYSWORDTEMPA,250
000FBE	E070	LDI SYSWORDTEMPA_H,0
000FBF	940E 2A6D	CALL SYSCOMPLESSTHAN16
000FC1	9400	COM SYSBYTETEMPX
000FC2	2CA0	MOV SYSTEMP2,SYSBYTETEMPX
000FC3	20A6	AND SYSTEMP2,SYSTEMP1
000FC4	2CEA	MOV SYSTEMP3,SYSTEMP2
000FC5	9160 038E	LDS SYSWORDTEMPA,TP_Y
000FC7	9170 038F	LDS SYSWORDTEMPA_H,TP_Y_H
000FC9	E3CC	LDI SYSWORDTEMPB,60
000FCA	E0D0	LDI SYSWORDTEMPB_H,0
000FCB	940E 2A6D	CALL SYSCOMPLESSTHAN16
000FCD	9400	COM SYSBYTETEMPX
000FCE	2C60	MOV SYSTEMP1,SYSBYTETEMPX
000FCF	91C0 038E	LDS SYSWORDTEMPB,TP_Y
000FD1	91D0 038F	LDS SYSWORDTEMPB_H,TP_Y_H
000FD3	E56A	LDI SYSWORDTEMPA,90
000FD4	E070	LDI SYSWORDTEMPA_H,0
000FD5	940E 2A6D	CALL SYSCOMPLESSTHAN16
000FD7	9400	COM SYSBYTETEMPX
000FD8	2CA0	MOV SYSTEMP2,SYSBYTETEMPX
000FD9	20A6	AND SYSTEMP2,SYSTEMP1
000FDA	2CFA	MOV SYSTEMP4,SYSTEMP2
000FDB	20FE	AND SYSTEMP4,SYSTEMP3
000FDC	2C6F	MOV SYSTEMP1,SYSTEMP4
000FDD	FE60	SBRS SYSTEMP1,0
000FDE	C07C	RJMP ENDIF15
000FDF	EC58	LDI SYSVALUECOPY,200
000FE0	9350 0357	STS RX1,SYSVALUECOPY
000FE2	E050	LDI SYSVALUECOPY,0
000FE3	9350 0358	STS RX1_H,SYSVALUECOPY
000FE5	E35C	LDI SYSVALUECOPY,60
000FE6	9350 035B	STS RY1,SYSVALUECOPY
000FE8	E050	LDI SYSVALUECOPY,0
000FE9	9350 035C	STS RY1_H,SYSVALUECOPY
000FEB	EF5A	LDI SYSVALUECOPY,250
000FEC	9350 0359	STS RX2,SYSVALUECOPY
000FEE	E050	LDI SYSVALUECOPY,0
000FEF	9350 035A	STS RX2_H,SYSVALUECOPY
000FF1	E55A	LDI SYSVALUECOPY,90
000FF2	9350 035D	STS RY2,SYSVALUECOPY
000FF4	E050	LDI SYSVALUECOPY,0
000FF5	9350 035E	STS RY2_H,SYSVALUECOPY
000FF7	E050	LDI SYSVALUECOPY,0
000FF8	9350 0304	STS COLOR,SYSVALUECOPY
000FFA	EF58	LDI SYSVALUECOPY,248
000FFB	9350 0305	STS COLOR_H,SYSVALUECOPY
000FFD	940E 266F	CALL ROUNDRECT31
000FFF	E6D4	LDI SYSWAITTEMPMS,100
001000	E0E0	LDI SYSWAITTEMPMS_H,0
001001	940E 1820	CALL DELAY_MS
001003	EC58	LDI SYSVALUECOPY,200
001004	9350 0357	STS RX1,SYSVALUECOPY
001006	E050	LDI SYSVALUECOPY,0
001007	9350 0358	STS RX1_H,SYSVALUECOPY
001009	E35C	LDI SYSVALUECOPY,60
00100A	9350 035B	STS RY1,SYSVALUECOPY
00100C	E050	LDI SYSVALUECOPY,0
00100D	9350 035C	STS RY1_H,SYSVALUECOPY
00100F	EF5A	LDI SYSVALUECOPY,250
001010	9350 0359	STS RX2,SYSVALUECOPY
001012	E050	LDI SYSVALUECOPY,0
001013	9350 035A	STS RX2_H,SYSVALUECOPY
001015	E55A	LDI SYSVALUECOPY,90
001016	9350 035D	STS RY2,SYSVALUECOPY
001018	E050	LDI SYSVALUECOPY,0
001019	9350 035E	STS RY2_H,SYSVALUECOPY
00101B	EE50	LDI SYSVALUECOPY,224
00101C	9350 0304	STS COLOR,SYSVALUECOPY
00101E	EF5F	LDI SYSVALUECOPY,255
00101F	9350 0305	STS COLOR_H,SYSVALUECOPY
001021	940E 266F	CALL ROUNDRECT31
001023	9160 02F7	LDS SYSCALCTEMPA,CALC
001025	2366	TST SYSCALCTEMPA
001026	F5A1	BRNE ENDIF21
001027	E050	LDI SYSVALUECOPY,LOW(RESTEXT)
001028	9350 036D	STS SYSLENTEMPHANDLER,SYSVALUECOPY
00102A	E052	LDI SYSVALUECOPY,HIGH(RESTEXT)
00102B	9350 036E	STS SYSLENTEMPHANDLER_H,SYSVALUECOPY
00102D	940E 2399	CALL FN_LEN
00102F	9160 0329	LDS SYSCALCTEMPA,LEN
001031	2366	TST SYSCALCTEMPA
001032	F4E1	BRNE ELSE26_1
001033	E552	LDI SYSVALUECOPY,LOW(TEMPTEXT)
001034	9350 0384	STS SYSSYSINSTRINGHANDLER,SYSVALUECOPY
001036	E052	LDI SYSVALUECOPY,HIGH(TEMPTEXT)
001037	9350 0385	STS SYSSYSINSTRINGHANDLER_H,SYSVALUECOPY
001039	9150 0310	LDS SYSVALUECOPY,DIG
00103B	9350 036B	STS SYSCHARCOUNT,SYSVALUECOPY
00103D	940E 2610	CALL FN_RIGHT
00103F	E7CB	LDI SYSSTRINGB,LOW(TEXT1)
001040	E0D2	LDI SYSSTRINGB_H,HIGH(TEXT1)
001041	E2A9	LDI SYSSTRINGA,LOW(RIGHT)
001042	E0B2	LDI SYSSTRINGA_H,HIGH(RIGHT)
001043	940E 2AB0	CALL SYSCOPYSTRING
001045	E050	LDI SYSVALUECOPY,0
001046	9350 0310	STS DIG,SYSVALUECOPY
001048	E5C2	LDI SYSSTRINGB,LOW(TEMPTEXT)
001049	E0D2	LDI SYSSTRINGB_H,HIGH(TEMPTEXT)
00104A	EAE2	LDI SYSREADA,LOW(STRINGTABLE22<<1)
00104B	E5F9	LDI SYSREADA_H,HIGH(STRINGTABLE22<<1)
00104C	940E 2C8B	CALL SYSREADSTRING
00104E	C009	RJMP ENDIF26
		ELSE26_1
00104F	E7CB	LDI SYSSTRINGB,LOW(TEXT1)
001050	E0D2	LDI SYSSTRINGB_H,HIGH(TEXT1)
001051	E0A0	LDI SYSSTRINGA,LOW(RESTEXT)
001052	E0B2	LDI SYSSTRINGA_H,HIGH(RESTEXT)
001053	940E 2AB0	CALL SYSCOPYSTRING
001055	E050	LDI SYSVALUECOPY,0
001056	9350 0200	STS SYSRESTEXT_0,SYSVALUECOPY
		ENDIF26
001058	E054	LDI SYSVALUECOPY,4
001059	9350 02F7	STS CALC,SYSVALUECOPY
		ENDIF21
		ENDIF15
00105B	9160 038C	LDS SYSWORDTEMPA,TP_X
00105D	9170 038D	LDS SYSWORDTEMPA_H,TP_X_H
00105F	E0C4	LDI SYSWORDTEMPB,4
001060	E0D1	LDI SYSWORDTEMPB_H,1
001061	940E 2A6D	CALL SYSCOMPLESSTHAN16
001063	9400	COM SYSBYTETEMPX
001064	2C60	MOV SYSTEMP1,SYSBYTETEMPX
001065	91C0 038C	LDS SYSWORDTEMPB,TP_X
001067	91D0 038D	LDS SYSWORDTEMPB_H,TP_X_H
001069	E26B	LDI SYSWORDTEMPA,43
00106A	E071	LDI SYSWORDTEMPA_H,1
00106B	940E 2A6D	CALL SYSCOMPLESSTHAN16
00106D	9400	COM SYSBYTETEMPX
00106E	2CA0	MOV SYSTEMP2,SYSBYTETEMPX
00106F	20A6	AND SYSTEMP2,SYSTEMP1
001070	2CEA	MOV SYSTEMP3,SYSTEMP2
001071	9160 038E	LDS SYSWORDTEMPA,TP_Y
001073	9170 038F	LDS SYSWORDTEMPA_H,TP_Y_H
001075	E3CC	LDI SYSWORDTEMPB,60
001076	E0D0	LDI SYSWORDTEMPB_H,0
001077	940E 2A6D	CALL SYSCOMPLESSTHAN16
001079	9400	COM SYSBYTETEMPX
00107A	2C60	MOV SYSTEMP1,SYSBYTETEMPX
00107B	91C0 038E	LDS SYSWORDTEMPB,TP_Y
00107D	91D0 038F	LDS SYSWORDTEMPB_H,TP_Y_H
00107F	E862	LDI SYSWORDTEMPA,130
001080	E070	LDI SYSWORDTEMPA_H,0
001081	940E 2A6D	CALL SYSCOMPLESSTHAN16
001083	9400	COM SYSBYTETEMPX
001084	2CA0	MOV SYSTEMP2,SYSBYTETEMPX
001085	20A6	AND SYSTEMP2,SYSTEMP1
001086	2CFA	MOV SYSTEMP4,SYSTEMP2
001087	20FE	AND SYSTEMP4,SYSTEMP3
001088	2C6F	MOV SYSTEMP1,SYSTEMP4
001089	FE60	SBRS SYSTEMP1,0
00108A	C093	RJMP ENDIF16
00108B	E054	LDI SYSVALUECOPY,4
00108C	9350 0357	STS RX1,SYSVALUECOPY
00108E	E051	LDI SYSVALUECOPY,1
00108F	9350 0358	STS RX1_H,SYSVALUECOPY
001091	E35C	LDI SYSVALUECOPY,60
001092	9350 035B	STS RY1,SYSVALUECOPY
001094	E050	LDI SYSVALUECOPY,0
001095	9350 035C	STS RY1_H,SYSVALUECOPY
001097	E25B	LDI SYSVALUECOPY,43
001098	9350 0359	STS RX2,SYSVALUECOPY
00109A	E051	LDI SYSVALUECOPY,1
00109B	9350 035A	STS RX2_H,SYSVALUECOPY
00109D	E852	LDI SYSVALUECOPY,130
00109E	9350 035D	STS RY2,SYSVALUECOPY
0010A0	E050	LDI SYSVALUECOPY,0
0010A1	9350 035E	STS RY2_H,SYSVALUECOPY
0010A3	E050	LDI SYSVALUECOPY,0
0010A4	9350 0304	STS COLOR,SYSVALUECOPY
0010A6	EF58	LDI SYSVALUECOPY,248
0010A7	9350 0305	STS COLOR_H,SYSVALUECOPY
0010A9	940E 266F	CALL ROUNDRECT31
0010AB	E6D4	LDI SYSWAITTEMPMS,100
0010AC	E0E0	LDI SYSWAITTEMPMS_H,0
0010AD	D772	RCALL DELAY_MS
0010AE	E054	LDI SYSVALUECOPY,4
0010AF	9350 0357	STS RX1,SYSVALUECOPY
0010B1	E051	LDI SYSVALUECOPY,1
0010B2	9350 0358	STS RX1_H,SYSVALUECOPY
0010B4	E35C	LDI SYSVALUECOPY,60
0010B5	9350 035B	STS RY1,SYSVALUECOPY
0010B7	E050	LDI SYSVALUECOPY,0
0010B8	9350 035C	STS RY1_H,SYSVALUECOPY
0010BA	E25B	LDI SYSVALUECOPY,43
0010BB	9350 0359	STS RX2,SYSVALUECOPY
0010BD	E051	LDI SYSVALUECOPY,1
0010BE	9350 035A	STS RX2_H,SYSVALUECOPY
0010C0	E852	LDI SYSVALUECOPY,130
0010C1	9350 035D	STS RY2,SYSVALUECOPY
0010C3	E050	LDI SYSVALUECOPY,0
0010C4	9350 035E	STS RY2_H,SYSVALUECOPY
0010C6	EE50	LDI SYSVALUECOPY,224
0010C7	9350 0304	STS COLOR,SYSVALUECOPY
0010C9	EF5F	LDI SYSVALUECOPY,255
0010CA	9350 0305	STS COLOR_H,SYSVALUECOPY
0010CC	940E 266F	CALL ROUNDRECT31
0010CE	E7CB	LDI SYSSTRINGB,LOW(TEXT1)
0010CF	E0D2	LDI SYSSTRINGB_H,HIGH(TEXT1)
0010D0	EAE0	LDI SYSREADA,LOW(STRINGTABLE21<<1)
0010D1	E5F9	LDI SYSREADA_H,HIGH(STRINGTABLE21<<1)
0010D2	940E 2C8B	CALL SYSREADSTRING
0010D4	EAC4	LDI SYSSTRINGB,LOW(TEXT2)
0010D5	E0D2	LDI SYSSTRINGB_H,HIGH(TEXT2)
0010D6	EAE0	LDI SYSREADA,LOW(STRINGTABLE21<<1)
0010D7	E5F9	LDI SYSREADA_H,HIGH(STRINGTABLE21<<1)
0010D8	940E 2C8B	CALL SYSREADSTRING
0010DA	E050	LDI SYSVALUECOPY,0
0010DB	9350 02F7	STS CALC,SYSVALUECOPY
0010DD	E050	LDI SYSVALUECOPY,0
0010DE	9350 0310	STS DIG,SYSVALUECOPY
0010E0	E050	LDI SYSVALUECOPY,0
0010E1	9350 0396	STS VAL1,SYSVALUECOPY
0010E3	9350 0397	STS VAL1_H,SYSVALUECOPY
0010E5	9350 0398	STS VAL1_U,SYSVALUECOPY
0010E7	9350 0399	STS VAL1_E,SYSVALUECOPY
0010E9	E050	LDI SYSVALUECOPY,0
0010EA	9350 039A	STS VAL2,SYSVALUECOPY
0010EC	9350 039B	STS VAL2_H,SYSVALUECOPY
0010EE	9350 039C	STS VAL2_U,SYSVALUECOPY
0010F0	9350 039D	STS VAL2_E,SYSVALUECOPY
0010F2	E5C2	LDI SYSSTRINGB,LOW(TEMPTEXT)
0010F3	E0D2	LDI SYSSTRINGB_H,HIGH(TEMPTEXT)
0010F4	EBE8	LDI SYSREADA,LOW(STRINGTABLE23<<1)
0010F5	E5F9	LDI SYSREADA_H,HIGH(STRINGTABLE23<<1)
0010F6	940E 2C8B	CALL SYSREADSTRING
0010F8	E25A	LDI SYSVALUECOPY,42
0010F9	9350 0346	STS PRINTLOCX,SYSVALUECOPY
0010FB	E050	LDI SYSVALUECOPY,0
0010FC	9350 0347	STS PRINTLOCX_H,SYSVALUECOPY
0010FE	E154	LDI SYSVALUECOPY,20
0010FF	9350 0348	STS PRINTLOCY,SYSVALUECOPY
001101	E050	LDI SYSVALUECOPY,0
001102	9350 0349	STS PRINTLOCY_H,SYSVALUECOPY
001104	E552	LDI SYSVALUECOPY,LOW(TEMPTEXT)
001105	9350 037B	STS SYSPRINTDATAHANDLER,SYSVALUECOPY
001107	E052	LDI SYSVALUECOPY,HIGH(TEMPTEXT)
001108	9350 037C	STS SYSPRINTDATAHANDLER_H,SYSVALUECOPY
00110A	EE50	LDI SYSVALUECOPY,224
00110B	9350 0322	STS GLCDFOREGROUND,SYSVALUECOPY
00110D	EF5F	LDI SYSVALUECOPY,255
00110E	9350 0323	STS GLCDFOREGROUND_H,SYSVALUECOPY
001110	E052	LDI SYSVALUECOPY,2
001111	9350 035F	STS SIZE,SYSVALUECOPY
001113	940E 257A	CALL PRINT_SSD1289513
001115	E5C2	LDI SYSSTRINGB,LOW(TEMPTEXT)
001116	E0D2	LDI SYSSTRINGB_H,HIGH(TEMPTEXT)
001117	EAE2	LDI SYSREADA,LOW(STRINGTABLE22<<1)
001118	E5F9	LDI SYSREADA_H,HIGH(STRINGTABLE22<<1)
001119	940E 2C8B	CALL SYSREADSTRING
00111B	E050	LDI SYSVALUECOPY,0
00111C	9350 0200	STS SYSRESTEXT_0,SYSVALUECOPY
		ENDIF16
00111E	9160 038C	LDS SYSWORDTEMPA,TP_X
001120	9170 038D	LDS SYSWORDTEMPA_H,TP_X_H
001122	E0C4	LDI SYSWORDTEMPB,4
001123	E0D1	LDI SYSWORDTEMPB_H,1
001124	940E 2A6D	CALL SYSCOMPLESSTHAN16
001126	9400	COM SYSBYTETEMPX
001127	2C60	MOV SYSTEMP1,SYSBYTETEMPX
001128	91C0 038C	LDS SYSWORDTEMPB,TP_X
00112A	91D0 038D	LDS SYSWORDTEMPB_H,TP_X_H
00112C	E26B	LDI SYSWORDTEMPA,43
00112D	E071	LDI SYSWORDTEMPA_H,1
00112E	940E 2A6D	CALL SYSCOMPLESSTHAN16
001130	9400	COM SYSBYTETEMPX
001131	2CA0	MOV SYSTEMP2,SYSBYTETEMPX
001132	20A6	AND SYSTEMP2,SYSTEMP1
001133	2CEA	MOV SYSTEMP3,SYSTEMP2
001134	9160 038E	LDS SYSWORDTEMPA,TP_Y
001136	9170 038F	LDS SYSWORDTEMPA_H,TP_Y_H
001138	E8CC	LDI SYSWORDTEMPB,140
001139	E0D0	LDI SYSWORDTEMPB_H,0
00113A	940E 2A6D	CALL SYSCOMPLESSTHAN16
00113C	9400	COM SYSBYTETEMPX
00113D	2C60	MOV SYSTEMP1,SYSBYTETEMPX
00113E	91C0 038E	LDS SYSWORDTEMPB,TP_Y
001140	91D0 038F	LDS SYSWORDTEMPB_H,TP_Y_H
001142	ED62	LDI SYSWORDTEMPA,210
001143	E070	LDI SYSWORDTEMPA_H,0
001144	940E 2A6D	CALL SYSCOMPLESSTHAN16
001146	9400	COM SYSBYTETEMPX
001147	2CA0	MOV SYSTEMP2,SYSBYTETEMPX
001148	20A6	AND SYSTEMP2,SYSTEMP1
001149	2CFA	MOV SYSTEMP4,SYSTEMP2
00114A	20FE	AND SYSTEMP4,SYSTEMP3
00114B	2C6F	MOV SYSTEMP1,SYSTEMP4
00114C	FE60	SBRS SYSTEMP1,0
00114D	C316	RJMP ENDIF17
00114E	E054	LDI SYSVALUECOPY,4
00114F	9350 0357	STS RX1,SYSVALUECOPY
001151	E051	LDI SYSVALUECOPY,1
001152	9350 0358	STS RX1_H,SYSVALUECOPY
001154	E85C	LDI SYSVALUECOPY,140
001155	9350 035B	STS RY1,SYSVALUECOPY
001157	E050	LDI SYSVALUECOPY,0
001158	9350 035C	STS RY1_H,SYSVALUECOPY
00115A	E25B	LDI SYSVALUECOPY,43
00115B	9350 0359	STS RX2,SYSVALUECOPY
00115D	E051	LDI SYSVALUECOPY,1
00115E	9350 035A	STS RX2_H,SYSVALUECOPY
001160	ED52	LDI SYSVALUECOPY,210
001161	9350 035D	STS RY2,SYSVALUECOPY
001163	E050	LDI SYSVALUECOPY,0
001164	9350 035E	STS RY2_H,SYSVALUECOPY
001166	E050	LDI SYSVALUECOPY,0
001167	9350 0304	STS COLOR,SYSVALUECOPY
001169	EF58	LDI SYSVALUECOPY,248
00116A	9350 0305	STS COLOR_H,SYSVALUECOPY
00116C	940E 266F	CALL ROUNDRECT31
00116E	E6D4	LDI SYSWAITTEMPMS,100
00116F	E0E0	LDI SYSWAITTEMPMS_H,0
001170	D6AF	RCALL DELAY_MS
001171	E054	LDI SYSVALUECOPY,4
001172	9350 0357	STS RX1,SYSVALUECOPY
001174	E051	LDI SYSVALUECOPY,1
001175	9350 0358	STS RX1_H,SYSVALUECOPY
001177	E85C	LDI SYSVALUECOPY,140
001178	9350 035B	STS RY1,SYSVALUECOPY
00117A	E050	LDI SYSVALUECOPY,0
00117B	9350 035C	STS RY1_H,SYSVALUECOPY
00117D	E25B	LDI SYSVALUECOPY,43
00117E	9350 0359	STS RX2,SYSVALUECOPY
001180	E051	LDI SYSVALUECOPY,1
001181	9350 035A	STS RX2_H,SYSVALUECOPY
001183	ED52	LDI SYSVALUECOPY,210
001184	9350 035D	STS RY2,SYSVALUECOPY
001186	E050	LDI SYSVALUECOPY,0
001187	9350 035E	STS RY2_H,SYSVALUECOPY
001189	EE50	LDI SYSVALUECOPY,224
00118A	9350 0304	STS COLOR,SYSVALUECOPY
00118C	EF5F	LDI SYSVALUECOPY,255
00118D	9350 0305	STS COLOR_H,SYSVALUECOPY
00118F	940E 266F	CALL ROUNDRECT31
001191	9160 02F7	LDS SYSCALCTEMPA,CALC
001193	2366	TST SYSCALCTEMPA
001194	F409	BRNE PC + 2
001195	C2CE	RJMP ENDIF22
001196	E552	LDI SYSVALUECOPY,LOW(TEMPTEXT)
001197	9350 0384	STS SYSSYSINSTRINGHANDLER,SYSVALUECOPY
001199	E052	LDI SYSVALUECOPY,HIGH(TEMPTEXT)
00119A	9350 0385	STS SYSSYSINSTRINGHANDLER_H,SYSVALUECOPY
00119C	9150 0310	LDS SYSVALUECOPY,DIG
00119E	9350 036B	STS SYSCHARCOUNT,SYSVALUECOPY
0011A0	940E 2610	CALL FN_RIGHT
0011A2	EAC4	LDI SYSSTRINGB,LOW(TEXT2)
0011A3	E0D2	LDI SYSSTRINGB_H,HIGH(TEXT2)
0011A4	E2A9	LDI SYSSTRINGA,LOW(RIGHT)
0011A5	E0B2	LDI SYSSTRINGA_H,HIGH(RIGHT)
0011A6	940E 2AB0	CALL SYSCOPYSTRING
0011A8	E050	LDI SYSVALUECOPY,0
0011A9	9350 0310	STS DIG,SYSVALUECOPY
0011AB	E75B	LDI SYSVALUECOPY,LOW(TEXT1)
0011AC	9350 0384	STS SYSSYSINSTRINGHANDLER,SYSVALUECOPY
0011AE	E052	LDI SYSVALUECOPY,HIGH(TEXT1)
0011AF	9350 0385	STS SYSSYSINSTRINGHANDLER_H,SYSVALUECOPY
0011B1	940E 2CE7	CALL FN_VAL
0011B3	9150 0394	LDS SYSVALUECOPY,VAL
0011B5	9350 0396	STS VAL1,SYSVALUECOPY
0011B7	9150 0395	LDS SYSVALUECOPY,VAL_H
0011B9	9350 0397	STS VAL1_H,SYSVALUECOPY
0011BB	E050	LDI SYSVALUECOPY,0
0011BC	9350 0398	STS VAL1_U,SYSVALUECOPY
0011BE	9350 0399	STS VAL1_E,SYSVALUECOPY
0011C0	EA54	LDI SYSVALUECOPY,LOW(TEXT2)
0011C1	9350 0384	STS SYSSYSINSTRINGHANDLER,SYSVALUECOPY
0011C3	E052	LDI SYSVALUECOPY,HIGH(TEXT2)
0011C4	9350 0385	STS SYSSYSINSTRINGHANDLER_H,SYSVALUECOPY
0011C6	940E 2CE7	CALL FN_VAL
0011C8	9150 0394	LDS SYSVALUECOPY,VAL
0011CA	9350 039A	STS VAL2,SYSVALUECOPY
0011CC	9150 0395	LDS SYSVALUECOPY,VAL_H
0011CE	9350 039B	STS VAL2_H,SYSVALUECOPY
0011D0	E050	LDI SYSVALUECOPY,0
0011D1	9350 039C	STS VAL2_U,SYSVALUECOPY
0011D3	9350 039D	STS VAL2_E,SYSVALUECOPY
0011D5	E5C2	LDI SYSSTRINGB,LOW(TEMPTEXT)
0011D6	E0D2	LDI SYSSTRINGB_H,HIGH(TEMPTEXT)
0011D7	EAE2	LDI SYSREADA,LOW(STRINGTABLE22<<1)
0011D8	E5F9	LDI SYSREADA_H,HIGH(STRINGTABLE22<<1)
0011D9	940E 2C8B	CALL SYSREADSTRING
		SYSSELECT1CASE1
0011DB	9160 02F7	LDS SYSCALCTEMPA,CALC
0011DD	3061	CPI SYSCALCTEMPA,1
0011DE	F009	BREQ PC + 2
0011DF	C089	RJMP SYSSELECT1CASE2
0011E0	9060 0396	LDS SYSTEMP1,VAL1
0011E2	90A0 039A	LDS SYSTEMP2,VAL2
0011E4	0C6A	ADD SYSTEMP1,SYSTEMP2
0011E5	9260 0352	STS RESVAL,SYSTEMP1
0011E7	9060 0397	LDS SYSTEMP1,VAL1_H
0011E9	90A0 039B	LDS SYSTEMP2,VAL2_H
0011EB	1C6A	ADC SYSTEMP1,SYSTEMP2
0011EC	9260 0353	STS RESVAL_H,SYSTEMP1
0011EE	9060 0398	LDS SYSTEMP1,VAL1_U
0011F0	90A0 039C	LDS SYSTEMP2,VAL2_U
0011F2	1C6A	ADC SYSTEMP1,SYSTEMP2
0011F3	9260 0354	STS RESVAL_U,SYSTEMP1
0011F5	9060 0399	LDS SYSTEMP1,VAL1_E
0011F7	90A0 039D	LDS SYSTEMP2,VAL2_E
0011F9	1C6A	ADC SYSTEMP1,SYSTEMP2
0011FA	9260 0355	STS RESVAL_E,SYSTEMP1
0011FC	9150 0352	LDS SYSVALUECOPY,RESVAL
0011FE	9350 0386	STS SYSVALTEMP,SYSVALUECOPY
001200	9150 0353	LDS SYSVALUECOPY,RESVAL_H
001202	9350 0387	STS SYSVALTEMP_H,SYSVALUECOPY
001204	940E 2989	CALL FN_STR
001206	E0C0	LDI SYSSTRINGB,LOW(RESTEXT)
001207	E0D2	LDI SYSSTRINGB_H,HIGH(RESTEXT)
001208	EEA2	LDI SYSSTRINGA,LOW(STR)
001209	E0B2	LDI SYSSTRINGA_H,HIGH(STR)
00120A	940E 2AB0	CALL SYSCOPYSTRING
00120C	E5C2	LDI SYSSTRINGB,LOW(TEMPTEXT)
00120D	E0D2	LDI SYSSTRINGB_H,HIGH(TEMPTEXT)
00120E	2799	CLR SYSSTRINGLENGTH
00120F	9159	LD SYSVALUECOPY, Y+
001210	E5A2	LDI SYSSTRINGA,LOW(TEMPTEXT)
001211	E0B2	LDI SYSSTRINGA_H,HIGH(TEMPTEXT)
001212	940E 2AB3	CALL SYSCOPYSTRINGPART
001214	E0A0	LDI SYSSTRINGA,LOW(RESTEXT)
001215	E0B2	LDI SYSSTRINGA_H,HIGH(RESTEXT)
001216	940E 2AB3	CALL SYSCOPYSTRINGPART
001218	E5A2	LDI SYSSTRINGA,LOW(TEMPTEXT)
001219	E0B2	LDI SYSSTRINGA_H,HIGH(TEMPTEXT)
00121A	939C	ST X, SYSSTRINGLENGTH
00121B	E552	LDI SYSVALUECOPY,LOW(TEMPTEXT)
00121C	9350 0384	STS SYSSYSINSTRINGHANDLER,SYSVALUECOPY
00121E	E052	LDI SYSVALUECOPY,HIGH(TEMPTEXT)
00121F	9350 0385	STS SYSSYSINSTRINGHANDLER_H,SYSVALUECOPY
001221	E154	LDI SYSVALUECOPY,20
001222	9350 036B	STS SYSCHARCOUNT,SYSVALUECOPY
001224	940E 2610	CALL FN_RIGHT
001226	E5C2	LDI SYSSTRINGB,LOW(TEMPTEXT)
001227	E0D2	LDI SYSSTRINGB_H,HIGH(TEMPTEXT)
001228	E2A9	LDI SYSSTRINGA,LOW(RIGHT)
001229	E0B2	LDI SYSSTRINGA_H,HIGH(RIGHT)
00122A	940E 2AB0	CALL SYSCOPYSTRING
00122C	E156	LDI SYSVALUECOPY,22
00122D	9350 033A	STS LINEX1,SYSVALUECOPY
00122F	E050	LDI SYSVALUECOPY,0
001230	9350 033B	STS LINEX1_H,SYSVALUECOPY
001232	E05C	LDI SYSVALUECOPY,12
001233	9350 033E	STS LINEY1,SYSVALUECOPY
001235	E050	LDI SYSVALUECOPY,0
001236	9350 033F	STS LINEY1_H,SYSVALUECOPY
001238	E259	LDI SYSVALUECOPY,41
001239	9350 033C	STS LINEX2,SYSVALUECOPY
00123B	E051	LDI SYSVALUECOPY,1
00123C	9350 033D	STS LINEX2_H,SYSVALUECOPY
00123E	E350	LDI SYSVALUECOPY,48
00123F	9350 0340	STS LINEY2,SYSVALUECOPY
001241	E050	LDI SYSVALUECOPY,0
001242	9350 0341	STS LINEY2_H,SYSVALUECOPY
001244	E15F	LDI SYSVALUECOPY,31
001245	9350 032A	STS LINECOLOUR,SYSVALUECOPY
001247	E050	LDI SYSVALUECOPY,0
001248	9350 032B	STS LINECOLOUR_H,SYSVALUECOPY
00124A	D5E7	RCALL FILLEDBOX_SSD1289
00124B	E25A	LDI SYSVALUECOPY,42
00124C	9350 0346	STS PRINTLOCX,SYSVALUECOPY
00124E	E050	LDI SYSVALUECOPY,0
00124F	9350 0347	STS PRINTLOCX_H,SYSVALUECOPY
001251	E154	LDI SYSVALUECOPY,20
001252	9350 0348	STS PRINTLOCY,SYSVALUECOPY
001254	E050	LDI SYSVALUECOPY,0
001255	9350 0349	STS PRINTLOCY_H,SYSVALUECOPY
001257	E552	LDI SYSVALUECOPY,LOW(TEMPTEXT)
001258	9350 037B	STS SYSPRINTDATAHANDLER,SYSVALUECOPY
00125A	E052	LDI SYSVALUECOPY,HIGH(TEMPTEXT)
00125B	9350 037C	STS SYSPRINTDATAHANDLER_H,SYSVALUECOPY
00125D	EE50	LDI SYSVALUECOPY,224
00125E	9350 0322	STS GLCDFOREGROUND,SYSVALUECOPY
001260	EF5F	LDI SYSVALUECOPY,255
001261	9350 0323	STS GLCDFOREGROUND_H,SYSVALUECOPY
001263	E052	LDI SYSVALUECOPY,2
001264	9350 035F	STS SIZE,SYSVALUECOPY
001266	940E 257A	CALL PRINT_SSD1289513
001268	C1EF	RJMP SYSSELECTEND1
		SYSSELECT1CASE2
001269	9160 02F7	LDS SYSCALCTEMPA,CALC
00126B	3062	CPI SYSCALCTEMPA,2
00126C	F009	BREQ PC + 2
00126D	C0D3	RJMP SYSSELECT1CASE3
00126E	91C0 0396	LDS SYSLONGTEMPB,VAL1
001270	91D0 0397	LDS SYSLONGTEMPB_H,VAL1_H
001272	91E0 0398	LDS SYSLONGTEMPB_U,VAL1_U
001274	91F0 0399	LDS SYSLONGTEMPB_E,VAL1_E
001276	9160 039A	LDS SYSLONGTEMPA,VAL2
001278	9170 039B	LDS SYSLONGTEMPA_H,VAL2_H
00127A	9180 039C	LDS SYSLONGTEMPA_U,VAL2_U
00127C	9190 039D	LDS SYSLONGTEMPA_E,VAL2_E
00127E	940E 2A77	CALL SYSCOMPLESSTHAN32
001280	FE00	SBRS SYSBYTETEMPX,0
001281	C02D	RJMP ELSE27_1
001282	9060 0396	LDS SYSTEMP1,VAL1
001284	90A0 039A	LDS SYSTEMP2,VAL2
001286	186A	SUB SYSTEMP1,SYSTEMP2
001287	9260 0352	STS RESVAL,SYSTEMP1
001289	9060 0397	LDS SYSTEMP1,VAL1_H
00128B	90A0 039B	LDS SYSTEMP2,VAL2_H
00128D	086A	SBC SYSTEMP1,SYSTEMP2
00128E	9260 0353	STS RESVAL_H,SYSTEMP1
001290	9060 0398	LDS SYSTEMP1,VAL1_U
001292	90A0 039C	LDS SYSTEMP2,VAL2_U
001294	086A	SBC SYSTEMP1,SYSTEMP2
001295	9260 0354	STS RESVAL_U,SYSTEMP1
001297	9060 0399	LDS SYSTEMP1,VAL1_E
001299	90A0 039D	LDS SYSTEMP2,VAL2_E
00129B	086A	SBC SYSTEMP1,SYSTEMP2
00129C	9260 0355	STS RESVAL_E,SYSTEMP1
00129E	9150 0352	LDS SYSVALUECOPY,RESVAL
0012A0	9350 0386	STS SYSVALTEMP,SYSVALUECOPY
0012A2	9150 0353	LDS SYSVALUECOPY,RESVAL_H
0012A4	9350 0387	STS SYSVALTEMP_H,SYSVALUECOPY
0012A6	940E 2989	CALL FN_STR
0012A8	E0C0	LDI SYSSTRINGB,LOW(RESTEXT)
0012A9	E0D2	LDI SYSSTRINGB_H,HIGH(RESTEXT)
0012AA	EEA2	LDI SYSSTRINGA,LOW(STR)
0012AB	E0B2	LDI SYSSTRINGA_H,HIGH(STR)
0012AC	940E 2AB0	CALL SYSCOPYSTRING
0012AE	C035	RJMP ENDIF27
		ELSE27_1
0012AF	9060 039A	LDS SYSTEMP1,VAL2
0012B1	90A0 0396	LDS SYSTEMP2,VAL1
0012B3	186A	SUB SYSTEMP1,SYSTEMP2
0012B4	9260 0352	STS RESVAL,SYSTEMP1
0012B6	9060 039B	LDS SYSTEMP1,VAL2_H
0012B8	90A0 0397	LDS SYSTEMP2,VAL1_H
0012BA	086A	SBC SYSTEMP1,SYSTEMP2
0012BB	9260 0353	STS RESVAL_H,SYSTEMP1
0012BD	9060 039C	LDS SYSTEMP1,VAL2_U
0012BF	90A0 0398	LDS SYSTEMP2,VAL1_U
0012C1	086A	SBC SYSTEMP1,SYSTEMP2
0012C2	9260 0354	STS RESVAL_U,SYSTEMP1
0012C4	9060 039D	LDS SYSTEMP1,VAL2_E
0012C6	90A0 0399	LDS SYSTEMP2,VAL1_E
0012C8	086A	SBC SYSTEMP1,SYSTEMP2
0012C9	9260 0355	STS RESVAL_E,SYSTEMP1
0012CB	9150 0352	LDS SYSVALUECOPY,RESVAL
0012CD	9350 0386	STS SYSVALTEMP,SYSVALUECOPY
0012CF	9150 0353	LDS SYSVALUECOPY,RESVAL_H
0012D1	9350 0387	STS SYSVALTEMP_H,SYSVALUECOPY
0012D3	940E 2989	CALL FN_STR
0012D5	E0C0	LDI SYSSTRINGB,LOW(RESTEXT)
0012D6	E0D2	LDI SYSSTRINGB_H,HIGH(RESTEXT)
0012D7	2799	CLR SYSSTRINGLENGTH
0012D8	9159	LD SYSVALUECOPY, Y+
0012D9	E6EA	LDI SYSREADA,LOW(STRINGTABLE13<<1)
0012DA	E5F9	LDI SYSREADA_H,HIGH(STRINGTABLE13<<1)
0012DB	940E 2C92	CALL SYSREADSTRINGPART
0012DD	EEA2	LDI SYSSTRINGA,LOW(STR)
0012DE	E0B2	LDI SYSSTRINGA_H,HIGH(STR)
0012DF	940E 2AB3	CALL SYSCOPYSTRINGPART
0012E1	E0A0	LDI SYSSTRINGA,LOW(RESTEXT)
0012E2	E0B2	LDI SYSSTRINGA_H,HIGH(RESTEXT)
0012E3	939C	ST X, SYSSTRINGLENGTH
		ENDIF27
0012E4	E5C2	LDI SYSSTRINGB,LOW(TEMPTEXT)
0012E5	E0D2	LDI SYSSTRINGB_H,HIGH(TEMPTEXT)
0012E6	2799	CLR SYSSTRINGLENGTH
0012E7	9159	LD SYSVALUECOPY, Y+
0012E8	E5A2	LDI SYSSTRINGA,LOW(TEMPTEXT)
0012E9	E0B2	LDI SYSSTRINGA_H,HIGH(TEMPTEXT)
0012EA	940E 2AB3	CALL SYSCOPYSTRINGPART
0012EC	E0A0	LDI SYSSTRINGA,LOW(RESTEXT)
0012ED	E0B2	LDI SYSSTRINGA_H,HIGH(RESTEXT)
0012EE	940E 2AB3	CALL SYSCOPYSTRINGPART
0012F0	E5A2	LDI SYSSTRINGA,LOW(TEMPTEXT)
0012F1	E0B2	LDI SYSSTRINGA_H,HIGH(TEMPTEXT)
0012F2	939C	ST X, SYSSTRINGLENGTH
0012F3	E552	LDI SYSVALUECOPY,LOW(TEMPTEXT)
0012F4	9350 0384	STS SYSSYSINSTRINGHANDLER,SYSVALUECOPY
0012F6	E052	LDI SYSVALUECOPY,HIGH(TEMPTEXT)
0012F7	9350 0385	STS SYSSYSINSTRINGHANDLER_H,SYSVALUECOPY
0012F9	E154	LDI SYSVALUECOPY,20
0012FA	9350 036B	STS SYSCHARCOUNT,SYSVALUECOPY
0012FC	940E 2610	CALL FN_RIGHT
0012FE	E5C2	LDI SYSSTRINGB,LOW(TEMPTEXT)
0012FF	E0D2	LDI SYSSTRINGB_H,HIGH(TEMPTEXT)
001300	E2A9	LDI SYSSTRINGA,LOW(RIGHT)
001301	E0B2	LDI SYSSTRINGA_H,HIGH(RIGHT)
001302	940E 2AB0	CALL SYSCOPYSTRING
001304	E156	LDI SYSVALUECOPY,22
001305	9350 033A	STS LINEX1,SYSVALUECOPY
001307	E050	LDI SYSVALUECOPY,0
001308	9350 033B	STS LINEX1_H,SYSVALUECOPY
00130A	E05C	LDI SYSVALUECOPY,12
00130B	9350 033E	STS LINEY1,SYSVALUECOPY
00130D	E050	LDI SYSVALUECOPY,0
00130E	9350 033F	STS LINEY1_H,SYSVALUECOPY
001310	E259	LDI SYSVALUECOPY,41
001311	9350 033C	STS LINEX2,SYSVALUECOPY
001313	E051	LDI SYSVALUECOPY,1
001314	9350 033D	STS LINEX2_H,SYSVALUECOPY
001316	E350	LDI SYSVALUECOPY,48
001317	9350 0340	STS LINEY2,SYSVALUECOPY
001319	E050	LDI SYSVALUECOPY,0
00131A	9350 0341	STS LINEY2_H,SYSVALUECOPY
00131C	E15F	LDI SYSVALUECOPY,31
00131D	9350 032A	STS LINECOLOUR,SYSVALUECOPY
00131F	E050	LDI SYSVALUECOPY,0
001320	9350 032B	STS LINECOLOUR_H,SYSVALUECOPY
001322	D50F	RCALL FILLEDBOX_SSD1289
001323	E25A	LDI SYSVALUECOPY,42
001324	9350 0346	STS PRINTLOCX,SYSVALUECOPY
001326	E050	LDI SYSVALUECOPY,0
001327	9350 0347	STS PRINTLOCX_H,SYSVALUECOPY
001329	E154	LDI SYSVALUECOPY,20
00132A	9350 0348	STS PRINTLOCY,SYSVALUECOPY
00132C	E050	LDI SYSVALUECOPY,0
00132D	9350 0349	STS PRINTLOCY_H,SYSVALUECOPY
00132F	E552	LDI SYSVALUECOPY,LOW(TEMPTEXT)
001330	9350 037B	STS SYSPRINTDATAHANDLER,SYSVALUECOPY
001332	E052	LDI SYSVALUECOPY,HIGH(TEMPTEXT)
001333	9350 037C	STS SYSPRINTDATAHANDLER_H,SYSVALUECOPY
001335	EE50	LDI SYSVALUECOPY,224
001336	9350 0322	STS GLCDFOREGROUND,SYSVALUECOPY
001338	EF5F	LDI SYSVALUECOPY,255
001339	9350 0323	STS GLCDFOREGROUND_H,SYSVALUECOPY
00133B	E052	LDI SYSVALUECOPY,2
00133C	9350 035F	STS SIZE,SYSVALUECOPY
00133E	940E 257A	CALL PRINT_SSD1289513
001340	C117	RJMP SYSSELECTEND1
		SYSSELECT1CASE3
001341	9160 02F7	LDS SYSCALCTEMPA,CALC
001343	3063	CPI SYSCALCTEMPA,3
001344	F009	BREQ PC + 2
001345	C087	RJMP SYSSELECT1CASE4
001346	9160 0396	LDS SYSLONGTEMPA,VAL1
001348	9170 0397	LDS SYSLONGTEMPA_H,VAL1_H
00134A	9180 0398	LDS SYSLONGTEMPA_U,VAL1_U
00134C	9190 0399	LDS SYSLONGTEMPA_E,VAL1_E
00134E	91C0 039A	LDS SYSLONGTEMPB,VAL2
001350	91D0 039B	LDS SYSLONGTEMPB_H,VAL2_H
001352	91E0 039C	LDS SYSLONGTEMPB_U,VAL2_U
001354	91F0 039D	LDS SYSLONGTEMPB_E,VAL2_E
001356	940E 2BEA	CALL SYSMULTSUB32
001358	9200 0352	STS RESVAL,SYSLONGTEMPX
00135A	9210 0353	STS RESVAL_H,SYSLONGTEMPX_H
00135C	9220 0354	STS RESVAL_U,SYSLONGTEMPX_U
00135E	9230 0355	STS RESVAL_E,SYSLONGTEMPX_E
001360	9150 0352	LDS SYSVALUECOPY,RESVAL
001362	9350 0386	STS SYSVALTEMP,SYSVALUECOPY
001364	9150 0353	LDS SYSVALUECOPY,RESVAL_H
001366	9350 0387	STS SYSVALTEMP_H,SYSVALUECOPY
001368	940E 2989	CALL FN_STR
00136A	E0C0	LDI SYSSTRINGB,LOW(RESTEXT)
00136B	E0D2	LDI SYSSTRINGB_H,HIGH(RESTEXT)
00136C	EEA2	LDI SYSSTRINGA,LOW(STR)
00136D	E0B2	LDI SYSSTRINGA_H,HIGH(STR)
00136E	940E 2AB0	CALL SYSCOPYSTRING
001370	E5C2	LDI SYSSTRINGB,LOW(TEMPTEXT)
001371	E0D2	LDI SYSSTRINGB_H,HIGH(TEMPTEXT)
001372	2799	CLR SYSSTRINGLENGTH
001373	9159	LD SYSVALUECOPY, Y+
001374	E5A2	LDI SYSSTRINGA,LOW(TEMPTEXT)
001375	E0B2	LDI SYSSTRINGA_H,HIGH(TEMPTEXT)
001376	940E 2AB3	CALL SYSCOPYSTRINGPART
001378	E0A0	LDI SYSSTRINGA,LOW(RESTEXT)
001379	E0B2	LDI SYSSTRINGA_H,HIGH(RESTEXT)
00137A	940E 2AB3	CALL SYSCOPYSTRINGPART
00137C	E5A2	LDI SYSSTRINGA,LOW(TEMPTEXT)
00137D	E0B2	LDI SYSSTRINGA_H,HIGH(TEMPTEXT)
00137E	939C	ST X, SYSSTRINGLENGTH
00137F	E552	LDI SYSVALUECOPY,LOW(TEMPTEXT)
001380	9350 0384	STS SYSSYSINSTRINGHANDLER,SYSVALUECOPY
001382	E052	LDI SYSVALUECOPY,HIGH(TEMPTEXT)
001383	9350 0385	STS SYSSYSINSTRINGHANDLER_H,SYSVALUECOPY
001385	E154	LDI SYSVALUECOPY,20
001386	9350 036B	STS SYSCHARCOUNT,SYSVALUECOPY
001388	940E 2610	CALL FN_RIGHT
00138A	E5C2	LDI SYSSTRINGB,LOW(TEMPTEXT)
00138B	E0D2	LDI SYSSTRINGB_H,HIGH(TEMPTEXT)
00138C	E2A9	LDI SYSSTRINGA,LOW(RIGHT)
00138D	E0B2	LDI SYSSTRINGA_H,HIGH(RIGHT)
00138E	940E 2AB0	CALL SYSCOPYSTRING
001390	E156	LDI SYSVALUECOPY,22
001391	9350 033A	STS LINEX1,SYSVALUECOPY
001393	E050	LDI SYSVALUECOPY,0
001394	9350 033B	STS LINEX1_H,SYSVALUECOPY
001396	E05C	LDI SYSVALUECOPY,12
001397	9350 033E	STS LINEY1,SYSVALUECOPY
001399	E050	LDI SYSVALUECOPY,0
00139A	9350 033F	STS LINEY1_H,SYSVALUECOPY
00139C	E259	LDI SYSVALUECOPY,41
00139D	9350 033C	STS LINEX2,SYSVALUECOPY
00139F	E051	LDI SYSVALUECOPY,1
0013A0	9350 033D	STS LINEX2_H,SYSVALUECOPY
0013A2	E350	LDI SYSVALUECOPY,48
0013A3	9350 0340	STS LINEY2,SYSVALUECOPY
0013A5	E050	LDI SYSVALUECOPY,0
0013A6	9350 0341	STS LINEY2_H,SYSVALUECOPY
0013A8	E15F	LDI SYSVALUECOPY,31
0013A9	9350 032A	STS LINECOLOUR,SYSVALUECOPY
0013AB	E050	LDI SYSVALUECOPY,0
0013AC	9350 032B	STS LINECOLOUR_H,SYSVALUECOPY
0013AE	D483	RCALL FILLEDBOX_SSD1289
0013AF	E25A	LDI SYSVALUECOPY,42
0013B0	9350 0346	STS PRINTLOCX,SYSVALUECOPY
0013B2	E050	LDI SYSVALUECOPY,0
0013B3	9350 0347	STS PRINTLOCX_H,SYSVALUECOPY
0013B5	E154	LDI SYSVALUECOPY,20
0013B6	9350 0348	STS PRINTLOCY,SYSVALUECOPY
0013B8	E050	LDI SYSVALUECOPY,0
0013B9	9350 0349	STS PRINTLOCY_H,SYSVALUECOPY
0013BB	E552	LDI SYSVALUECOPY,LOW(TEMPTEXT)
0013BC	9350 037B	STS SYSPRINTDATAHANDLER,SYSVALUECOPY
0013BE	E052	LDI SYSVALUECOPY,HIGH(TEMPTEXT)
0013BF	9350 037C	STS SYSPRINTDATAHANDLER_H,SYSVALUECOPY
0013C1	EE50	LDI SYSVALUECOPY,224
0013C2	9350 0322	STS GLCDFOREGROUND,SYSVALUECOPY
0013C4	EF5F	LDI SYSVALUECOPY,255
0013C5	9350 0323	STS GLCDFOREGROUND_H,SYSVALUECOPY
0013C7	E052	LDI SYSVALUECOPY,2
0013C8	9350 035F	STS SIZE,SYSVALUECOPY
0013CA	940E 257A	CALL PRINT_SSD1289513
0013CC	C08B	RJMP SYSSELECTEND1
		SYSSELECT1CASE4
0013CD	9160 02F7	LDS SYSCALCTEMPA,CALC
0013CF	3064	CPI SYSCALCTEMPA,4
0013D0	F009	BREQ PC + 2
0013D1	C086	RJMP SYSSELECTEND1
0013D2	9160 0396	LDS SYSLONGTEMPA,VAL1
0013D4	9170 0397	LDS SYSLONGTEMPA_H,VAL1_H
0013D6	9180 0398	LDS SYSLONGTEMPA_U,VAL1_U
0013D8	9190 0399	LDS SYSLONGTEMPA_E,VAL1_E
0013DA	91C0 039A	LDS SYSLONGTEMPB,VAL2
0013DC	91D0 039B	LDS SYSLONGTEMPB_H,VAL2_H
0013DE	91E0 039C	LDS SYSLONGTEMPB_U,VAL2_U
0013E0	91F0 039D	LDS SYSLONGTEMPB_E,VAL2_E
0013E2	940E 2AEC	CALL SYSDIVSUB32
0013E4	9360 0352	STS RESVAL,SYSLONGTEMPA
0013E6	9370 0353	STS RESVAL_H,SYSLONGTEMPA_H
0013E8	9380 0354	STS RESVAL_U,SYSLONGTEMPA_U
0013EA	9390 0355	STS RESVAL_E,SYSLONGTEMPA_E
0013EC	9150 0352	LDS SYSVALUECOPY,RESVAL
0013EE	9350 0386	STS SYSVALTEMP,SYSVALUECOPY
0013F0	9150 0353	LDS SYSVALUECOPY,RESVAL_H
0013F2	9350 0387	STS SYSVALTEMP_H,SYSVALUECOPY
0013F4	940E 2989	CALL FN_STR
0013F6	E0C0	LDI SYSSTRINGB,LOW(RESTEXT)
0013F7	E0D2	LDI SYSSTRINGB_H,HIGH(RESTEXT)
0013F8	EEA2	LDI SYSSTRINGA,LOW(STR)
0013F9	E0B2	LDI SYSSTRINGA_H,HIGH(STR)
0013FA	940E 2AB0	CALL SYSCOPYSTRING
0013FC	E5C2	LDI SYSSTRINGB,LOW(TEMPTEXT)
0013FD	E0D2	LDI SYSSTRINGB_H,HIGH(TEMPTEXT)
0013FE	2799	CLR SYSSTRINGLENGTH
0013FF	9159	LD SYSVALUECOPY, Y+
001400	E5A2	LDI SYSSTRINGA,LOW(TEMPTEXT)
001401	E0B2	LDI SYSSTRINGA_H,HIGH(TEMPTEXT)
001402	940E 2AB3	CALL SYSCOPYSTRINGPART
001404	E0A0	LDI SYSSTRINGA,LOW(RESTEXT)
001405	E0B2	LDI SYSSTRINGA_H,HIGH(RESTEXT)
001406	940E 2AB3	CALL SYSCOPYSTRINGPART
001408	E5A2	LDI SYSSTRINGA,LOW(TEMPTEXT)
001409	E0B2	LDI SYSSTRINGA_H,HIGH(TEMPTEXT)
00140A	939C	ST X, SYSSTRINGLENGTH
00140B	E552	LDI SYSVALUECOPY,LOW(TEMPTEXT)
00140C	9350 0384	STS SYSSYSINSTRINGHANDLER,SYSVALUECOPY
00140E	E052	LDI SYSVALUECOPY,HIGH(TEMPTEXT)
00140F	9350 0385	STS SYSSYSINSTRINGHANDLER_H,SYSVALUECOPY
001411	E154	LDI SYSVALUECOPY,20
001412	9350 036B	STS SYSCHARCOUNT,SYSVALUECOPY
001414	940E 2610	CALL FN_RIGHT
001416	E5C2	LDI SYSSTRINGB,LOW(TEMPTEXT)
001417	E0D2	LDI SYSSTRINGB_H,HIGH(TEMPTEXT)
001418	E2A9	LDI SYSSTRINGA,LOW(RIGHT)
001419	E0B2	LDI SYSSTRINGA_H,HIGH(RIGHT)
00141A	940E 2AB0	CALL SYSCOPYSTRING
00141C	E156	LDI SYSVALUECOPY,22
00141D	9350 033A	STS LINEX1,SYSVALUECOPY
00141F	E050	LDI SYSVALUECOPY,0
001420	9350 033B	STS LINEX1_H,SYSVALUECOPY
001422	E05C	LDI SYSVALUECOPY,12
001423	9350 033E	STS LINEY1,SYSVALUECOPY
001425	E050	LDI SYSVALUECOPY,0
001426	9350 033F	STS LINEY1_H,SYSVALUECOPY
001428	E259	LDI SYSVALUECOPY,41
001429	9350 033C	STS LINEX2,SYSVALUECOPY
00142B	E051	LDI SYSVALUECOPY,1
00142C	9350 033D	STS LINEX2_H,SYSVALUECOPY
00142E	E350	LDI SYSVALUECOPY,48
00142F	9350 0340	STS LINEY2,SYSVALUECOPY
001431	E050	LDI SYSVALUECOPY,0
001432	9350 0341	STS LINEY2_H,SYSVALUECOPY
001434	E15F	LDI SYSVALUECOPY,31
001435	9350 032A	STS LINECOLOUR,SYSVALUECOPY
001437	E050	LDI SYSVALUECOPY,0
001438	9350 032B	STS LINECOLOUR_H,SYSVALUECOPY
00143A	D3F7	RCALL FILLEDBOX_SSD1289
00143B	E25A	LDI SYSVALUECOPY,42
00143C	9350 0346	STS PRINTLOCX,SYSVALUECOPY
00143E	E050	LDI SYSVALUECOPY,0
00143F	9350 0347	STS PRINTLOCX_H,SYSVALUECOPY
001441	E154	LDI SYSVALUECOPY,20
001442	9350 0348	STS PRINTLOCY,SYSVALUECOPY
001444	E050	LDI SYSVALUECOPY,0
001445	9350 0349	STS PRINTLOCY_H,SYSVALUECOPY
001447	E552	LDI SYSVALUECOPY,LOW(TEMPTEXT)
001448	9350 037B	STS SYSPRINTDATAHANDLER,SYSVALUECOPY
00144A	E052	LDI SYSVALUECOPY,HIGH(TEMPTEXT)
00144B	9350 037C	STS SYSPRINTDATAHANDLER_H,SYSVALUECOPY
00144D	EE50	LDI SYSVALUECOPY,224
00144E	9350 0322	STS GLCDFOREGROUND,SYSVALUECOPY
001450	EF5F	LDI SYSVALUECOPY,255
001451	9350 0323	STS GLCDFOREGROUND_H,SYSVALUECOPY
001453	E052	LDI SYSVALUECOPY,2
001454	9350 035F	STS SIZE,SYSVALUECOPY
001456	940E 257A	CALL PRINT_SSD1289513
		SYSSELECTEND1
001458	E5C2	LDI SYSSTRINGB,LOW(TEMPTEXT)
001459	E0D2	LDI SYSSTRINGB_H,HIGH(TEMPTEXT)
00145A	EAE2	LDI SYSREADA,LOW(STRINGTABLE22<<1)
00145B	E5F9	LDI SYSREADA_H,HIGH(STRINGTABLE22<<1)
00145C	940E 2C8B	CALL SYSREADSTRING
00145E	E050	LDI SYSVALUECOPY,0
00145F	9350 02F7	STS CALC,SYSVALUECOPY
001461	E050	LDI SYSVALUECOPY,0
001462	9350 0200	STS SYSRESTEXT_0,SYSVALUECOPY
		ENDIF22
		ENDIF17
		ENDIF1
001464	E0D1	LDI SYSWAITTEMPMS,1
001465	E0E0	LDI SYSWAITTEMPMS_H,0
001466	D3B9	RCALL DELAY_MS
001467	940C 054A	JMP SYSDOLOOP_S1
		SYSDOLOOP_E1
		BASPROGRAMEND
001469	9588	SLEEP
00146A	CFFE	RJMP BASPROGRAMEND


		ADS7843_GETXY
00146B	E050	LDI SYSVALUECOPY,0
00146C	9350 0361	STS SX,SYSVALUECOPY
00146E	9350 0362	STS SX_H,SYSVALUECOPY
001470	9350 0363	STS SX_U,SYSVALUECOPY
001472	9350 0364	STS SX_E,SYSVALUECOPY
001474	E050	LDI SYSVALUECOPY,0
001475	9350 0365	STS SY,SYSVALUECOPY
001477	9350 0366	STS SY_H,SYSVALUECOPY
001479	9350 0367	STS SY_U,SYSVALUECOPY
00147B	9350 0368	STS SY_E,SYSVALUECOPY
00147D	9150 0343	LDS SYSVALUECOPY,PREC
00147F	9350 037E	STS SYSREPEATTEMP1,SYSVALUECOPY
001481	9160 037E	LDS SYSCALCTEMPA,SYSREPEATTEMP1
001483	2366	TST SYSCALCTEMPA
001484	F409	BRNE PC + 2
001485	C08C	RJMP SYSREPEATLOOPEND1
		SYSREPEATLOOP1
001486	E050	LDI SYSVALUECOPY,0
001487	9350 02E8	STS ADS7843_COUNT,SYSVALUECOPY
001489	E050	LDI SYSVALUECOPY,0
00148A	9350 0390	STS T_X,SYSVALUECOPY
00148C	9350 0391	STS T_X_H,SYSVALUECOPY
00148E	E050	LDI SYSVALUECOPY,0
00148F	9350 0392	STS T_Y,SYSVALUECOPY
001491	9350 0393	STS T_Y_H,SYSVALUECOPY
001493	9873	CBI PORTE,3
001494	E950	LDI SYSVALUECOPY,144
001495	9350 0306	STS CONTROLBYTE,SYSVALUECOPY
001497	D26F	RCALL ADS7843_WRITE
001498	9150 0102	LDS SYSVALUECOPY,PORTH
00149A	6058	SBR SYSVALUECOPY,1<<3
00149B	9350 0102	STS PORTH,SYSVALUECOPY
00149D	90E0 02E8	LDS SYSTEMP3,ADS7843_COUNT
00149F	94E3	INC SYSTEMP3
0014A0	92E0 02E8	STS ADS7843_COUNT,SYSTEMP3
0014A2	9150 0102	LDS SYSVALUECOPY,PORTH
0014A4	7F57	CBR SYSVALUECOPY,1<<3
0014A5	9350 0102	STS PORTH,SYSVALUECOPY
0014A7	90E0 02E8	LDS SYSTEMP3,ADS7843_COUNT
0014A9	94E3	INC SYSTEMP3
0014AA	92E0 02E8	STS ADS7843_COUNT,SYSTEMP3
0014AC	D1F1	RCALL FN_ADS7843_READ
0014AD	9150 02EB	LDS SYSVALUECOPY,ADS7843_READ
0014AF	9350 0392	STS T_Y,SYSVALUECOPY
0014B1	9150 02EC	LDS SYSVALUECOPY,ADS7843_READ_H
0014B3	9350 0393	STS T_Y_H,SYSVALUECOPY
0014B5	ED50	LDI SYSVALUECOPY,208
0014B6	9350 0306	STS CONTROLBYTE,SYSVALUECOPY
0014B8	D24E	RCALL ADS7843_WRITE
0014B9	9150 0102	LDS SYSVALUECOPY,PORTH
0014BB	6058	SBR SYSVALUECOPY,1<<3
0014BC	9350 0102	STS PORTH,SYSVALUECOPY
0014BE	90E0 02E8	LDS SYSTEMP3,ADS7843_COUNT
0014C0	94E3	INC SYSTEMP3
0014C1	92E0 02E8	STS ADS7843_COUNT,SYSTEMP3
0014C3	9150 0102	LDS SYSVALUECOPY,PORTH
0014C5	7F57	CBR SYSVALUECOPY,1<<3
0014C6	9350 0102	STS PORTH,SYSVALUECOPY
0014C8	90E0 02E8	LDS SYSTEMP3,ADS7843_COUNT
0014CA	94E3	INC SYSTEMP3
0014CB	92E0 02E8	STS ADS7843_COUNT,SYSTEMP3
0014CD	D1D0	RCALL FN_ADS7843_READ
0014CE	9150 02EB	LDS SYSVALUECOPY,ADS7843_READ
0014D0	9350 0390	STS T_X,SYSVALUECOPY
0014D2	9150 02EC	LDS SYSVALUECOPY,ADS7843_READ_H
0014D4	9350 0391	STS T_X_H,SYSVALUECOPY
0014D6	9A73	SBI PORTE,3
0014D7	90E0 0361	LDS SYSTEMP3,SX
0014D9	90F0 0390	LDS SYSTEMP4,T_X
0014DB	0CEF	ADD SYSTEMP3,SYSTEMP4
0014DC	92E0 0361	STS SX,SYSTEMP3
0014DE	90E0 0362	LDS SYSTEMP3,SX_H
0014E0	90F0 0391	LDS SYSTEMP4,T_X_H
0014E2	1CEF	ADC SYSTEMP3,SYSTEMP4
0014E3	92E0 0362	STS SX_H,SYSTEMP3
0014E5	90E0 0363	LDS SYSTEMP3,SX_U
0014E7	E000	LDI SYSTEMP5,0
0014E8	1EE0	ADC SYSTEMP3,SYSTEMP5
0014E9	92E0 0363	STS SX_U,SYSTEMP3
0014EB	90E0 0364	LDS SYSTEMP3,SX_E
0014ED	E000	LDI SYSTEMP5,0
0014EE	1EE0	ADC SYSTEMP3,SYSTEMP5
0014EF	92E0 0364	STS SX_E,SYSTEMP3
0014F1	90E0 0365	LDS SYSTEMP3,SY
0014F3	90F0 0392	LDS SYSTEMP4,T_Y
0014F5	0CEF	ADD SYSTEMP3,SYSTEMP4
0014F6	92E0 0365	STS SY,SYSTEMP3
0014F8	90E0 0366	LDS SYSTEMP3,SY_H
0014FA	90F0 0393	LDS SYSTEMP4,T_Y_H
0014FC	1CEF	ADC SYSTEMP3,SYSTEMP4
0014FD	92E0 0366	STS SY_H,SYSTEMP3
0014FF	90E0 0367	LDS SYSTEMP3,SY_U
001501	E000	LDI SYSTEMP5,0
001502	1EE0	ADC SYSTEMP3,SYSTEMP5
001503	92E0 0367	STS SY_U,SYSTEMP3
001505	90E0 0368	LDS SYSTEMP3,SY_E
001507	E000	LDI SYSTEMP5,0
001508	1EE0	ADC SYSTEMP3,SYSTEMP5
001509	92E0 0368	STS SY_E,SYSTEMP3
00150B	90E0 037E	LDS SYSTEMP3,SYSREPEATTEMP1
00150D	94EA	DEC SYSTEMP3
00150E	92E0 037E	STS SYSREPEATTEMP1,SYSTEMP3
001510	F009	BREQ PC + 2
001511	CF74	RJMP SYSREPEATLOOP1
		SYSREPEATLOOPEND1
001512	9160 0361	LDS SYSLONGTEMPA,SX
001514	9170 0362	LDS SYSLONGTEMPA_H,SX_H
001516	9180 0363	LDS SYSLONGTEMPA_U,SX_U
001518	9190 0364	LDS SYSLONGTEMPA_E,SX_E
00151A	91C0 0343	LDS SYSLONGTEMPB,PREC
00151C	E0D0	LDI SYSLONGTEMPB_H,0
00151D	E0E0	LDI SYSLONGTEMPB_U,0
00151E	E0F0	LDI SYSLONGTEMPB_E,0
00151F	940E 2AEC	CALL SYSDIVSUB32
001521	2E66	MOV SYSTEMP1,SYSLONGTEMPA
001522	2E77	MOV SYSTEMP1_H,SYSLONGTEMPA_H
001523	2E88	MOV SYSTEMP1_U,SYSLONGTEMPA_U
001524	2E99	MOV SYSTEMP1_E,SYSLONGTEMPA_E
001525	2D66	MOV SYSLONGTEMPA,SYSTEMP1
001526	2D77	MOV SYSLONGTEMPA_H,SYSTEMP1_H
001527	2D88	MOV SYSLONGTEMPA_U,SYSTEMP1_U
001528	2D99	MOV SYSLONGTEMPA_E,SYSTEMP1_E
001529	E1C1	LDI SYSLONGTEMPB,17
00152A	E0D0	LDI SYSLONGTEMPB_H,0
00152B	E0E0	LDI SYSLONGTEMPB_U,0
00152C	E0F0	LDI SYSLONGTEMPB_E,0
00152D	940E 2AEC	CALL SYSDIVSUB32
00152F	9360 038C	STS TP_X,SYSLONGTEMPA
001531	9370 038D	STS TP_X_H,SYSLONGTEMPA_H
001533	E708	LDI SYSTEMP5,120
001534	90E0 038C	LDS SYSTEMP3,TP_X
001536	190E	SUB SYSTEMP5,SYSTEMP3
001537	2E60	MOV SYSTEMP1,SYSTEMP5
001538	E000	LDI SYSTEMP5,0
001539	90E0 038D	LDS SYSTEMP3,TP_X_H
00153B	090E	SBC SYSTEMP5,SYSTEMP3
00153C	2E70	MOV SYSTEMP1_H,SYSTEMP5
00153D	2D66	MOV SYSINTEGERTEMPA,SYSTEMP1
00153E	2D77	MOV SYSINTEGERTEMPA_H,SYSTEMP1_H
00153F	E0C9	LDI SYSINTEGERTEMPB,9
001540	E0D0	LDI SYSINTEGERTEMPB_H,0
001541	940E 2B9B	CALL SYSDIVSUBINT
001543	9360 03A4	STS XOFFSET,SYSINTEGERTEMPA
001545	9370 03A5	STS XOFFSET_H,SYSINTEGERTEMPA_H
001547	90E0 038C	LDS SYSTEMP3,TP_X
001549	90F0 03A4	LDS SYSTEMP4,XOFFSET
00154B	18EF	SUB SYSTEMP3,SYSTEMP4
00154C	92E0 038C	STS TP_X,SYSTEMP3
00154E	90E0 038D	LDS SYSTEMP3,TP_X_H
001550	90F0 03A5	LDS SYSTEMP4,XOFFSET_H
001552	08EF	SBC SYSTEMP3,SYSTEMP4
001553	92E0 038D	STS TP_X_H,SYSTEMP3
001555	91C0 038C	LDS SYSWORDTEMPB,TP_X
001557	91D0 038D	LDS SYSWORDTEMPB_H,TP_X_H
001559	EE6F	LDI SYSWORDTEMPA,239
00155A	E070	LDI SYSWORDTEMPA_H,0
00155B	940E 2A6D	CALL SYSCOMPLESSTHAN16
00155D	FE00	SBRS SYSBYTETEMPX,0
00155E	C006	RJMP ENDIF31
00155F	EE5F	LDI SYSVALUECOPY,239
001560	9350 038C	STS TP_X,SYSVALUECOPY
001562	E050	LDI SYSVALUECOPY,0
001563	9350 038D	STS TP_X_H,SYSVALUECOPY
		ENDIF31
001565	9160 0365	LDS SYSLONGTEMPA,SY
001567	9170 0366	LDS SYSLONGTEMPA_H,SY_H
001569	9180 0367	LDS SYSLONGTEMPA_U,SY_U
00156B	9190 0368	LDS SYSLONGTEMPA_E,SY_E
00156D	91C0 0343	LDS SYSLONGTEMPB,PREC
00156F	E0D0	LDI SYSLONGTEMPB_H,0
001570	E0E0	LDI SYSLONGTEMPB_U,0
001571	E0F0	LDI SYSLONGTEMPB_E,0
001572	940E 2AEC	CALL SYSDIVSUB32
001574	2E66	MOV SYSTEMP1,SYSLONGTEMPA
001575	2E77	MOV SYSTEMP1_H,SYSLONGTEMPA_H
001576	2E88	MOV SYSTEMP1_U,SYSLONGTEMPA_U
001577	2E99	MOV SYSTEMP1_E,SYSLONGTEMPA_E
001578	2D66	MOV SYSLONGTEMPA,SYSTEMP1
001579	2D77	MOV SYSLONGTEMPA_H,SYSTEMP1_H
00157A	2D88	MOV SYSLONGTEMPA_U,SYSTEMP1_U
00157B	2D99	MOV SYSLONGTEMPA_E,SYSTEMP1_E
00157C	E0CC	LDI SYSLONGTEMPB,12
00157D	E0D0	LDI SYSLONGTEMPB_H,0
00157E	E0E0	LDI SYSLONGTEMPB_U,0
00157F	E0F0	LDI SYSLONGTEMPB_E,0
001580	940E 2AEC	CALL SYSDIVSUB32
001582	9360 038E	STS TP_Y,SYSLONGTEMPA
001584	9370 038F	STS TP_Y_H,SYSLONGTEMPA_H
001586	91C0 038E	LDS SYSWORDTEMPB,TP_Y
001588	91D0 038F	LDS SYSWORDTEMPB_H,TP_Y_H
00158A	E36F	LDI SYSWORDTEMPA,63
00158B	E071	LDI SYSWORDTEMPA_H,1
00158C	940E 2A6D	CALL SYSCOMPLESSTHAN16
00158E	FE00	SBRS SYSBYTETEMPX,0
00158F	C006	RJMP ENDIF32
001590	E35F	LDI SYSVALUECOPY,63
001591	9350 038E	STS TP_Y,SYSVALUECOPY
001593	E051	LDI SYSVALUECOPY,1
001594	9350 038F	STS TP_Y_H,SYSVALUECOPY
		ENDIF32
		SYSSELECT2CASE1
001596	9160 0342	LDS SYSCALCTEMPA,ORIENTATION_SSD1289
001598	3064	CPI SYSCALCTEMPA,4
001599	F539	BRNE SYSSELECT2CASE2
00159A	E30F	LDI SYSTEMP5,63
00159B	90E0 038E	LDS SYSTEMP3,TP_Y
00159D	190E	SUB SYSTEMP5,SYSTEMP3
00159E	9300 038E	STS TP_Y,SYSTEMP5
0015A0	E001	LDI SYSTEMP5,1
0015A1	90E0 038F	LDS SYSTEMP3,TP_Y_H
0015A3	090E	SBC SYSTEMP5,SYSTEMP3
0015A4	9300 038F	STS TP_Y_H,SYSTEMP5
0015A6	9160 038E	LDS SYSINTEGERTEMPA,TP_Y
0015A8	9170 038F	LDS SYSINTEGERTEMPA_H,TP_Y_H
0015AA	E0CE	LDI SYSINTEGERTEMPB,14
0015AB	E0D0	LDI SYSINTEGERTEMPB_H,0
0015AC	940E 2B9B	CALL SYSDIVSUBINT
0015AE	9360 03A8	STS YOFFSET,SYSINTEGERTEMPA
0015B0	9370 03A9	STS YOFFSET_H,SYSINTEGERTEMPA_H
0015B2	90E0 038E	LDS SYSTEMP3,TP_Y
0015B4	90F0 03A8	LDS SYSTEMP4,YOFFSET
0015B6	0CEF	ADD SYSTEMP3,SYSTEMP4
0015B7	92E0 038E	STS TP_Y,SYSTEMP3
0015B9	90E0 038F	LDS SYSTEMP3,TP_Y_H
0015BB	90F0 03A9	LDS SYSTEMP4,YOFFSET_H
0015BD	1CEF	ADC SYSTEMP3,SYSTEMP4
0015BE	92E0 038F	STS TP_Y_H,SYSTEMP3
0015C0	C0B7	RJMP SYSSELECTEND2
		SYSSELECT2CASE2
0015C1	9160 0342	LDS SYSCALCTEMPA,ORIENTATION_SSD1289
0015C3	3062	CPI SYSCALCTEMPA,2
0015C4	F579	BRNE SYSSELECT2CASE3
0015C5	EE0F	LDI SYSTEMP5,239
0015C6	90E0 038C	LDS SYSTEMP3,TP_X
0015C8	190E	SUB SYSTEMP5,SYSTEMP3
0015C9	9300 038C	STS TP_X,SYSTEMP5
0015CB	E000	LDI SYSTEMP5,0
0015CC	90E0 038D	LDS SYSTEMP3,TP_X_H
0015CE	090E	SBC SYSTEMP5,SYSTEMP3
0015CF	9300 038D	STS TP_X_H,SYSTEMP5
0015D1	9160 038E	LDS SYSWORDTEMPA,TP_Y
0015D3	9170 038F	LDS SYSWORDTEMPA_H,TP_Y_H
0015D5	E1CE	LDI SYSWORDTEMPB,30
0015D6	E0D0	LDI SYSWORDTEMPB_H,0
0015D7	940E 2BCA	CALL SYSMULTSUB16
0015D9	2C60	MOV SYSTEMP1,SYSWORDTEMPX
0015DA	2C71	MOV SYSTEMP1_H,SYSWORDTEMPX_H
0015DB	2D66	MOV SYSWORDTEMPA,SYSTEMP1
0015DC	2D77	MOV SYSWORDTEMPA_H,SYSTEMP1_H
0015DD	E3CF	LDI SYSWORDTEMPB,63
0015DE	E0D1	LDI SYSWORDTEMPB_H,1
0015DF	940E 2ABD	CALL SYSDIVSUB16
0015E1	2EA6	MOV SYSTEMP2,SYSWORDTEMPA
0015E2	2EB7	MOV SYSTEMP2_H,SYSWORDTEMPA_H
0015E3	E10E	LDI SYSTEMP5,30
0015E4	190A	SUB SYSTEMP5,SYSTEMP2
0015E5	2E60	MOV SYSTEMP1,SYSTEMP5
0015E6	E000	LDI SYSTEMP5,0
0015E7	090B	SBC SYSTEMP5,SYSTEMP2_H
0015E8	2E70	MOV SYSTEMP1_H,SYSTEMP5
0015E9	90E0 038E	LDS SYSTEMP3,TP_Y
0015EB	18E6	SUB SYSTEMP3,SYSTEMP1
0015EC	92E0 038E	STS TP_Y,SYSTEMP3
0015EE	90E0 038F	LDS SYSTEMP3,TP_Y_H
0015F0	08E7	SBC SYSTEMP3,SYSTEMP1_H
0015F1	92E0 038F	STS TP_Y_H,SYSTEMP3
0015F3	C084	RJMP SYSSELECTEND2
		SYSSELECT2CASE3
0015F4	9160 0342	LDS SYSCALCTEMPA,ORIENTATION_SSD1289
0015F6	3061	CPI SYSCALCTEMPA,1
0015F7	F5A9	BRNE SYSSELECT2CASE4
0015F8	9160 038C	LDS SYSCALCTEMPA,TP_X
0015FA	9170 038D	LDS SYSCALCTEMPA_H,TP_X_H
0015FC	91C0 038E	LDS SYSCALCTEMPB,TP_Y
0015FE	91D0 038F	LDS SYSCALCTEMPB_H,TP_Y_H
001600	940E 2A49	CALL SWAP149
001602	9360 038C	STS TP_X,SYSCALCTEMPA
001604	9370 038D	STS TP_X_H,SYSCALCTEMPA_H
001606	93C0 038E	STS TP_Y,SYSCALCTEMPB
001608	93D0 038F	STS TP_Y_H,SYSCALCTEMPB_H
00160A	9160 038C	LDS SYSWORDTEMPA,TP_X
00160C	9170 038D	LDS SYSWORDTEMPA_H,TP_X_H
00160E	E1CE	LDI SYSWORDTEMPB,30
00160F	E0D0	LDI SYSWORDTEMPB_H,0
001610	940E 2BCA	CALL SYSMULTSUB16
001612	2C60	MOV SYSTEMP1,SYSWORDTEMPX
001613	2C71	MOV SYSTEMP1_H,SYSWORDTEMPX_H
001614	2D66	MOV SYSWORDTEMPA,SYSTEMP1
001615	2D77	MOV SYSWORDTEMPA_H,SYSTEMP1_H
001616	E3CF	LDI SYSWORDTEMPB,63
001617	E0D1	LDI SYSWORDTEMPB_H,1
001618	940E 2ABD	CALL SYSDIVSUB16
00161A	2EA6	MOV SYSTEMP2,SYSWORDTEMPA
00161B	2EB7	MOV SYSTEMP2_H,SYSWORDTEMPA_H
00161C	E10E	LDI SYSTEMP5,30
00161D	190A	SUB SYSTEMP5,SYSTEMP2
00161E	2E60	MOV SYSTEMP1,SYSTEMP5
00161F	E000	LDI SYSTEMP5,0
001620	090B	SBC SYSTEMP5,SYSTEMP2_H
001621	2E70	MOV SYSTEMP1_H,SYSTEMP5
001622	90E0 038C	LDS SYSTEMP3,TP_X
001624	18E6	SUB SYSTEMP3,SYSTEMP1
001625	92E0 038C	STS TP_X,SYSTEMP3
001627	90E0 038D	LDS SYSTEMP3,TP_X_H
001629	08E7	SBC SYSTEMP3,SYSTEMP1_H
00162A	92E0 038D	STS TP_X_H,SYSTEMP3
00162C	C04B	RJMP SYSSELECTEND2
		SYSSELECT2CASE4
00162D	9160 0342	LDS SYSCALCTEMPA,ORIENTATION_SSD1289
00162F	3063	CPI SYSCALCTEMPA,3
001630	F009	BREQ PC + 2
001631	C046	RJMP SYSSELECTEND2
001632	9160 038C	LDS SYSCALCTEMPA,TP_X
001634	9170 038D	LDS SYSCALCTEMPA_H,TP_X_H
001636	91C0 038E	LDS SYSCALCTEMPB,TP_Y
001638	91D0 038F	LDS SYSCALCTEMPB_H,TP_Y_H
00163A	940E 2A49	CALL SWAP149
00163C	9360 038C	STS TP_X,SYSCALCTEMPA
00163E	9370 038D	STS TP_X_H,SYSCALCTEMPA_H
001640	93C0 038E	STS TP_Y,SYSCALCTEMPB
001642	93D0 038F	STS TP_Y_H,SYSCALCTEMPB_H
001644	E30F	LDI SYSTEMP5,63
001645	90E0 038C	LDS SYSTEMP3,TP_X
001647	190E	SUB SYSTEMP5,SYSTEMP3
001648	9300 038C	STS TP_X,SYSTEMP5
00164A	E001	LDI SYSTEMP5,1
00164B	90E0 038D	LDS SYSTEMP3,TP_X_H
00164D	090E	SBC SYSTEMP5,SYSTEMP3
00164E	9300 038D	STS TP_X_H,SYSTEMP5
001650	EE0F	LDI SYSTEMP5,239
001651	90E0 038E	LDS SYSTEMP3,TP_Y
001653	190E	SUB SYSTEMP5,SYSTEMP3
001654	9300 038E	STS TP_Y,SYSTEMP5
001656	E000	LDI SYSTEMP5,0
001657	90E0 038F	LDS SYSTEMP3,TP_Y_H
001659	090E	SBC SYSTEMP5,SYSTEMP3
00165A	9300 038F	STS TP_Y_H,SYSTEMP5
00165C	9160 038C	LDS SYSWORDTEMPA,TP_X
00165E	9170 038D	LDS SYSWORDTEMPA_H,TP_X_H
001660	E2C0	LDI SYSWORDTEMPB,32
001661	E0D0	LDI SYSWORDTEMPB_H,0
001662	940E 2BCA	CALL SYSMULTSUB16
001664	2C60	MOV SYSTEMP1,SYSWORDTEMPX
001665	2C71	MOV SYSTEMP1_H,SYSWORDTEMPX_H
001666	2D66	MOV SYSWORDTEMPA,SYSTEMP1
001667	2D77	MOV SYSWORDTEMPA_H,SYSTEMP1_H
001668	E3CF	LDI SYSWORDTEMPB,63
001669	E0D1	LDI SYSWORDTEMPB_H,1
00166A	940E 2ABD	CALL SYSDIVSUB16
00166C	2EA6	MOV SYSTEMP2,SYSWORDTEMPA
00166D	2EB7	MOV SYSTEMP2_H,SYSWORDTEMPA_H
00166E	90E0 038C	LDS SYSTEMP3,TP_X
001670	0CEA	ADD SYSTEMP3,SYSTEMP2
001671	92E0 038C	STS TP_X,SYSTEMP3
001673	90E0 038D	LDS SYSTEMP3,TP_X_H
001675	1CEB	ADC SYSTEMP3,SYSTEMP2_H
001676	92E0 038D	STS TP_X_H,SYSTEMP3
		SYSSELECTEND2
001678	9508	RET


		ADS7843_INIT
001679	986D	CBI DDRE,5
00167A	986C	CBI DDRE,4
00167B	9A6B	SBI DDRE,3
00167C	9150 0101	LDS SYSVALUECOPY,DDRH
00167E	6058	SBR SYSVALUECOPY,1<<3
00167F	9350 0101	STS DDRH,SYSVALUECOPY
001681	9A9D	SBI DDRG,5
001682	9A73	SBI PORTE,3
001683	9150 0102	LDS SYSVALUECOPY,PORTH
001685	6058	SBR SYSVALUECOPY,1<<3
001686	9350 0102	STS PORTH,SYSVALUECOPY
001688	9AA5	SBI PORTG,5
001689	E050	LDI SYSVALUECOPY,0
00168A	9350 038C	STS TP_X,SYSVALUECOPY
00168C	9350 038D	STS TP_X_H,SYSVALUECOPY
00168E	E050	LDI SYSVALUECOPY,0
00168F	9350 038E	STS TP_Y,SYSVALUECOPY
001691	9350 038F	STS TP_Y_H,SYSVALUECOPY
001693	E050	LDI SYSVALUECOPY,0
001694	9350 0390	STS T_X,SYSVALUECOPY
001696	9350 0391	STS T_X_H,SYSVALUECOPY
001698	E050	LDI SYSVALUECOPY,0
001699	9350 0392	STS T_Y,SYSVALUECOPY
00169B	9350 0393	STS T_Y_H,SYSVALUECOPY
00169D	C045	RJMP ADS7843_SETPRECISION


		FN_ADS7843_READ
00169E	E050	LDI SYSVALUECOPY,0
00169F	9350 02E8	STS ADS7843_COUNT,SYSVALUECOPY
0016A1	E050	LDI SYSVALUECOPY,0
0016A2	9350 02E9	STS ADS7843_DATA,SYSVALUECOPY
0016A4	9350 02EA	STS ADS7843_DATA_H,SYSVALUECOPY
0016A6	E05C	LDI SYSVALUECOPY,12
0016A7	9350 0380	STS SYSREPEATTEMP3,SYSVALUECOPY
		SYSREPEATLOOP3
0016A9	9150 02E9	LDS SYSVALUECOPY,ADS7843_DATA
0016AB	1F55	ROL SYSVALUECOPY
0016AC	9350 02E9	STS ADS7843_DATA,SYSVALUECOPY
0016AE	9150 02EA	LDS SYSVALUECOPY,ADS7843_DATA_H
0016B0	1F55	ROL SYSVALUECOPY
0016B1	9350 02EA	STS ADS7843_DATA_H,SYSVALUECOPY
0016B3	9150 0102	LDS SYSVALUECOPY,PORTH
0016B5	6058	SBR SYSVALUECOPY,1<<3
0016B6	9350 0102	STS PORTH,SYSVALUECOPY
0016B8	90E0 02E8	LDS SYSTEMP3,ADS7843_COUNT
0016BA	94E3	INC SYSTEMP3
0016BB	92E0 02E8	STS ADS7843_COUNT,SYSTEMP3
0016BD	9150 0102	LDS SYSVALUECOPY,PORTH
0016BF	7F57	CBR SYSVALUECOPY,1<<3
0016C0	9350 0102	STS PORTH,SYSVALUECOPY
0016C2	90E0 02E8	LDS SYSTEMP3,ADS7843_COUNT
0016C4	94E3	INC SYSTEMP3
0016C5	92E0 02E8	STS ADS7843_COUNT,SYSTEMP3
0016C7	9B65	SBIS PINE,5
0016C8	C00B	RJMP ENDIF80
0016C9	90E0 02E9	LDS SYSTEMP3,ADS7843_DATA
0016CB	94E3	INC SYSTEMP3
0016CC	92E0 02E9	STS ADS7843_DATA,SYSTEMP3
0016CE	90E0 02EA	LDS SYSTEMP3,ADS7843_DATA_H
0016D0	F409	BRNE PC + 2
0016D1	94E3	INC SYSTEMP3
0016D2	92E0 02EA	STS ADS7843_DATA_H,SYSTEMP3
		ENDIF80
0016D4	90E0 0380	LDS SYSTEMP3,SYSREPEATTEMP3
0016D6	94EA	DEC SYSTEMP3
0016D7	92E0 0380	STS SYSREPEATTEMP3,SYSTEMP3
0016D9	F679	BRNE SYSREPEATLOOP3
		SYSREPEATLOOPEND3
0016DA	9150 02E9	LDS SYSVALUECOPY,ADS7843_DATA
0016DC	9350 02EB	STS ADS7843_READ,SYSVALUECOPY
0016DE	9150 02EA	LDS SYSVALUECOPY,ADS7843_DATA_H
0016E0	9350 02EC	STS ADS7843_READ_H,SYSVALUECOPY
0016E2	9508	RET


		ADS7843_SETPRECISION
		SYSSELECT7CASE1
0016E3	9160 0344	LDS SYSCALCTEMPA,PRECISION
0016E5	3061	CPI SYSCALCTEMPA,1
0016E6	F421	BRNE SYSSELECT7CASE2
0016E7	E051	LDI SYSVALUECOPY,1
0016E8	9350 0343	STS PREC,SYSVALUECOPY
0016EA	C01B	RJMP SYSSELECTEND7
		SYSSELECT7CASE2
0016EB	9160 0344	LDS SYSCALCTEMPA,PRECISION
0016ED	3062	CPI SYSCALCTEMPA,2
0016EE	F421	BRNE SYSSELECT7CASE3
0016EF	E05C	LDI SYSVALUECOPY,12
0016F0	9350 0343	STS PREC,SYSVALUECOPY
0016F2	C013	RJMP SYSSELECTEND7
		SYSSELECT7CASE3
0016F3	9160 0344	LDS SYSCALCTEMPA,PRECISION
0016F5	3063	CPI SYSCALCTEMPA,3
0016F6	F421	BRNE SYSSELECT7CASE4
0016F7	E15B	LDI SYSVALUECOPY,27
0016F8	9350 0343	STS PREC,SYSVALUECOPY
0016FA	C00B	RJMP SYSSELECTEND7
		SYSSELECT7CASE4
0016FB	9160 0344	LDS SYSCALCTEMPA,PRECISION
0016FD	3064	CPI SYSCALCTEMPA,4
0016FE	F421	BRNE SYSSELECT7CASE5
0016FF	E656	LDI SYSVALUECOPY,102
001700	9350 0343	STS PREC,SYSVALUECOPY
001702	C003	RJMP SYSSELECTEND7
		SYSSELECT7CASE5
001703	E05C	LDI SYSVALUECOPY,12
001704	9350 0343	STS PREC,SYSVALUECOPY
		SYSSELECTEND7
001706	9508	RET


		ADS7843_WRITE
001707	E050	LDI SYSVALUECOPY,0
001708	9350 02E8	STS ADS7843_COUNT,SYSVALUECOPY
00170A	9150 0102	LDS SYSVALUECOPY,PORTH
00170C	7F57	CBR SYSVALUECOPY,1<<3
00170D	9350 0102	STS PORTH,SYSVALUECOPY
00170F	E058	LDI SYSVALUECOPY,8
001710	9350 037F	STS SYSREPEATTEMP2,SYSVALUECOPY
		SYSREPEATLOOP2
001712	9050 0306	LDS SYSBITTEST,CONTROLBYTE
001714	FE57	SBRS SYSBITTEST,7
001715	C002	RJMP ELSE79_1
001716	9AA5	SBI PORTG,5
001717	C001	RJMP ENDIF79
		ELSE79_1
001718	98A5	CBI PORTG,5
		ENDIF79
001719	9150 0306	LDS SYSVALUECOPY,CONTROLBYTE
00171B	1F55	ROL SYSVALUECOPY
00171C	9350 0306	STS CONTROLBYTE,SYSVALUECOPY
00171E	9150 0102	LDS SYSVALUECOPY,PORTH
001720	7F57	CBR SYSVALUECOPY,1<<3
001721	9350 0102	STS PORTH,SYSVALUECOPY
001723	90E0 02E8	LDS SYSTEMP3,ADS7843_COUNT
001725	94E3	INC SYSTEMP3
001726	92E0 02E8	STS ADS7843_COUNT,SYSTEMP3
001728	9150 0102	LDS SYSVALUECOPY,PORTH
00172A	6058	SBR SYSVALUECOPY,1<<3
00172B	9350 0102	STS PORTH,SYSVALUECOPY
00172D	90E0 02E8	LDS SYSTEMP3,ADS7843_COUNT
00172F	94E3	INC SYSTEMP3
001730	92E0 02E8	STS ADS7843_COUNT,SYSTEMP3
001732	90E0 037F	LDS SYSTEMP3,SYSREPEATTEMP2
001734	94EA	DEC SYSTEMP3
001735	92E0 037F	STS SYSREPEATTEMP2,SYSTEMP3
001737	F6D1	BRNE SYSREPEATLOOP2
		SYSREPEATLOOPEND2
001738	9508	RET


		CREATEBUTTON
001739	9150 02EF	LDS SYSVALUECOPY,BX1
00173B	9350 0357	STS RX1,SYSVALUECOPY
00173D	9150 02F0	LDS SYSVALUECOPY,BX1_H
00173F	9350 0358	STS RX1_H,SYSVALUECOPY
001741	9150 02F3	LDS SYSVALUECOPY,BY1
001743	9350 035B	STS RY1,SYSVALUECOPY
001745	9150 02F4	LDS SYSVALUECOPY,BY1_H
001747	9350 035C	STS RY1_H,SYSVALUECOPY
001749	9150 02F1	LDS SYSVALUECOPY,BX2
00174B	9350 0359	STS RX2,SYSVALUECOPY
00174D	9150 02F2	LDS SYSVALUECOPY,BX2_H
00174F	9350 035A	STS RX2_H,SYSVALUECOPY
001751	9150 02F5	LDS SYSVALUECOPY,BY2
001753	9350 035D	STS RY2,SYSVALUECOPY
001755	9150 02F6	LDS SYSVALUECOPY,BY2_H
001757	9350 035E	STS RY2_H,SYSVALUECOPY
001759	9150 0315	LDS SYSVALUECOPY,FILLCOLOR
00175B	9350 0304	STS COLOR,SYSVALUECOPY
00175D	9150 0316	LDS SYSVALUECOPY,FILLCOLOR_H
00175F	9350 0305	STS COLOR_H,SYSVALUECOPY
001761	D185	RCALL FILLROUNDRECT33
001762	9150 02EF	LDS SYSVALUECOPY,BX1
001764	9350 0357	STS RX1,SYSVALUECOPY
001766	9150 02F0	LDS SYSVALUECOPY,BX1_H
001768	9350 0358	STS RX1_H,SYSVALUECOPY
00176A	9150 02F3	LDS SYSVALUECOPY,BY1
00176C	9350 035B	STS RY1,SYSVALUECOPY
00176E	9150 02F4	LDS SYSVALUECOPY,BY1_H
001770	9350 035C	STS RY1_H,SYSVALUECOPY
001772	9150 02F1	LDS SYSVALUECOPY,BX2
001774	9350 0359	STS RX2,SYSVALUECOPY
001776	9150 02F2	LDS SYSVALUECOPY,BX2_H
001778	9350 035A	STS RX2_H,SYSVALUECOPY
00177A	9150 02F5	LDS SYSVALUECOPY,BY2
00177C	9350 035D	STS RY2,SYSVALUECOPY
00177E	9150 02F6	LDS SYSVALUECOPY,BY2_H
001780	9350 035E	STS RY2_H,SYSVALUECOPY
001782	9150 02ED	LDS SYSVALUECOPY,BORDERCOLOR
001784	9350 0304	STS COLOR,SYSVALUECOPY
001786	9150 02EE	LDS SYSVALUECOPY,BORDERCOLOR_H
001788	9350 0305	STS COLOR_H,SYSVALUECOPY
00178A	940E 266F	CALL ROUNDRECT31
00178C	91A0 037B	LDS SYSSTRINGA,SYSPRINTDATAHANDLER
00178E	91B0 037C	LDS SYSSTRINGA_H,SYSPRINTDATAHANDLER_H
001790	90A0 02EF	LDS SYSTEMP2,BX1
001792	90E0 02F1	LDS SYSTEMP3,BX2
001794	0CAE	ADD SYSTEMP2,SYSTEMP3
001795	2C6A	MOV SYSTEMP1,SYSTEMP2
001796	90A0 02F0	LDS SYSTEMP2,BX1_H
001798	90E0 02F2	LDS SYSTEMP3,BX2_H
00179A	1CAE	ADC SYSTEMP2,SYSTEMP3
00179B	2C7A	MOV SYSTEMP1_H,SYSTEMP2
00179C	2D66	MOV SYSWORDTEMPA,SYSTEMP1
00179D	2D77	MOV SYSWORDTEMPA_H,SYSTEMP1_H
00179E	E0C2	LDI SYSWORDTEMPB,2
00179F	E0D0	LDI SYSWORDTEMPB_H,0
0017A0	940E 2ABD	CALL SYSDIVSUB16
0017A2	2EA6	MOV SYSTEMP2,SYSWORDTEMPA
0017A3	2EB7	MOV SYSTEMP2_H,SYSWORDTEMPA_H
0017A4	916C	LD SYSBYTETEMPA,X
0017A5	E0C6	LDI SYSBYTETEMPB,6
0017A6	9F6C	MUL SYSBYTETEMPA,SYSBYTETEMPB
0017A7	2CE0	MOV SYSTEMP3,SYSBYTETEMPX
0017A8	2D6E	MOV SYSBYTETEMPA,SYSTEMP3
0017A9	91C0 035F	LDS SYSBYTETEMPB,SIZE
0017AB	9F6C	MUL SYSBYTETEMPA,SYSBYTETEMPB
0017AC	2CF0	MOV SYSTEMP4,SYSBYTETEMPX
0017AD	2C6F	MOV SYSTEMP1,SYSTEMP4
0017AE	9466	LSR SYSTEMP1
0017AF	18A6	SUB SYSTEMP2,SYSTEMP1
0017B0	92A0 03A2	STS XCALC1,SYSTEMP2
0017B2	E000	LDI SYSTEMP5,0
0017B3	0AB0	SBC SYSTEMP2_H,SYSTEMP5
0017B4	92B0 03A3	STS XCALC1_H,SYSTEMP2_H
0017B6	90E0 02F3	LDS SYSTEMP3,BY1
0017B8	90F0 02F5	LDS SYSTEMP4,BY2
0017BA	0CEF	ADD SYSTEMP3,SYSTEMP4
0017BB	2C6E	MOV SYSTEMP1,SYSTEMP3
0017BC	90E0 02F4	LDS SYSTEMP3,BY1_H
0017BE	90F0 02F6	LDS SYSTEMP4,BY2_H
0017C0	1CEF	ADC SYSTEMP3,SYSTEMP4
0017C1	2C7E	MOV SYSTEMP1_H,SYSTEMP3
0017C2	2D66	MOV SYSWORDTEMPA,SYSTEMP1
0017C3	2D77	MOV SYSWORDTEMPA_H,SYSTEMP1_H
0017C4	E0C2	LDI SYSWORDTEMPB,2
0017C5	E0D0	LDI SYSWORDTEMPB_H,0
0017C6	940E 2ABD	CALL SYSDIVSUB16
0017C8	2EA6	MOV SYSTEMP2,SYSWORDTEMPA
0017C9	2EB7	MOV SYSTEMP2_H,SYSWORDTEMPA_H
0017CA	9160 035F	LDS SYSBYTETEMPA,SIZE
0017CC	E0C4	LDI SYSBYTETEMPB,4
0017CD	9F6C	MUL SYSBYTETEMPA,SYSBYTETEMPB
0017CE	18A0	SUB SYSTEMP2,SYSBYTETEMPX
0017CF	92A0 03A6	STS YCALC1,SYSTEMP2
0017D1	E000	LDI SYSTEMP5,0
0017D2	0AB0	SBC SYSTEMP2_H,SYSTEMP5
0017D3	92B0 03A7	STS YCALC1_H,SYSTEMP2_H
0017D5	9150 0319	LDS SYSVALUECOPY,GLCDBACKGROUND
0017D7	9350 0388	STS TEMPCOLOR1,SYSVALUECOPY
0017D9	9150 031A	LDS SYSVALUECOPY,GLCDBACKGROUND_H
0017DB	9350 0389	STS TEMPCOLOR1_H,SYSVALUECOPY
0017DD	9150 0322	LDS SYSVALUECOPY,GLCDFOREGROUND
0017DF	9350 038A	STS TEMPCOLOR2,SYSVALUECOPY
0017E1	9150 0323	LDS SYSVALUECOPY,GLCDFOREGROUND_H
0017E3	9350 038B	STS TEMPCOLOR2_H,SYSVALUECOPY
0017E5	9150 0315	LDS SYSVALUECOPY,FILLCOLOR
0017E7	9350 0319	STS GLCDBACKGROUND,SYSVALUECOPY
0017E9	9150 0316	LDS SYSVALUECOPY,FILLCOLOR_H
0017EB	9350 031A	STS GLCDBACKGROUND_H,SYSVALUECOPY
0017ED	9150 03A2	LDS SYSVALUECOPY,XCALC1
0017EF	9350 0346	STS PRINTLOCX,SYSVALUECOPY
0017F1	9150 03A3	LDS SYSVALUECOPY,XCALC1_H
0017F3	9350 0347	STS PRINTLOCX_H,SYSVALUECOPY
0017F5	9150 03A6	LDS SYSVALUECOPY,YCALC1
0017F7	9350 0348	STS PRINTLOCY,SYSVALUECOPY
0017F9	9150 03A7	LDS SYSVALUECOPY,YCALC1_H
0017FB	9350 0349	STS PRINTLOCY_H,SYSVALUECOPY
0017FD	9150 037B	LDS SYSVALUECOPY,SYSPRINTDATAHANDLER
0017FF	9350 037B	STS SYSPRINTDATAHANDLER,SYSVALUECOPY
001801	9150 037C	LDS SYSVALUECOPY,SYSPRINTDATAHANDLER_H
001803	9350 037C	STS SYSPRINTDATAHANDLER_H,SYSVALUECOPY
001805	9150 0313	LDS SYSVALUECOPY,FCOLOR
001807	9350 0322	STS GLCDFOREGROUND,SYSVALUECOPY
001809	9150 0314	LDS SYSVALUECOPY,FCOLOR_H
00180B	9350 0323	STS GLCDFOREGROUND_H,SYSVALUECOPY
00180D	940E 257A	CALL PRINT_SSD1289513
00180F	9150 0388	LDS SYSVALUECOPY,TEMPCOLOR1
001811	9350 0319	STS GLCDBACKGROUND,SYSVALUECOPY
001813	9150 0389	LDS SYSVALUECOPY,TEMPCOLOR1_H
001815	9350 031A	STS GLCDBACKGROUND_H,SYSVALUECOPY
001817	9150 038A	LDS SYSVALUECOPY,TEMPCOLOR2
001819	9350 0322	STS GLCDFOREGROUND,SYSVALUECOPY
00181B	9150 038B	LDS SYSVALUECOPY,TEMPCOLOR2_H
00181D	9350 0323	STS GLCDFOREGROUND_H,SYSVALUECOPY
00181F	9508	RET


		DELAY_MS
001820	95E3	INC SYSWAITTEMPMS_H
		DMS_START
001821	EFAE	LDI DELAYTEMP2,254
		DMS_OUTER
001822	E194	LDI DELAYTEMP,20
		DMS_INNER
001823	959A	DEC DELAYTEMP
001824	F7F1	BRNE DMS_INNER
001825	95AA	DEC DELAYTEMP2
001826	F7D9	BRNE DMS_OUTER
001827	95DA	DEC SYSWAITTEMPMS
001828	F7C1	BRNE DMS_START
001829	95EA	DEC SYSWAITTEMPMS_H
00182A	F7B1	BRNE DMS_START
00182B	9508	RET


		DELAY_S
		DS_START
00182C	EED8	LDI SYSWAITTEMPMS,232
00182D	E0E3	LDI SYSWAITTEMPMS_H,3
00182E	DFF1	RCALL DELAY_MS
00182F	95FA	DEC SYSWAITTEMPS
001830	F7D9	BRNE DS_START
001831	9508	RET


		FILLEDBOX_SSD1289
001832	91C0 033A	LDS SYSWORDTEMPB,LINEX1
001834	91D0 033B	LDS SYSWORDTEMPB_H,LINEX1_H
001836	9160 033C	LDS SYSWORDTEMPA,LINEX2
001838	9170 033D	LDS SYSWORDTEMPA_H,LINEX2_H
00183A	940E 2A6D	CALL SYSCOMPLESSTHAN16
00183C	FE00	SBRS SYSBYTETEMPX,0
00183D	C018	RJMP ENDIF57
00183E	9150 033A	LDS SYSVALUECOPY,LINEX1
001840	9350 0326	STS GLCDTEMP,SYSVALUECOPY
001842	9150 033B	LDS SYSVALUECOPY,LINEX1_H
001844	9350 0327	STS GLCDTEMP_H,SYSVALUECOPY
001846	9150 033C	LDS SYSVALUECOPY,LINEX2
001848	9350 033A	STS LINEX1,SYSVALUECOPY
00184A	9150 033D	LDS SYSVALUECOPY,LINEX2_H
00184C	9350 033B	STS LINEX1_H,SYSVALUECOPY
00184E	9150 0326	LDS SYSVALUECOPY,GLCDTEMP
001850	9350 033C	STS LINEX2,SYSVALUECOPY
001852	9150 0327	LDS SYSVALUECOPY,GLCDTEMP_H
001854	9350 033D	STS LINEX2_H,SYSVALUECOPY
		ENDIF57
001856	91C0 033E	LDS SYSWORDTEMPB,LINEY1
001858	91D0 033F	LDS SYSWORDTEMPB_H,LINEY1_H
00185A	9160 0340	LDS SYSWORDTEMPA,LINEY2
00185C	9170 0341	LDS SYSWORDTEMPA_H,LINEY2_H
00185E	940E 2A6D	CALL SYSCOMPLESSTHAN16
001860	FE00	SBRS SYSBYTETEMPX,0
001861	C018	RJMP ENDIF58
001862	9150 033E	LDS SYSVALUECOPY,LINEY1
001864	9350 0326	STS GLCDTEMP,SYSVALUECOPY
001866	9150 033F	LDS SYSVALUECOPY,LINEY1_H
001868	9350 0327	STS GLCDTEMP_H,SYSVALUECOPY
00186A	9150 0340	LDS SYSVALUECOPY,LINEY2
00186C	9350 033E	STS LINEY1,SYSVALUECOPY
00186E	9150 0341	LDS SYSVALUECOPY,LINEY2_H
001870	9350 033F	STS LINEY1_H,SYSVALUECOPY
001872	9150 0326	LDS SYSVALUECOPY,GLCDTEMP
001874	9350 0340	STS LINEY2,SYSVALUECOPY
001876	9150 0327	LDS SYSVALUECOPY,GLCDTEMP_H
001878	9350 0341	STS LINEY2_H,SYSVALUECOPY
		ENDIF58
00187A	9150 033A	LDS SYSVALUECOPY,LINEX1
00187C	9350 0311	STS DRAWLINE,SYSVALUECOPY
00187E	9150 033B	LDS SYSVALUECOPY,LINEX1_H
001880	9350 0312	STS DRAWLINE_H,SYSVALUECOPY
		SYSFORLOOP5
001882	9150 033E	LDS SYSVALUECOPY,LINEY1
001884	9350 0326	STS GLCDTEMP,SYSVALUECOPY
001886	9150 033F	LDS SYSVALUECOPY,LINEY1_H
001888	9350 0327	STS GLCDTEMP_H,SYSVALUECOPY
		SYSFORLOOP6
00188A	9150 0311	LDS SYSVALUECOPY,DRAWLINE
00188C	9350 034A	STS PX1,SYSVALUECOPY
00188E	9150 0312	LDS SYSVALUECOPY,DRAWLINE_H
001890	9350 034B	STS PX1_H,SYSVALUECOPY
001892	9150 0326	LDS SYSVALUECOPY,GLCDTEMP
001894	9350 034E	STS PY1,SYSVALUECOPY
001896	9150 0327	LDS SYSVALUECOPY,GLCDTEMP_H
001898	9350 034F	STS PY1_H,SYSVALUECOPY
00189A	9150 032A	LDS SYSVALUECOPY,LINECOLOUR
00189C	9350 0304	STS COLOR,SYSVALUECOPY
00189E	9150 032B	LDS SYSVALUECOPY,LINECOLOUR_H
0018A0	9350 0305	STS COLOR_H,SYSVALUECOPY
0018A2	940E 25DB	CALL PSET_SSD1289
0018A4	90E0 0340	LDS SYSTEMP3,LINEY2
0018A6	90F0 0326	LDS SYSTEMP4,GLCDTEMP
0018A8	18EF	SUB SYSTEMP3,SYSTEMP4
0018A9	2C6E	MOV SYSTEMP1,SYSTEMP3
0018AA	90E0 0341	LDS SYSTEMP3,LINEY2_H
0018AC	90F0 0327	LDS SYSTEMP4,GLCDTEMP_H
0018AE	08EF	SBC SYSTEMP3,SYSTEMP4
0018AF	2C7E	MOV SYSTEMP1_H,SYSTEMP3
0018B0	2D66	MOV SYSWORDTEMPA,SYSTEMP1
0018B1	2D77	MOV SYSWORDTEMPA_H,SYSTEMP1_H
0018B2	E0C0	LDI SYSWORDTEMPB,0
0018B3	E0D0	LDI SYSWORDTEMPB_H,0
0018B4	940E 2A55	CALL SYSCOMPEQUAL16
0018B6	9400	COM SYSBYTETEMPX
0018B7	FE00	SBRS SYSBYTETEMPX,0
0018B8	C00C	RJMP ENDIF59
0018B9	90E0 0326	LDS SYSTEMP3,GLCDTEMP
0018BB	94E3	INC SYSTEMP3
0018BC	92E0 0326	STS GLCDTEMP,SYSTEMP3
0018BE	90E0 0327	LDS SYSTEMP3,GLCDTEMP_H
0018C0	F409	BRNE PC + 2
0018C1	94E3	INC SYSTEMP3
0018C2	92E0 0327	STS GLCDTEMP_H,SYSTEMP3
0018C4	CFC5	RJMP SYSFORLOOP6
		ENDIF59
		SYSFORLOOPEND6
0018C5	90E0 033C	LDS SYSTEMP3,LINEX2
0018C7	90F0 0311	LDS SYSTEMP4,DRAWLINE
0018C9	18EF	SUB SYSTEMP3,SYSTEMP4
0018CA	2C6E	MOV SYSTEMP1,SYSTEMP3
0018CB	90E0 033D	LDS SYSTEMP3,LINEX2_H
0018CD	90F0 0312	LDS SYSTEMP4,DRAWLINE_H
0018CF	08EF	SBC SYSTEMP3,SYSTEMP4
0018D0	2C7E	MOV SYSTEMP1_H,SYSTEMP3
0018D1	2D66	MOV SYSWORDTEMPA,SYSTEMP1
0018D2	2D77	MOV SYSWORDTEMPA_H,SYSTEMP1_H
0018D3	E0C0	LDI SYSWORDTEMPB,0
0018D4	E0D0	LDI SYSWORDTEMPB_H,0
0018D5	940E 2A55	CALL SYSCOMPEQUAL16
0018D7	9400	COM SYSBYTETEMPX
0018D8	FE00	SBRS SYSBYTETEMPX,0
0018D9	C00C	RJMP ENDIF60
0018DA	90E0 0311	LDS SYSTEMP3,DRAWLINE
0018DC	94E3	INC SYSTEMP3
0018DD	92E0 0311	STS DRAWLINE,SYSTEMP3
0018DF	90E0 0312	LDS SYSTEMP3,DRAWLINE_H
0018E1	F409	BRNE PC + 2
0018E2	94E3	INC SYSTEMP3
0018E3	92E0 0312	STS DRAWLINE_H,SYSTEMP3
0018E5	CF9C	RJMP SYSFORLOOP5
		ENDIF60
		SYSFORLOOPEND5
0018E6	9508	RET


		FILLROUNDRECT33
0018E7	91C0 0357	LDS SYSWORDTEMPB,RX1
0018E9	91D0 0358	LDS SYSWORDTEMPB_H,RX1_H
0018EB	9160 0359	LDS SYSWORDTEMPA,RX2
0018ED	9170 035A	LDS SYSWORDTEMPA_H,RX2_H
0018EF	940E 2A6D	CALL SYSCOMPLESSTHAN16
0018F1	FE00	SBRS SYSBYTETEMPX,0
0018F2	C012	RJMP ENDIF75
0018F3	9160 0357	LDS SYSCALCTEMPA,RX1
0018F5	9170 0358	LDS SYSCALCTEMPA_H,RX1_H
0018F7	91C0 0359	LDS SYSCALCTEMPB,RX2
0018F9	91D0 035A	LDS SYSCALCTEMPB_H,RX2_H
0018FB	940E 2A49	CALL SWAP149
0018FD	9360 0357	STS RX1,SYSCALCTEMPA
0018FF	9370 0358	STS RX1_H,SYSCALCTEMPA_H
001901	93C0 0359	STS RX2,SYSCALCTEMPB
001903	93D0 035A	STS RX2_H,SYSCALCTEMPB_H
		ENDIF75
001905	91C0 035B	LDS SYSWORDTEMPB,RY1
001907	91D0 035C	LDS SYSWORDTEMPB_H,RY1_H
001909	9160 035D	LDS SYSWORDTEMPA,RY2
00190B	9170 035E	LDS SYSWORDTEMPA_H,RY2_H
00190D	940E 2A6D	CALL SYSCOMPLESSTHAN16
00190F	FE00	SBRS SYSBYTETEMPX,0
001910	C012	RJMP ENDIF76
001911	9160 035B	LDS SYSCALCTEMPA,RY1
001913	9170 035C	LDS SYSCALCTEMPA_H,RY1_H
001915	91C0 035D	LDS SYSCALCTEMPB,RY2
001917	91D0 035E	LDS SYSCALCTEMPB_H,RY2_H
001919	940E 2A49	CALL SWAP149
00191B	9360 035B	STS RY1,SYSCALCTEMPA
00191D	9370 035C	STS RY1_H,SYSCALCTEMPA_H
00191F	93C0 035D	STS RY2,SYSCALCTEMPB
001921	93D0 035E	STS RY2_H,SYSCALCTEMPB_H
		ENDIF76
001923	90E0 0359	LDS SYSTEMP3,RX2
001925	90F0 0357	LDS SYSTEMP4,RX1
001927	18EF	SUB SYSTEMP3,SYSTEMP4
001928	2C6E	MOV SYSTEMP1,SYSTEMP3
001929	90E0 035A	LDS SYSTEMP3,RX2_H
00192B	90F0 0358	LDS SYSTEMP4,RX1_H
00192D	08EF	SBC SYSTEMP3,SYSTEMP4
00192E	2C7E	MOV SYSTEMP1_H,SYSTEMP3
00192F	2DC6	MOV SYSWORDTEMPB,SYSTEMP1
001930	2DD7	MOV SYSWORDTEMPB_H,SYSTEMP1_H
001931	E064	LDI SYSWORDTEMPA,4
001932	E070	LDI SYSWORDTEMPA_H,0
001933	940E 2A6D	CALL SYSCOMPLESSTHAN16
001935	2CE0	MOV SYSTEMP3,SYSBYTETEMPX
001936	90F0 035D	LDS SYSTEMP4,RY2
001938	90A0 035B	LDS SYSTEMP2,RY1
00193A	18FA	SUB SYSTEMP4,SYSTEMP2
00193B	2C6F	MOV SYSTEMP1,SYSTEMP4
00193C	90F0 035E	LDS SYSTEMP4,RY2_H
00193E	90A0 035C	LDS SYSTEMP2,RY1_H
001940	08FA	SBC SYSTEMP4,SYSTEMP2
001941	2C7F	MOV SYSTEMP1_H,SYSTEMP4
001942	2DC6	MOV SYSWORDTEMPB,SYSTEMP1
001943	2DD7	MOV SYSWORDTEMPB_H,SYSTEMP1_H
001944	E064	LDI SYSWORDTEMPA,4
001945	E070	LDI SYSWORDTEMPA_H,0
001946	940E 2A6D	CALL SYSCOMPLESSTHAN16
001948	2CF0	MOV SYSTEMP4,SYSBYTETEMPX
001949	20FE	AND SYSTEMP4,SYSTEMP3
00194A	2C6F	MOV SYSTEMP1,SYSTEMP4
00194B	FE60	SBRS SYSTEMP1,0
00194C	C20F	RJMP ENDIF77
00194D	E050	LDI SYSVALUECOPY,0
00194E	9350 0317	STS FRI,SYSVALUECOPY
001950	9350 0318	STS FRI_H,SYSVALUECOPY
		SYSFORLOOP12
		SYSSELECT6CASE1
001952	9160 0317	LDS SYSWORDTEMPA,FRI
001954	9170 0318	LDS SYSWORDTEMPA_H,FRI_H
001956	E0C0	LDI SYSWORDTEMPB,0
001957	E0D0	LDI SYSWORDTEMPB_H,0
001958	940E 2A55	CALL SYSCOMPEQUAL16
00195A	FE00	SBRS SYSBYTETEMPX,0
00195B	C065	RJMP SYSSELECT6CASE2
00195C	90E0 0357	LDS SYSTEMP3,RX1
00195E	E003	LDI SYSTEMP5,3
00195F	0EE0	ADD SYSTEMP3,SYSTEMP5
001960	92E0 033A	STS LINEX1,SYSTEMP3
001962	90E0 0358	LDS SYSTEMP3,RX1_H
001964	E000	LDI SYSTEMP5,0
001965	1EE0	ADC SYSTEMP3,SYSTEMP5
001966	92E0 033B	STS LINEX1_H,SYSTEMP3
001968	9150 035B	LDS SYSVALUECOPY,RY1
00196A	9350 033E	STS LINEY1,SYSVALUECOPY
00196C	9150 035C	LDS SYSVALUECOPY,RY1_H
00196E	9350 033F	STS LINEY1_H,SYSVALUECOPY
001970	90E0 0359	LDS SYSTEMP3,RX2
001972	E003	LDI SYSTEMP5,3
001973	1AE0	SUB SYSTEMP3,SYSTEMP5
001974	92E0 033C	STS LINEX2,SYSTEMP3
001976	90E0 035A	LDS SYSTEMP3,RX2_H
001978	E000	LDI SYSTEMP5,0
001979	0AE0	SBC SYSTEMP3,SYSTEMP5
00197A	92E0 033D	STS LINEX2_H,SYSTEMP3
00197C	9150 035B	LDS SYSVALUECOPY,RY1
00197E	9350 0340	STS LINEY2,SYSVALUECOPY
001980	9150 035C	LDS SYSVALUECOPY,RY1_H
001982	9350 0341	STS LINEY2_H,SYSVALUECOPY
001984	9150 0304	LDS SYSVALUECOPY,COLOR
001986	9350 032A	STS LINECOLOUR,SYSVALUECOPY
001988	9150 0305	LDS SYSVALUECOPY,COLOR_H
00198A	9350 032B	STS LINECOLOUR_H,SYSVALUECOPY
00198C	940E 23A1	CALL LINE
00198E	90E0 0357	LDS SYSTEMP3,RX1
001990	E003	LDI SYSTEMP5,3
001991	0EE0	ADD SYSTEMP3,SYSTEMP5
001992	92E0 033A	STS LINEX1,SYSTEMP3
001994	90E0 0358	LDS SYSTEMP3,RX1_H
001996	E000	LDI SYSTEMP5,0
001997	1EE0	ADC SYSTEMP3,SYSTEMP5
001998	92E0 033B	STS LINEX1_H,SYSTEMP3
00199A	9150 035D	LDS SYSVALUECOPY,RY2
00199C	9350 033E	STS LINEY1,SYSVALUECOPY
00199E	9150 035E	LDS SYSVALUECOPY,RY2_H
0019A0	9350 033F	STS LINEY1_H,SYSVALUECOPY
0019A2	90E0 0359	LDS SYSTEMP3,RX2
0019A4	E003	LDI SYSTEMP5,3
0019A5	1AE0	SUB SYSTEMP3,SYSTEMP5
0019A6	92E0 033C	STS LINEX2,SYSTEMP3
0019A8	90E0 035A	LDS SYSTEMP3,RX2_H
0019AA	E000	LDI SYSTEMP5,0
0019AB	0AE0	SBC SYSTEMP3,SYSTEMP5
0019AC	92E0 033D	STS LINEX2_H,SYSTEMP3
0019AE	9150 035D	LDS SYSVALUECOPY,RY2
0019B0	9350 0340	STS LINEY2,SYSVALUECOPY
0019B2	9150 035E	LDS SYSVALUECOPY,RY2_H
0019B4	9350 0341	STS LINEY2_H,SYSVALUECOPY
0019B6	9150 0304	LDS SYSVALUECOPY,COLOR
0019B8	9350 032A	STS LINECOLOUR,SYSVALUECOPY
0019BA	9150 0305	LDS SYSVALUECOPY,COLOR_H
0019BC	9350 032B	STS LINECOLOUR_H,SYSVALUECOPY
0019BE	940E 23A1	CALL LINE
0019C0	C16A	RJMP SYSSELECTEND6
		SYSSELECT6CASE2
0019C1	9160 0317	LDS SYSWORDTEMPA,FRI
0019C3	9170 0318	LDS SYSWORDTEMPA_H,FRI_H
0019C5	E0C1	LDI SYSWORDTEMPB,1
0019C6	E0D0	LDI SYSWORDTEMPB_H,0
0019C7	940E 2A55	CALL SYSCOMPEQUAL16
0019C9	FE00	SBRS SYSBYTETEMPX,0
0019CA	C075	RJMP SYSSELECT6CASE3
0019CB	90E0 0357	LDS SYSTEMP3,RX1
0019CD	E002	LDI SYSTEMP5,2
0019CE	0EE0	ADD SYSTEMP3,SYSTEMP5
0019CF	92E0 033A	STS LINEX1,SYSTEMP3
0019D1	90E0 0358	LDS SYSTEMP3,RX1_H
0019D3	E000	LDI SYSTEMP5,0
0019D4	1EE0	ADC SYSTEMP3,SYSTEMP5
0019D5	92E0 033B	STS LINEX1_H,SYSTEMP3
0019D7	90E0 035B	LDS SYSTEMP3,RY1
0019D9	E001	LDI SYSTEMP5,1
0019DA	0EE0	ADD SYSTEMP3,SYSTEMP5
0019DB	92E0 033E	STS LINEY1,SYSTEMP3
0019DD	90E0 035C	LDS SYSTEMP3,RY1_H
0019DF	E000	LDI SYSTEMP5,0
0019E0	1EE0	ADC SYSTEMP3,SYSTEMP5
0019E1	92E0 033F	STS LINEY1_H,SYSTEMP3
0019E3	90E0 0359	LDS SYSTEMP3,RX2
0019E5	E002	LDI SYSTEMP5,2
0019E6	1AE0	SUB SYSTEMP3,SYSTEMP5
0019E7	92E0 033C	STS LINEX2,SYSTEMP3
0019E9	90E0 035A	LDS SYSTEMP3,RX2_H
0019EB	E000	LDI SYSTEMP5,0
0019EC	0AE0	SBC SYSTEMP3,SYSTEMP5
0019ED	92E0 033D	STS LINEX2_H,SYSTEMP3
0019EF	90E0 035B	LDS SYSTEMP3,RY1
0019F1	E001	LDI SYSTEMP5,1
0019F2	0EE0	ADD SYSTEMP3,SYSTEMP5
0019F3	92E0 0340	STS LINEY2,SYSTEMP3
0019F5	90E0 035C	LDS SYSTEMP3,RY1_H
0019F7	E000	LDI SYSTEMP5,0
0019F8	1EE0	ADC SYSTEMP3,SYSTEMP5
0019F9	92E0 0341	STS LINEY2_H,SYSTEMP3
0019FB	9150 0304	LDS SYSVALUECOPY,COLOR
0019FD	9350 032A	STS LINECOLOUR,SYSVALUECOPY
0019FF	9150 0305	LDS SYSVALUECOPY,COLOR_H
001A01	9350 032B	STS LINECOLOUR_H,SYSVALUECOPY
001A03	940E 23A1	CALL LINE
001A05	90E0 0357	LDS SYSTEMP3,RX1
001A07	E002	LDI SYSTEMP5,2
001A08	0EE0	ADD SYSTEMP3,SYSTEMP5
001A09	92E0 033A	STS LINEX1,SYSTEMP3
001A0B	90E0 0358	LDS SYSTEMP3,RX1_H
001A0D	E000	LDI SYSTEMP5,0
001A0E	1EE0	ADC SYSTEMP3,SYSTEMP5
001A0F	92E0 033B	STS LINEX1_H,SYSTEMP3
001A11	90E0 035D	LDS SYSTEMP3,RY2
001A13	E001	LDI SYSTEMP5,1
001A14	1AE0	SUB SYSTEMP3,SYSTEMP5
001A15	92E0 033E	STS LINEY1,SYSTEMP3
001A17	90E0 035E	LDS SYSTEMP3,RY2_H
001A19	E000	LDI SYSTEMP5,0
001A1A	0AE0	SBC SYSTEMP3,SYSTEMP5
001A1B	92E0 033F	STS LINEY1_H,SYSTEMP3
001A1D	90E0 0359	LDS SYSTEMP3,RX2
001A1F	E001	LDI SYSTEMP5,1
001A20	1AE0	SUB SYSTEMP3,SYSTEMP5
001A21	92E0 033C	STS LINEX2,SYSTEMP3
001A23	90E0 035A	LDS SYSTEMP3,RX2_H
001A25	E000	LDI SYSTEMP5,0
001A26	0AE0	SBC SYSTEMP3,SYSTEMP5
001A27	92E0 033D	STS LINEX2_H,SYSTEMP3
001A29	90E0 035D	LDS SYSTEMP3,RY2
001A2B	E001	LDI SYSTEMP5,1
001A2C	1AE0	SUB SYSTEMP3,SYSTEMP5
001A2D	92E0 0340	STS LINEY2,SYSTEMP3
001A2F	90E0 035E	LDS SYSTEMP3,RY2_H
001A31	E000	LDI SYSTEMP5,0
001A32	0AE0	SBC SYSTEMP3,SYSTEMP5
001A33	92E0 0341	STS LINEY2_H,SYSTEMP3
001A35	9150 0304	LDS SYSVALUECOPY,COLOR
001A37	9350 032A	STS LINECOLOUR,SYSVALUECOPY
001A39	9150 0305	LDS SYSVALUECOPY,COLOR_H
001A3B	9350 032B	STS LINECOLOUR_H,SYSVALUECOPY
001A3D	940E 23A1	CALL LINE
001A3F	C0EB	RJMP SYSSELECTEND6
		SYSSELECT6CASE3
001A40	9160 0317	LDS SYSWORDTEMPA,FRI
001A42	9170 0318	LDS SYSWORDTEMPA_H,FRI_H
001A44	E0C2	LDI SYSWORDTEMPB,2
001A45	E0D0	LDI SYSWORDTEMPB_H,0
001A46	940E 2A55	CALL SYSCOMPEQUAL16
001A48	FE00	SBRS SYSBYTETEMPX,0
001A49	C075	RJMP SYSSELECT6CASE4
001A4A	90E0 0357	LDS SYSTEMP3,RX1
001A4C	E001	LDI SYSTEMP5,1
001A4D	0EE0	ADD SYSTEMP3,SYSTEMP5
001A4E	92E0 033A	STS LINEX1,SYSTEMP3
001A50	90E0 0358	LDS SYSTEMP3,RX1_H
001A52	E000	LDI SYSTEMP5,0
001A53	1EE0	ADC SYSTEMP3,SYSTEMP5
001A54	92E0 033B	STS LINEX1_H,SYSTEMP3
001A56	90E0 035B	LDS SYSTEMP3,RY1
001A58	E002	LDI SYSTEMP5,2
001A59	0EE0	ADD SYSTEMP3,SYSTEMP5
001A5A	92E0 033E	STS LINEY1,SYSTEMP3
001A5C	90E0 035C	LDS SYSTEMP3,RY1_H
001A5E	E000	LDI SYSTEMP5,0
001A5F	1EE0	ADC SYSTEMP3,SYSTEMP5
001A60	92E0 033F	STS LINEY1_H,SYSTEMP3
001A62	90E0 0359	LDS SYSTEMP3,RX2
001A64	E001	LDI SYSTEMP5,1
001A65	1AE0	SUB SYSTEMP3,SYSTEMP5
001A66	92E0 033C	STS LINEX2,SYSTEMP3
001A68	90E0 035A	LDS SYSTEMP3,RX2_H
001A6A	E000	LDI SYSTEMP5,0
001A6B	0AE0	SBC SYSTEMP3,SYSTEMP5
001A6C	92E0 033D	STS LINEX2_H,SYSTEMP3
001A6E	90E0 035B	LDS SYSTEMP3,RY1
001A70	E002	LDI SYSTEMP5,2
001A71	0EE0	ADD SYSTEMP3,SYSTEMP5
001A72	92E0 0340	STS LINEY2,SYSTEMP3
001A74	90E0 035C	LDS SYSTEMP3,RY1_H
001A76	E000	LDI SYSTEMP5,0
001A77	1EE0	ADC SYSTEMP3,SYSTEMP5
001A78	92E0 0341	STS LINEY2_H,SYSTEMP3
001A7A	9150 0304	LDS SYSVALUECOPY,COLOR
001A7C	9350 032A	STS LINECOLOUR,SYSVALUECOPY
001A7E	9150 0305	LDS SYSVALUECOPY,COLOR_H
001A80	9350 032B	STS LINECOLOUR_H,SYSVALUECOPY
001A82	940E 23A1	CALL LINE
001A84	90E0 0357	LDS SYSTEMP3,RX1
001A86	E001	LDI SYSTEMP5,1
001A87	0EE0	ADD SYSTEMP3,SYSTEMP5
001A88	92E0 033A	STS LINEX1,SYSTEMP3
001A8A	90E0 0358	LDS SYSTEMP3,RX1_H
001A8C	E000	LDI SYSTEMP5,0
001A8D	1EE0	ADC SYSTEMP3,SYSTEMP5
001A8E	92E0 033B	STS LINEX1_H,SYSTEMP3
001A90	90E0 035D	LDS SYSTEMP3,RY2
001A92	E002	LDI SYSTEMP5,2
001A93	1AE0	SUB SYSTEMP3,SYSTEMP5
001A94	92E0 033E	STS LINEY1,SYSTEMP3
001A96	90E0 035E	LDS SYSTEMP3,RY2_H
001A98	E000	LDI SYSTEMP5,0
001A99	0AE0	SBC SYSTEMP3,SYSTEMP5
001A9A	92E0 033F	STS LINEY1_H,SYSTEMP3
001A9C	90E0 0359	LDS SYSTEMP3,RX2
001A9E	E001	LDI SYSTEMP5,1
001A9F	1AE0	SUB SYSTEMP3,SYSTEMP5
001AA0	92E0 033C	STS LINEX2,SYSTEMP3
001AA2	90E0 035A	LDS SYSTEMP3,RX2_H
001AA4	E000	LDI SYSTEMP5,0
001AA5	0AE0	SBC SYSTEMP3,SYSTEMP5
001AA6	92E0 033D	STS LINEX2_H,SYSTEMP3
001AA8	90E0 035D	LDS SYSTEMP3,RY2
001AAA	E002	LDI SYSTEMP5,2
001AAB	1AE0	SUB SYSTEMP3,SYSTEMP5
001AAC	92E0 0340	STS LINEY2,SYSTEMP3
001AAE	90E0 035E	LDS SYSTEMP3,RY2_H
001AB0	E000	LDI SYSTEMP5,0
001AB1	0AE0	SBC SYSTEMP3,SYSTEMP5
001AB2	92E0 0341	STS LINEY2_H,SYSTEMP3
001AB4	9150 0304	LDS SYSVALUECOPY,COLOR
001AB6	9350 032A	STS LINECOLOUR,SYSVALUECOPY
001AB8	9150 0305	LDS SYSVALUECOPY,COLOR_H
001ABA	9350 032B	STS LINECOLOUR_H,SYSVALUECOPY
001ABC	940E 23A1	CALL LINE
001ABE	C06C	RJMP SYSSELECTEND6
		SYSSELECT6CASE4
001ABF	9150 0357	LDS SYSVALUECOPY,RX1
001AC1	9350 033A	STS LINEX1,SYSVALUECOPY
001AC3	9150 0358	LDS SYSVALUECOPY,RX1_H
001AC5	9350 033B	STS LINEX1_H,SYSVALUECOPY
001AC7	90E0 035B	LDS SYSTEMP3,RY1
001AC9	90F0 0317	LDS SYSTEMP4,FRI
001ACB	0CEF	ADD SYSTEMP3,SYSTEMP4
001ACC	92E0 033E	STS LINEY1,SYSTEMP3
001ACE	90E0 035C	LDS SYSTEMP3,RY1_H
001AD0	90F0 0318	LDS SYSTEMP4,FRI_H
001AD2	1CEF	ADC SYSTEMP3,SYSTEMP4
001AD3	92E0 033F	STS LINEY1_H,SYSTEMP3
001AD5	9150 0359	LDS SYSVALUECOPY,RX2
001AD7	9350 033C	STS LINEX2,SYSVALUECOPY
001AD9	9150 035A	LDS SYSVALUECOPY,RX2_H
001ADB	9350 033D	STS LINEX2_H,SYSVALUECOPY
001ADD	90E0 035B	LDS SYSTEMP3,RY1
001ADF	90F0 0317	LDS SYSTEMP4,FRI
001AE1	0CEF	ADD SYSTEMP3,SYSTEMP4
001AE2	92E0 0340	STS LINEY2,SYSTEMP3
001AE4	90E0 035C	LDS SYSTEMP3,RY1_H
001AE6	90F0 0318	LDS SYSTEMP4,FRI_H
001AE8	1CEF	ADC SYSTEMP3,SYSTEMP4
001AE9	92E0 0341	STS LINEY2_H,SYSTEMP3
001AEB	9150 0304	LDS SYSVALUECOPY,COLOR
001AED	9350 032A	STS LINECOLOUR,SYSVALUECOPY
001AEF	9150 0305	LDS SYSVALUECOPY,COLOR_H
001AF1	9350 032B	STS LINECOLOUR_H,SYSVALUECOPY
001AF3	940E 23A1	CALL LINE
001AF5	9150 0357	LDS SYSVALUECOPY,RX1
001AF7	9350 033A	STS LINEX1,SYSVALUECOPY
001AF9	9150 0358	LDS SYSVALUECOPY,RX1_H
001AFB	9350 033B	STS LINEX1_H,SYSVALUECOPY
001AFD	90E0 035D	LDS SYSTEMP3,RY2
001AFF	90F0 0317	LDS SYSTEMP4,FRI
001B01	18EF	SUB SYSTEMP3,SYSTEMP4
001B02	92E0 033E	STS LINEY1,SYSTEMP3
001B04	90E0 035E	LDS SYSTEMP3,RY2_H
001B06	90F0 0318	LDS SYSTEMP4,FRI_H
001B08	08EF	SBC SYSTEMP3,SYSTEMP4
001B09	92E0 033F	STS LINEY1_H,SYSTEMP3
001B0B	9150 0359	LDS SYSVALUECOPY,RX2
001B0D	9350 033C	STS LINEX2,SYSVALUECOPY
001B0F	9150 035A	LDS SYSVALUECOPY,RX2_H
001B11	9350 033D	STS LINEX2_H,SYSVALUECOPY
001B13	90E0 035D	LDS SYSTEMP3,RY2
001B15	90F0 0317	LDS SYSTEMP4,FRI
001B17	18EF	SUB SYSTEMP3,SYSTEMP4
001B18	92E0 0340	STS LINEY2,SYSTEMP3
001B1A	90E0 035E	LDS SYSTEMP3,RY2_H
001B1C	90F0 0318	LDS SYSTEMP4,FRI_H
001B1E	08EF	SBC SYSTEMP3,SYSTEMP4
001B1F	92E0 0341	STS LINEY2_H,SYSTEMP3
001B21	9150 0304	LDS SYSVALUECOPY,COLOR
001B23	9350 032A	STS LINECOLOUR,SYSVALUECOPY
001B25	9150 0305	LDS SYSVALUECOPY,COLOR_H
001B27	9350 032B	STS LINECOLOUR_H,SYSVALUECOPY
001B29	940E 23A1	CALL LINE
		SYSSELECTEND6
001B2B	90E0 035D	LDS SYSTEMP3,RY2
001B2D	90F0 035B	LDS SYSTEMP4,RY1
001B2F	18EF	SUB SYSTEMP3,SYSTEMP4
001B30	2C6E	MOV SYSTEMP1,SYSTEMP3
001B31	90E0 035E	LDS SYSTEMP3,RY2_H
001B33	90F0 035C	LDS SYSTEMP4,RY1_H
001B35	08EF	SBC SYSTEMP3,SYSTEMP4
001B36	2C7E	MOV SYSTEMP1_H,SYSTEMP3
001B37	2D66	MOV SYSWORDTEMPA,SYSTEMP1
001B38	2D77	MOV SYSWORDTEMPA_H,SYSTEMP1_H
001B39	E0C2	LDI SYSWORDTEMPB,2
001B3A	E0D0	LDI SYSWORDTEMPB_H,0
001B3B	940E 2ABD	CALL SYSDIVSUB16
001B3D	2EA6	MOV SYSTEMP2,SYSWORDTEMPA
001B3E	2EB7	MOV SYSTEMP2_H,SYSWORDTEMPA_H
001B3F	90E0 0317	LDS SYSTEMP3,FRI
001B41	18AE	SUB SYSTEMP2,SYSTEMP3
001B42	2C6A	MOV SYSTEMP1,SYSTEMP2
001B43	90E0 0318	LDS SYSTEMP3,FRI_H
001B45	08BE	SBC SYSTEMP2_H,SYSTEMP3
001B46	2C7B	MOV SYSTEMP1_H,SYSTEMP2_H
001B47	2D66	MOV SYSWORDTEMPA,SYSTEMP1
001B48	2D77	MOV SYSWORDTEMPA_H,SYSTEMP1_H
001B49	E0C0	LDI SYSWORDTEMPB,0
001B4A	E0D0	LDI SYSWORDTEMPB_H,0
001B4B	940E 2A55	CALL SYSCOMPEQUAL16
001B4D	9400	COM SYSBYTETEMPX
001B4E	FE00	SBRS SYSBYTETEMPX,0
001B4F	C00C	RJMP ENDIF78
001B50	90E0 0317	LDS SYSTEMP3,FRI
001B52	94E3	INC SYSTEMP3
001B53	92E0 0317	STS FRI,SYSTEMP3
001B55	90E0 0318	LDS SYSTEMP3,FRI_H
001B57	F409	BRNE PC + 2
001B58	94E3	INC SYSTEMP3
001B59	92E0 0318	STS FRI_H,SYSTEMP3
001B5B	CDF6	RJMP SYSFORLOOP12
		ENDIF78
		SYSFORLOOPEND12
		ENDIF77
001B5C	9508	RET


		GLCDCHARCOL3EXTENDED1
001B5D	3FA0	CPI SYSSTRINGA, 240
001B5E	F010	BRLO PC + 3
001B5F	2400	CLR SYSBYTETEMPX
001B60	9508	RET
001B61	EDE0	LDI SYSREADA, LOW(TABLEGLCDCHARCOL3EXTENDED1<<1)
001B62	E3F6	LDI SYSREADA_H, HIGH(TABLEGLCDCHARCOL3EXTENDED1<<1)
001B63	0FEA	ADD SYSREADA, SYSSTRINGA
001B64	F408	BRCC PC + 2
001B65	95F3	INC SYSREADA_H
001B66	95C8	LPM
001B67	9508	RET
		TABLEGLCDCHARCOL3EXTENDED1
001B68	00EF 0C10 880A 3822 0820 1020 8010 4080 0004 0000 4828 6C46 0000 2800	RAW 00EF,0C10,880A,3822,0820,1020,8010,4080,0004,0000,4828,6C46,0000,2800
001B76	0010 0010 7C40 8400 3082 784E 6C06 000C 1000 0028 6404 FEF8 FE7C	RAW 0010,0010,7C40,8400,3082,784E,6C06,000C,1000,0028,6404,FEF8,FE7C
001B83	FEFE FE7C 4000 FEFE FEFE FE7C FE7C 024C 3E7E C67E C20E	RAW FEFE,FE7C,4000,FEFE,FEFE,FE7C,FE7C,024C,3E7E,C67E,C20E
001B8E	0400 0800 0080 FE40 7070 1070 FE10 4000 00FE F8F8 F870 F810	RAW 0400,0800,0080,FE40,7070,1070,FE10,4000,00FE,F8F8,F870,F810
001B9A	1090 3878 8878 8818 0000 2000 0078 0000 0000 0000 0000 0000 0000 0000 0000 0000	RAW 1090,3878,8878,8818,0000,2000,0078,0000,0000,0000,0000,0000,0000,0000,0000,0000
001BAA	0000 0000 0000 0000 0000 0000 0000 0000 0000 0000 0000 0000 0000 0000 0000 0000 0000 0000 0000 0000	RAW 0000,0000,0000,0000,0000,0000,0000,0000,0000,0000,0000,0000,0000,0000,0000,0000,0000,0000,0000,0000
001BBE	0000 0000 0000 FEF8 F8FE C2FE 7CFE FE00 FEF8 82FE FE7C 00FE	RAW 0000,0000,0000,FEF8,F8FE,C2FE,7CFE,FE00,FEF8,82FE,FE7C,00FE
001BCA	02C6 380E 0EC6 00BC 3800 7C28 0000 FE38 3004 0128 307C 7C00 FC40	RAW 02C6,380E,0EC6,00BC,3800,7C28,0000,FE38,3004,0128,307C,7C00,FC40
001BD7	001C 0438 18F8 0438 383C 3C44 003C 383C 3C3C	RAW 001C,0438,18F8,0438,383C,3C44,003C,383C,3C3C


		GLCDCHARCOL4EXTENDED1
001BE0	3FA0	CPI SYSSTRINGA, 240
001BE1	F010	BRLO PC + 3
001BE2	2400	CLR SYSBYTETEMPX
001BE3	9508	RET
001BE4	EDE6	LDI SYSREADA, LOW(TABLEGLCDCHARCOL4EXTENDED1<<1)
001BE5	E3F7	LDI SYSREADA_H, HIGH(TABLEGLCDCHARCOL4EXTENDED1<<1)
001BE6	0FEA	ADD SYSREADA, SYSSTRINGA
001BE7	F408	BRCC PC + 2
001BE8	95F3	INC SYSREADA_H
001BE9	95C8	LPM
001BEA	9508	RET
		TABLEGLCDCHARCOL4EXTENDED1
001BEB	FEEF 0A38 CC06 7C66 0470 1040 8838 70A2 001C 0E00 54FE 9226	RAW FEEF,0A38,CC06,7C66,0470,1040,8838,70A2,001C,0E00,54FE,9226
001BF7	380A 1082 A010 C010 A220 C284 2882 948A 9202 6C92 28AC	RAW 380A,1082,A010,C010,A220,C284,2882,948A,9202,6C92,28AC
001C02	8228 9202 9224 8282 1292 1082 8082 8010 0804 1282 1282 0292	RAW 8228,9202,9224,8282,1292,1082,8082,8010,0804,1282,1282,0292
001C0E	4080 2880 A210 08FE 0482 0280 90A8 8888 FCA8 10A8 8090	RAW 4080,2880,A210,08FE,0482,0280,90A8,8888,FCA8,10A8,8090
001C19	8220 1008 2888 1028 7CA8 4080 5080 C8A0 0010 1082 0044 0000 0000	RAW 8220,1008,2888,1028,7CA8,4080,5080,C8A0,0010,1082,0044,0000,0000
001C26	0000 0000 0000 0000 0000 0000 0000 0000 0000 0000 0000 0000 0000 0000 0000 0000 0000 0000 0000 0000	RAW 0000,0000,0000,0000,0000,0000,0000,0000,0000,0000,0000,0000,0000,0000,0000,0000,0000,0000,0000,0000
001C3A	0000 0000 0000 0000 0000 0000 0000 0000 0000 0000 9224 8402 A292 9210 1082 0404	RAW 0000,0000,0000,0000,0000,0000,0000,0000,0000,0000,9224,8402,A292,9210,1082,0404
001C4A	9208 0282 0012 02AA 4410 1028 00C2 4400 0854 0000 4944 4968 1954 4A08	RAW 9208,0282,0012,02AA,4410,1028,00C2,4400,0854,0000,4944,4968,1954,4A08
001C58	1000 4032 0120 7C44 2424 0444 4440 4028 0140 4441 4040	RAW 1000,4032,0120,7C44,2424,0444,4440,4028,0140,4441,4040


		GLCDCHARCOL5EXTENDED1
001C63	3FA0	CPI SYSSTRINGA, 240
001C64	F010	BRLO PC + 3
001C65	2400	CLR SYSBYTETEMPX
001C66	9508	RET
001C67	EDEC	LDI SYSREADA, LOW(TABLEGLCDCHARCOL5EXTENDED1<<1)
001C68	E3F8	LDI SYSREADA_H, HIGH(TABLEGLCDCHARCOL5EXTENDED1<<1)
001C69	0FEA	ADD SYSREADA, SYSSTRINGA
001C6A	F408	BRCC PC + 2
001C6B	95F3	INC SYSREADA_H
001C6C	95C8	LPM
001C6D	9508	RET
		TABLEGLCDCHARCOL5EXTENDED1
001C6E	7CEF 007C EE00 7CEE FEA8 54FE 9454 7C94 007C 009E FE28 AA10	RAW 7CEF,007C,EE00,7CEE,FEA8,54FE,9454,7C94,007C,009E,FE28,AA10
001C7A	4406 7C44 607C C010 9210 A2FE 248A 928A 92E2 6C92 446C	RAW 4406,7C44,607C,C010,9210,A2FE,248A,928A,92E2,6C92,446C
001C85	4428 F2A2 9222 8282 1292 1092 82FE 8028 1018 1282 32A2	RAW 4428,F2A2,9222,8282,1292,1092,82FE,8028,1018,1282,32A2
001C90	FE92 8080 1070 92E0 1082 0282 0480 88A8 8888 12A8 08A8	RAW FE92,8080,1070,92E0,1082,0282,0480,88A8,8888,12A8,08A8
001C9B	88FA FE50 08F0 2888 0828 90A8 8080 2060 A8A0 FE6C 106C	RAW 88FA,FE50,08F0,2888,0828,90A8,8080,2060,A8A0,FE6C,106C
001CA6	0042 0000 0000 0000 0000 0000 0000 0000 0000 0000 0000 0000 0000 0000 0000 0000 0000 0000 0000 0000	RAW 0042,0000,0000,0000,0000,0000,0000,0000,0000,0000,0000,0000,0000,0000,0000,0000,0000,0000,0000,0000
001CBA	0000 0000 0000 0000 0000 0000 0000 0000 0000 0000 0000 0000 0000 9222 8202 9292 9210	RAW 0000,0000,0000,0000,0000,0000,0000,0000,0000,0000,0000,0000,0000,9222,8202,9292,9210
001CCB	28FE 1802 9210 0282 0012 FE92 FEE0 FE10 0002 4500 0554 003D 4944	RAW 28FE,1802,9210,0282,0012,FE92,FEE0,FE10,0002,4500,0554,003D,4944
001CD8	4B90 A554 4D04 283C 4009 9540 0444 A424 7C44 FE40 F810 3C38 4540	RAW 4B90,A554,4D04,283C,4009,9540,0444,A424,7C44,FE40,F810,3C38,4540
001CE5	3A42	RAW 3A42


		GLCDCHARCOL6EXTENDED1
001CE6	3FA0	CPI SYSSTRINGA, 240
001CE7	F010	BRLO PC + 3
001CE8	2400	CLR SYSBYTETEMPX
001CE9	9508	RET
001CEA	EEE2	LDI SYSREADA, LOW(TABLEGLCDCHARCOL6EXTENDED1<<1)
001CEB	E3F9	LDI SYSREADA_H, HIGH(TABLEGLCDCHARCOL6EXTENDED1<<1)
001CEC	0FEA	ADD SYSREADA, SYSSTRINGA
001CED	F408	BRCC PC + 2
001CEE	95F3	INC SYSREADA_H
001CEF	95C8	LPM
001CF0	9508	RET
		TABLEGLCDCHARCOL6EXTENDED1
001CF1	38EF 0CFE CC0A 7C66 0420 3840 A210 7088 001C 0E00 54FE 44C8	RAW 38EF,0CFE,CC0A,7C66,0420,3840,A210,7088,001C,0E00,54FE,44C8
001CFD	8200 1038 0010 0010 8A08 9280 FE96 928A 9212 0052 8200 2828 8212	RAW 8200,1038,0010,0010,8A08,9280,FE96,928A,9212,0052,8200,2828,8212
001D0A	9224 4482 1292 1092 7E82 8044 2004 1282 5242 0292 4080 2880	RAW 9224,4482,1292,1092,7E82,8044,2004,1282,5242,0292,4080,2880
001D16	8A10 2082 04FE 0880 88A8 9088 02A8 08A8 7A80 8088 0808 2888	RAW 8A10,2082,04FE,0880,88A8,9088,02A8,08A8,7A80,8088,0808,2888
001D22	0830 80A8 4040 5080 98A0 0082 2010 0044 0000 0000 0000 0000 0000 0000 0000	RAW 0830,80A8,4040,5080,98A0,0082,2010,0044,0000,0000,0000,0000,0000,0000,0000
001D31	0000 0000 0000 0000 0000 0000 0000 0000 0000 0000 0000 0000 0000 0000 0000 0000 0000 0000 0000 0000	RAW 0000,0000,0000,0000,0000,0000,0000,0000,0000,0000,0000,0000,0000,0000,0000,0000,0000,0000,0000,0000
001D45	0000 0000 0000 0000 0000 9224 8402 8A92 9210 4482 0404 9220 0282 0012	RAW 0000,0000,0000,0000,0000,9224,8402,8A92,9210,4482,0404,9220,0282,0012
001D53	0282 4410 1028 00C2 3800 0455 0040 4E38 4D68 4354 4904 4440 2009 AB20	RAW 0282,4410,1028,00C2,3800,0455,0040,4E38,4D68,4354,4904,4440,2009,AB20
001D61	7C44 A424 044C 4440 4028 4140 4441 4141	RAW 7C44,A424,044C,4440,4028,4140,4441,4141


		GLCDCHARCOL7EXTENDED1
001D69	3FA0	CPI SYSSTRINGA, 240
001D6A	F010	BRLO PC + 3
001D6B	2400	CLR SYSBYTETEMPX
001D6C	9508	RET
001D6D	EEE8	LDI SYSREADA, LOW(TABLEGLCDCHARCOL7EXTENDED1<<1)
001D6E	E3FA	LDI SYSREADA_H, HIGH(TABLEGLCDCHARCOL7EXTENDED1<<1)
001D6F	0FEA	ADD SYSREADA, SYSSTRINGA
001D70	F408	BRCC PC + 2
001D71	95F3	INC SYSREADA_H
001D72	95C8	LPM
001D73	9508	RET
		TABLEGLCDCHARCOL7EXTENDED1
001D74	10EF 0A00 8806 3822 083E 1020 8010 4080 0004 0000 2428 A0C4 0000 2800	RAW 10EF,0A00,8806,3822,083E,1020,8010,4080,0004,0000,2428,A0C4,0000,2800
001D82	0010 0010 7C04 8C00 2062 6072 6C0E 003C 0000 1028 7C0C 6CF8 3844	RAW 0010,0010,7C04,8C00,2062,6072,6C0E,003C,0000,1028,7C0C,6CF8,3844
001D8F	0282 FEF4 0200 8082 FEFE 0C7C 8CBC 0264 3E7E C67E 860E 4000	RAW 0282,FEF4,0200,8082,FEFE,0C7C,8CBC,0264,3E7E,C67E,860E,4000
001D9B	0800 0080 70F0 FE40 0430 F078 0000 0000 F0F0 1070 10F8 4040 38F8	RAW 0800,0080,70F0,FE40,0430,F078,0000,0000,F0F0,1070,10F8,4040,38F8
001DA8	8878 8878 0000 1000 0078 0000 0000 0000 0000 0000 0000 0000 0000 0000 0000 0000 0000	RAW 8878,8878,0000,1000,0078,0000,0000,0000,0000,0000,0000,0000,0000,0000,0000,0000,0000
001DB9	0000 0000 0000 0000 0000 0000 0000 0000 0000 0000 0000 0000 0000 0000 0000 0000 0000 0000 0000 0000	RAW 0000,0000,0000,0000,0000,0000,0000,0000,0000,0000,0000,0000,0000,0000,0000,0000,0000,0000,0000,0000
001DCD	6CF8 F802 8682 7CFE 8200 FEF8 82FE FE7C 000C 0282 380E	RAW 6CF8,F802,8682,7CFE,8200,FEF8,82FE,FE7C,000C,0282,380E
001DD8	0EC6 00BC 4400 7844 0020 3044 3104 0144 3E78 0020 7C7E 411C 0438 4818	RAW 0EC6,00BC,4400,7844,0020,3044,3104,0144,3E78,0020,7C7E,411C,0438,4818
001DE6	0434 383C 3C44 203C 383C 3C3C	RAW 0434,383C,3C44,203C,383C,3C3C


		GLCDCLS_SSD1289
001DEC	98A1	CBI PORTG,1
001DED	E454	LDI SYSVALUECOPY,68
001DEE	9350 039E	STS WCOMMAND,SYSVALUECOPY
001DF0	E050	LDI SYSVALUECOPY,0
001DF1	9350 039F	STS WCOMMAND_H,SYSVALUECOPY
001DF3	E050	LDI SYSVALUECOPY,0
001DF4	9350 03A0	STS WDATA,SYSVALUECOPY
001DF6	EE5F	LDI SYSVALUECOPY,239
001DF7	9350 03A1	STS WDATA_H,SYSVALUECOPY
001DF9	940E 2D3F	CALL WRITE_COMMAND_DATA_SSD1289
001DFB	E455	LDI SYSVALUECOPY,69
001DFC	9350 039E	STS WCOMMAND,SYSVALUECOPY
001DFE	E050	LDI SYSVALUECOPY,0
001DFF	9350 039F	STS WCOMMAND_H,SYSVALUECOPY
001E01	E050	LDI SYSVALUECOPY,0
001E02	9350 03A0	STS WDATA,SYSVALUECOPY
001E04	9350 03A1	STS WDATA_H,SYSVALUECOPY
001E06	940E 2D3F	CALL WRITE_COMMAND_DATA_SSD1289
001E08	E456	LDI SYSVALUECOPY,70
001E09	9350 039E	STS WCOMMAND,SYSVALUECOPY
001E0B	E050	LDI SYSVALUECOPY,0
001E0C	9350 039F	STS WCOMMAND_H,SYSVALUECOPY
001E0E	E35F	LDI SYSVALUECOPY,63
001E0F	9350 03A0	STS WDATA,SYSVALUECOPY
001E11	E051	LDI SYSVALUECOPY,1
001E12	9350 03A1	STS WDATA_H,SYSVALUECOPY
001E14	940E 2D3F	CALL WRITE_COMMAND_DATA_SSD1289
001E16	E45E	LDI SYSVALUECOPY,78
001E17	9350 039E	STS WCOMMAND,SYSVALUECOPY
001E19	E050	LDI SYSVALUECOPY,0
001E1A	9350 039F	STS WCOMMAND_H,SYSVALUECOPY
001E1C	E050	LDI SYSVALUECOPY,0
001E1D	9350 03A0	STS WDATA,SYSVALUECOPY
001E1F	9350 03A1	STS WDATA_H,SYSVALUECOPY
001E21	940E 2D3F	CALL WRITE_COMMAND_DATA_SSD1289
001E23	E45F	LDI SYSVALUECOPY,79
001E24	9350 039E	STS WCOMMAND,SYSVALUECOPY
001E26	E050	LDI SYSVALUECOPY,0
001E27	9350 039F	STS WCOMMAND_H,SYSVALUECOPY
001E29	E050	LDI SYSVALUECOPY,0
001E2A	9350 03A0	STS WDATA,SYSVALUECOPY
001E2C	9350 03A1	STS WDATA_H,SYSVALUECOPY
001E2E	940E 2D3F	CALL WRITE_COMMAND_DATA_SSD1289
001E30	E252	LDI SYSVALUECOPY,34
001E31	9350 039E	STS WCOMMAND,SYSVALUECOPY
001E33	E050	LDI SYSVALUECOPY,0
001E34	9350 039F	STS WCOMMAND_H,SYSVALUECOPY
001E36	940E 2D41	CALL WRITE_COMMAND_SSD1289
001E38	9150 0319	LDS SYSVALUECOPY,GLCDBACKGROUND
001E3A	9350 03A0	STS WDATA,SYSVALUECOPY
001E3C	9150 031A	LDS SYSVALUECOPY,GLCDBACKGROUND_H
001E3E	9350 03A1	STS WDATA_H,SYSVALUECOPY
001E40	940E 2D4E	CALL WRITE_DATA_SSD1289
001E42	EF5F	LDI SYSVALUECOPY,255
001E43	9350 0307	STS COUNTI,SYSVALUECOPY
001E45	9350 0308	STS COUNTI_H,SYSVALUECOPY
		SYSFORLOOP3
001E47	90E0 0307	LDS SYSTEMP3,COUNTI
001E49	94E3	INC SYSTEMP3
001E4A	92E0 0307	STS COUNTI,SYSTEMP3
001E4C	90E0 0308	LDS SYSTEMP3,COUNTI_H
001E4E	F409	BRNE PC + 2
001E4F	94E3	INC SYSTEMP3
001E50	92E0 0308	STS COUNTI_H,SYSTEMP3
001E52	EF5F	LDI SYSVALUECOPY,255
001E53	9350 0309	STS COUNTJ,SYSVALUECOPY
001E55	9350 030A	STS COUNTJ_H,SYSVALUECOPY
		SYSFORLOOP4
001E57	90E0 0309	LDS SYSTEMP3,COUNTJ
001E59	94E3	INC SYSTEMP3
001E5A	92E0 0309	STS COUNTJ,SYSTEMP3
001E5C	90E0 030A	LDS SYSTEMP3,COUNTJ_H
001E5E	F409	BRNE PC + 2
001E5F	94E3	INC SYSTEMP3
001E60	92E0 030A	STS COUNTJ_H,SYSTEMP3
001E62	98A2	CBI PORTG,2
001E63	9AA2	SBI PORTG,2
001E64	9160 0309	LDS SYSWORDTEMPA,COUNTJ
001E66	9170 030A	LDS SYSWORDTEMPA_H,COUNTJ_H
001E68	EECF	LDI SYSWORDTEMPB,239
001E69	E0D0	LDI SYSWORDTEMPB_H,0
001E6A	940E 2A6D	CALL SYSCOMPLESSTHAN16
001E6C	FC00	SBRC SYSBYTETEMPX,0
001E6D	CFE9	RJMP SYSFORLOOP4
		SYSFORLOOPEND4
001E6E	9160 0307	LDS SYSWORDTEMPA,COUNTI
001E70	9170 0308	LDS SYSWORDTEMPA_H,COUNTI_H
001E72	E3CF	LDI SYSWORDTEMPB,63
001E73	E0D1	LDI SYSWORDTEMPB_H,1
001E74	940E 2A6D	CALL SYSCOMPLESSTHAN16
001E76	FC00	SBRC SYSBYTETEMPX,0
001E77	CFCF	RJMP SYSFORLOOP3
		SYSFORLOOPEND3
001E78	9AA1	SBI PORTG,1
001E79	9508	RET


		GLCDDRAWCHAR_SSD1289
001E7A	90E0 02F8	LDS SYSTEMP3,CHARCODE
001E7C	E00F	LDI SYSTEMP5,15
001E7D	1AE0	SUB SYSTEMP3,SYSTEMP5
001E7E	92E0 02F8	STS CHARCODE,SYSTEMP3
001E80	E050	LDI SYSVALUECOPY,0
001E81	9350 02F9	STS CHARCOL,SYSVALUECOPY
001E83	9350 02FA	STS CHARCOL_H,SYSVALUECOPY
001E85	9160 02F8	LDS SYSBYTETEMPA,CHARCODE
001E87	EBC2	LDI SYSBYTETEMPB,178
001E88	940E 2A67	CALL SYSCOMPLESSTHAN
001E8A	9400	COM SYSBYTETEMPX
001E8B	2CE0	MOV SYSTEMP3,SYSBYTETEMPX
001E8C	91C0 02F8	LDS SYSBYTETEMPB,CHARCODE
001E8E	EC6A	LDI SYSBYTETEMPA,202
001E8F	940E 2A67	CALL SYSCOMPLESSTHAN
001E91	9400	COM SYSBYTETEMPX
001E92	2C60	MOV SYSTEMP1,SYSBYTETEMPX
001E93	206E	AND SYSTEMP1,SYSTEMP3
001E94	2CF6	MOV SYSTEMP4,SYSTEMP1
001E95	FEF0	SBRS SYSTEMP4,0
001E96	C00C	RJMP ENDIF64
001E97	90E0 02FE	LDS SYSTEMP3,CHARLOCY
001E99	E001	LDI SYSTEMP5,1
001E9A	1AE0	SUB SYSTEMP3,SYSTEMP5
001E9B	92E0 02FE	STS CHARLOCY,SYSTEMP3
001E9D	90E0 02FF	LDS SYSTEMP3,CHARLOCY_H
001E9F	E000	LDI SYSTEMP5,0
001EA0	0AE0	SBC SYSTEMP3,SYSTEMP5
001EA1	92E0 02FF	STS CHARLOCY_H,SYSTEMP3
		ENDIF64
001EA3	E050	LDI SYSVALUECOPY,0
001EA4	9350 030B	STS CURRCHARCOL,SYSVALUECOPY
		SYSFORLOOP8
001EA6	90E0 030B	LDS SYSTEMP3,CURRCHARCOL
001EA8	94E3	INC SYSTEMP3
001EA9	92E0 030B	STS CURRCHARCOL,SYSTEMP3
		SYSSELECT5CASE1
001EAB	9160 030B	LDS SYSCALCTEMPA,CURRCHARCOL
001EAD	3061	CPI SYSCALCTEMPA,1
001EAE	F431	BRNE SYSSELECT5CASE2
001EAF	91A0 02F8	LDS SYSSTRINGA,CHARCODE
001EB1	DCAB	RCALL GLCDCHARCOL3EXTENDED1
001EB2	9200 030D	STS CURRCHARVAL,SYSBYTETEMPX
001EB4	C027	RJMP SYSSELECTEND5
		SYSSELECT5CASE2
001EB5	9160 030B	LDS SYSCALCTEMPA,CURRCHARCOL
001EB7	3062	CPI SYSCALCTEMPA,2
001EB8	F431	BRNE SYSSELECT5CASE3
001EB9	91A0 02F8	LDS SYSSTRINGA,CHARCODE
001EBB	DD24	RCALL GLCDCHARCOL4EXTENDED1
001EBC	9200 030D	STS CURRCHARVAL,SYSBYTETEMPX
001EBE	C01D	RJMP SYSSELECTEND5
		SYSSELECT5CASE3
001EBF	9160 030B	LDS SYSCALCTEMPA,CURRCHARCOL
001EC1	3063	CPI SYSCALCTEMPA,3
001EC2	F431	BRNE SYSSELECT5CASE4
001EC3	91A0 02F8	LDS SYSSTRINGA,CHARCODE
001EC5	DD9D	RCALL GLCDCHARCOL5EXTENDED1
001EC6	9200 030D	STS CURRCHARVAL,SYSBYTETEMPX
001EC8	C013	RJMP SYSSELECTEND5
		SYSSELECT5CASE4
001EC9	9160 030B	LDS SYSCALCTEMPA,CURRCHARCOL
001ECB	3064	CPI SYSCALCTEMPA,4
001ECC	F431	BRNE SYSSELECT5CASE5
001ECD	91A0 02F8	LDS SYSSTRINGA,CHARCODE
001ECF	DE16	RCALL GLCDCHARCOL6EXTENDED1
001ED0	9200 030D	STS CURRCHARVAL,SYSBYTETEMPX
001ED2	C009	RJMP SYSSELECTEND5
		SYSSELECT5CASE5
001ED3	9160 030B	LDS SYSCALCTEMPA,CURRCHARCOL
001ED5	3065	CPI SYSCALCTEMPA,5
001ED6	F429	BRNE SYSSELECTEND5
001ED7	91A0 02F8	LDS SYSSTRINGA,CHARCODE
001ED9	DE8F	RCALL GLCDCHARCOL7EXTENDED1
001EDA	9200 030D	STS CURRCHARVAL,SYSBYTETEMPX
		SYSSELECTEND5
001EDC	E050	LDI SYSVALUECOPY,0
001EDD	9350 0300	STS CHARROW,SYSVALUECOPY
001EDF	9350 0301	STS CHARROW_H,SYSVALUECOPY
001EE1	E050	LDI SYSVALUECOPY,0
001EE2	9350 030C	STS CURRCHARROW,SYSVALUECOPY
		SYSFORLOOP9
001EE4	90E0 030C	LDS SYSTEMP3,CURRCHARROW
001EE6	94E3	INC SYSTEMP3
001EE7	92E0 030C	STS CURRCHARROW,SYSTEMP3
001EE9	E050	LDI SYSVALUECOPY,0
001EEA	9350 02FB	STS CHARCOLS,SYSVALUECOPY
001EEC	E051	LDI SYSVALUECOPY,1
001EED	9350 0303	STS COL,SYSVALUECOPY
		SYSFORLOOP10
001EEF	90E0 02FB	LDS SYSTEMP3,CHARCOLS
001EF1	94E3	INC SYSTEMP3
001EF2	92E0 02FB	STS CHARCOLS,SYSTEMP3
001EF4	E050	LDI SYSVALUECOPY,0
001EF5	9350 0302	STS CHARROWS,SYSVALUECOPY
001EF7	E051	LDI SYSVALUECOPY,1
001EF8	9350 0356	STS ROW,SYSVALUECOPY
		SYSFORLOOP11
001EFA	90E0 0302	LDS SYSTEMP3,CHARROWS
001EFC	94E3	INC SYSTEMP3
001EFD	92E0 0302	STS CHARROWS,SYSTEMP3
001EFF	9050 030D	LDS SYSBITTEST,CURRCHARVAL
001F01	FE50	SBRS SYSBITTEST,0
001F02	C034	RJMP ELSE65_1
001F03	90E0 02FC	LDS SYSTEMP3,CHARLOCX
001F05	90F0 02F9	LDS SYSTEMP4,CHARCOL
001F07	0CEF	ADD SYSTEMP3,SYSTEMP4
001F08	2C6E	MOV SYSTEMP1,SYSTEMP3
001F09	90E0 02FD	LDS SYSTEMP3,CHARLOCX_H
001F0B	90F0 02FA	LDS SYSTEMP4,CHARCOL_H
001F0D	1CEF	ADC SYSTEMP3,SYSTEMP4
001F0E	2C7E	MOV SYSTEMP1_H,SYSTEMP3
001F0F	90E0 02FB	LDS SYSTEMP3,CHARCOLS
001F11	0C6E	ADD SYSTEMP1,SYSTEMP3
001F12	9260 034A	STS PX1,SYSTEMP1
001F14	E000	LDI SYSTEMP5,0
001F15	1E70	ADC SYSTEMP1_H,SYSTEMP5
001F16	9270 034B	STS PX1_H,SYSTEMP1_H
001F18	90E0 02FE	LDS SYSTEMP3,CHARLOCY
001F1A	90F0 0300	LDS SYSTEMP4,CHARROW
001F1C	0CEF	ADD SYSTEMP3,SYSTEMP4
001F1D	2C6E	MOV SYSTEMP1,SYSTEMP3
001F1E	90E0 02FF	LDS SYSTEMP3,CHARLOCY_H
001F20	90F0 0301	LDS SYSTEMP4,CHARROW_H
001F22	1CEF	ADC SYSTEMP3,SYSTEMP4
001F23	2C7E	MOV SYSTEMP1_H,SYSTEMP3
001F24	90E0 0302	LDS SYSTEMP3,CHARROWS
001F26	0C6E	ADD SYSTEMP1,SYSTEMP3
001F27	9260 034E	STS PY1,SYSTEMP1
001F29	E000	LDI SYSTEMP5,0
001F2A	1E70	ADC SYSTEMP1_H,SYSTEMP5
001F2B	9270 034F	STS PY1_H,SYSTEMP1_H
001F2D	9150 032A	LDS SYSVALUECOPY,LINECOLOUR
001F2F	9350 0304	STS COLOR,SYSVALUECOPY
001F31	9150 032B	LDS SYSVALUECOPY,LINECOLOUR_H
001F33	9350 0305	STS COLOR_H,SYSVALUECOPY
001F35	D6A5	RCALL PSET_SSD1289
001F36	C033	RJMP ENDIF65
		ELSE65_1
001F37	90E0 02FC	LDS SYSTEMP3,CHARLOCX
001F39	90F0 02F9	LDS SYSTEMP4,CHARCOL
001F3B	0CEF	ADD SYSTEMP3,SYSTEMP4
001F3C	2C6E	MOV SYSTEMP1,SYSTEMP3
001F3D	90E0 02FD	LDS SYSTEMP3,CHARLOCX_H
001F3F	90F0 02FA	LDS SYSTEMP4,CHARCOL_H
001F41	1CEF	ADC SYSTEMP3,SYSTEMP4
001F42	2C7E	MOV SYSTEMP1_H,SYSTEMP3
001F43	90E0 02FB	LDS SYSTEMP3,CHARCOLS
001F45	0C6E	ADD SYSTEMP1,SYSTEMP3
001F46	9260 034A	STS PX1,SYSTEMP1
001F48	E000	LDI SYSTEMP5,0
001F49	1E70	ADC SYSTEMP1_H,SYSTEMP5
001F4A	9270 034B	STS PX1_H,SYSTEMP1_H
001F4C	90E0 02FE	LDS SYSTEMP3,CHARLOCY
001F4E	90F0 0300	LDS SYSTEMP4,CHARROW
001F50	0CEF	ADD SYSTEMP3,SYSTEMP4
001F51	2C6E	MOV SYSTEMP1,SYSTEMP3
001F52	90E0 02FF	LDS SYSTEMP3,CHARLOCY_H
001F54	90F0 0301	LDS SYSTEMP4,CHARROW_H
001F56	1CEF	ADC SYSTEMP3,SYSTEMP4
001F57	2C7E	MOV SYSTEMP1_H,SYSTEMP3
001F58	90E0 0302	LDS SYSTEMP3,CHARROWS
001F5A	0C6E	ADD SYSTEMP1,SYSTEMP3
001F5B	9260 034E	STS PY1,SYSTEMP1
001F5D	E000	LDI SYSTEMP5,0
001F5E	1E70	ADC SYSTEMP1_H,SYSTEMP5
001F5F	9270 034F	STS PY1_H,SYSTEMP1_H
001F61	9150 0319	LDS SYSVALUECOPY,GLCDBACKGROUND
001F63	9350 0304	STS COLOR,SYSVALUECOPY
001F65	9150 031A	LDS SYSVALUECOPY,GLCDBACKGROUND_H
001F67	9350 0305	STS COLOR_H,SYSVALUECOPY
001F69	D671	RCALL PSET_SSD1289
		ENDIF65
001F6A	90F0 0320	LDS SYSTEMP4,GLCDFNTDEFAULTSIZE
001F6C	9060 0356	LDS SYSTEMP1,ROW
001F6E	18F6	SUB SYSTEMP4,SYSTEMP1
001F6F	2CEF	MOV SYSTEMP3,SYSTEMP4
001F70	2D6E	MOV SYSBYTETEMPA,SYSTEMP3
001F71	E0C0	LDI SYSBYTETEMPB,0
001F72	940E 2A50	CALL SYSCOMPEQUAL
001F74	9400	COM SYSBYTETEMPX
001F75	FE00	SBRS SYSBYTETEMPX,0
001F76	C006	RJMP ENDIF66
001F77	90E0 0356	LDS SYSTEMP3,ROW
001F79	94E3	INC SYSTEMP3
001F7A	92E0 0356	STS ROW,SYSTEMP3
001F7C	CF7D	RJMP SYSFORLOOP11
		ENDIF66
		SYSFORLOOPEND11
001F7D	90F0 0320	LDS SYSTEMP4,GLCDFNTDEFAULTSIZE
001F7F	9060 0303	LDS SYSTEMP1,COL
001F81	18F6	SUB SYSTEMP4,SYSTEMP1
001F82	2CEF	MOV SYSTEMP3,SYSTEMP4
001F83	2D6E	MOV SYSBYTETEMPA,SYSTEMP3
001F84	E0C0	LDI SYSBYTETEMPB,0
001F85	940E 2A50	CALL SYSCOMPEQUAL
001F87	9400	COM SYSBYTETEMPX
001F88	FE00	SBRS SYSBYTETEMPX,0
001F89	C006	RJMP ENDIF67
001F8A	90E0 0303	LDS SYSTEMP3,COL
001F8C	94E3	INC SYSTEMP3
001F8D	92E0 0303	STS COL,SYSTEMP3
001F8F	CF5F	RJMP SYSFORLOOP10
		ENDIF67
		SYSFORLOOPEND10
001F90	9150 030D	LDS SYSVALUECOPY,CURRCHARVAL
001F92	9557	ROR SYSVALUECOPY
001F93	9350 030D	STS CURRCHARVAL,SYSVALUECOPY
001F95	90E0 0300	LDS SYSTEMP3,CHARROW
001F97	90F0 0320	LDS SYSTEMP4,GLCDFNTDEFAULTSIZE
001F99	0CEF	ADD SYSTEMP3,SYSTEMP4
001F9A	92E0 0300	STS CHARROW,SYSTEMP3
001F9C	90E0 0301	LDS SYSTEMP3,CHARROW_H
001F9E	E000	LDI SYSTEMP5,0
001F9F	1EE0	ADC SYSTEMP3,SYSTEMP5
001FA0	92E0 0301	STS CHARROW_H,SYSTEMP3
001FA2	9160 030C	LDS SYSCALCTEMPA,CURRCHARROW
001FA4	3068	CPI SYSCALCTEMPA,8
001FA5	F408	BRSH ENDIF68
001FA6	CF3D	RJMP SYSFORLOOP9
		ENDIF68
		SYSFORLOOPEND9
001FA7	90E0 02F9	LDS SYSTEMP3,CHARCOL
001FA9	90F0 0320	LDS SYSTEMP4,GLCDFNTDEFAULTSIZE
001FAB	0CEF	ADD SYSTEMP3,SYSTEMP4
001FAC	92E0 02F9	STS CHARCOL,SYSTEMP3
001FAE	90E0 02FA	LDS SYSTEMP3,CHARCOL_H
001FB0	E000	LDI SYSTEMP5,0
001FB1	1EE0	ADC SYSTEMP3,SYSTEMP5
001FB2	92E0 02FA	STS CHARCOL_H,SYSTEMP3
001FB4	9160 030B	LDS SYSCALCTEMPA,CURRCHARCOL
001FB6	3065	CPI SYSCALCTEMPA,5
001FB7	F408	BRSH ENDIF69
001FB8	CEED	RJMP SYSFORLOOP8
		ENDIF69
		SYSFORLOOPEND8
001FB9	9508	RET


		GLCDROTATE_SSD1289
		SYSSELECT4CASE1
001FBA	9160 0342	LDS SYSCALCTEMPA,ORIENTATION_SSD1289
001FBC	3061	CPI SYSCALCTEMPA,1
001FBD	F571	BRNE SYSSELECT4CASE2
001FBE	E35F	LDI SYSVALUECOPY,63
001FBF	9350 031D	STS GLCDDEVICEWIDTH,SYSVALUECOPY
001FC1	E051	LDI SYSVALUECOPY,1
001FC2	9350 031E	STS GLCDDEVICEWIDTH_H,SYSVALUECOPY
001FC4	EE5F	LDI SYSVALUECOPY,239
001FC5	9350 031B	STS GLCDDEVICEHEIGHT,SYSVALUECOPY
001FC7	E050	LDI SYSVALUECOPY,0
001FC8	9350 031C	STS GLCDDEVICEHEIGHT_H,SYSVALUECOPY
001FCA	98A1	CBI PORTG,1
001FCB	E051	LDI SYSVALUECOPY,1
001FCC	9350 039E	STS WCOMMAND,SYSVALUECOPY
001FCE	E050	LDI SYSVALUECOPY,0
001FCF	9350 039F	STS WCOMMAND_H,SYSVALUECOPY
001FD1	E35F	LDI SYSVALUECOPY,63
001FD2	9350 03A0	STS WDATA,SYSVALUECOPY
001FD4	E659	LDI SYSVALUECOPY,105
001FD5	9350 03A1	STS WDATA_H,SYSVALUECOPY
001FD7	940E 2D3F	CALL WRITE_COMMAND_DATA_SSD1289
001FD9	E151	LDI SYSVALUECOPY,17
001FDA	9350 039E	STS WCOMMAND,SYSVALUECOPY
001FDC	E050	LDI SYSVALUECOPY,0
001FDD	9350 039F	STS WCOMMAND_H,SYSVALUECOPY
001FDF	E750	LDI SYSVALUECOPY,112
001FE0	9350 03A0	STS WDATA,SYSVALUECOPY
001FE2	E650	LDI SYSVALUECOPY,96
001FE3	9350 03A1	STS WDATA_H,SYSVALUECOPY
001FE5	940E 2D3F	CALL WRITE_COMMAND_DATA_SSD1289
001FE7	9AA1	SBI PORTG,1
001FE8	E0D1	LDI SYSWAITTEMPMS,1
001FE9	E0E0	LDI SYSWAITTEMPMS_H,0
001FEA	D835	RCALL DELAY_MS
001FEB	C093	RJMP SYSSELECTEND4
		SYSSELECT4CASE2
001FEC	9160 0342	LDS SYSCALCTEMPA,ORIENTATION_SSD1289
001FEE	3062	CPI SYSCALCTEMPA,2
001FEF	F571	BRNE SYSSELECT4CASE3
001FF0	EE5F	LDI SYSVALUECOPY,239
001FF1	9350 031D	STS GLCDDEVICEWIDTH,SYSVALUECOPY
001FF3	E050	LDI SYSVALUECOPY,0
001FF4	9350 031E	STS GLCDDEVICEWIDTH_H,SYSVALUECOPY
001FF6	E35F	LDI SYSVALUECOPY,63
001FF7	9350 031B	STS GLCDDEVICEHEIGHT,SYSVALUECOPY
001FF9	E051	LDI SYSVALUECOPY,1
001FFA	9350 031C	STS GLCDDEVICEHEIGHT_H,SYSVALUECOPY
001FFC	98A1	CBI PORTG,1
001FFD	E051	LDI SYSVALUECOPY,1
001FFE	9350 039E	STS WCOMMAND,SYSVALUECOPY
002000	E050	LDI SYSVALUECOPY,0
002001	9350 039F	STS WCOMMAND_H,SYSVALUECOPY
002003	E35F	LDI SYSVALUECOPY,63
002004	9350 03A0	STS WDATA,SYSVALUECOPY
002006	E659	LDI SYSVALUECOPY,105
002007	9350 03A1	STS WDATA_H,SYSVALUECOPY
002009	940E 2D3F	CALL WRITE_COMMAND_DATA_SSD1289
00200B	E151	LDI SYSVALUECOPY,17
00200C	9350 039E	STS WCOMMAND,SYSVALUECOPY
00200E	E050	LDI SYSVALUECOPY,0
00200F	9350 039F	STS WCOMMAND_H,SYSVALUECOPY
002011	E750	LDI SYSVALUECOPY,112
002012	9350 03A0	STS WDATA,SYSVALUECOPY
002014	E650	LDI SYSVALUECOPY,96
002015	9350 03A1	STS WDATA_H,SYSVALUECOPY
002017	940E 2D3F	CALL WRITE_COMMAND_DATA_SSD1289
002019	9AA1	SBI PORTG,1
00201A	E0D1	LDI SYSWAITTEMPMS,1
00201B	E0E0	LDI SYSWAITTEMPMS_H,0
00201C	D803	RCALL DELAY_MS
00201D	C061	RJMP SYSSELECTEND4
		SYSSELECT4CASE3
00201E	9160 0342	LDS SYSCALCTEMPA,ORIENTATION_SSD1289
002020	3063	CPI SYSCALCTEMPA,3
002021	F579	BRNE SYSSELECT4CASE4
002022	E35F	LDI SYSVALUECOPY,63
002023	9350 031D	STS GLCDDEVICEWIDTH,SYSVALUECOPY
002025	E051	LDI SYSVALUECOPY,1
002026	9350 031E	STS GLCDDEVICEWIDTH_H,SYSVALUECOPY
002028	EE5F	LDI SYSVALUECOPY,239
002029	9350 031B	STS GLCDDEVICEHEIGHT,SYSVALUECOPY
00202B	E050	LDI SYSVALUECOPY,0
00202C	9350 031C	STS GLCDDEVICEHEIGHT_H,SYSVALUECOPY
00202E	98A1	CBI PORTG,1
00202F	E051	LDI SYSVALUECOPY,1
002030	9350 039E	STS WCOMMAND,SYSVALUECOPY
002032	E050	LDI SYSVALUECOPY,0
002033	9350 039F	STS WCOMMAND_H,SYSVALUECOPY
002035	E35F	LDI SYSVALUECOPY,63
002036	9350 03A0	STS WDATA,SYSVALUECOPY
002038	E25B	LDI SYSVALUECOPY,43
002039	9350 03A1	STS WDATA_H,SYSVALUECOPY
00203B	940E 2D3F	CALL WRITE_COMMAND_DATA_SSD1289
00203D	E151	LDI SYSVALUECOPY,17
00203E	9350 039E	STS WCOMMAND,SYSVALUECOPY
002040	E050	LDI SYSVALUECOPY,0
002041	9350 039F	STS WCOMMAND_H,SYSVALUECOPY
002043	E750	LDI SYSVALUECOPY,112
002044	9350 03A0	STS WDATA,SYSVALUECOPY
002046	E650	LDI SYSVALUECOPY,96
002047	9350 03A1	STS WDATA_H,SYSVALUECOPY
002049	940E 2D3F	CALL WRITE_COMMAND_DATA_SSD1289
00204B	9AA1	SBI PORTG,1
00204C	E0D1	LDI SYSWAITTEMPMS,1
00204D	E0E0	LDI SYSWAITTEMPMS_H,0
00204E	940E 1820	CALL DELAY_MS
002050	C02E	RJMP SYSSELECTEND4
		SYSSELECT4CASE4
002051	EE5F	LDI SYSVALUECOPY,239
002052	9350 031D	STS GLCDDEVICEWIDTH,SYSVALUECOPY
002054	E050	LDI SYSVALUECOPY,0
002055	9350 031E	STS GLCDDEVICEWIDTH_H,SYSVALUECOPY
002057	E35F	LDI SYSVALUECOPY,63
002058	9350 031B	STS GLCDDEVICEHEIGHT,SYSVALUECOPY
00205A	E051	LDI SYSVALUECOPY,1
00205B	9350 031C	STS GLCDDEVICEHEIGHT_H,SYSVALUECOPY
00205D	98A1	CBI PORTG,1
00205E	E051	LDI SYSVALUECOPY,1
00205F	9350 039E	STS WCOMMAND,SYSVALUECOPY
002061	E050	LDI SYSVALUECOPY,0
002062	9350 039F	STS WCOMMAND_H,SYSVALUECOPY
002064	E35F	LDI SYSVALUECOPY,63
002065	9350 03A0	STS WDATA,SYSVALUECOPY
002067	E25B	LDI SYSVALUECOPY,43
002068	9350 03A1	STS WDATA_H,SYSVALUECOPY
00206A	940E 2D3F	CALL WRITE_COMMAND_DATA_SSD1289
00206C	E151	LDI SYSVALUECOPY,17
00206D	9350 039E	STS WCOMMAND,SYSVALUECOPY
00206F	E050	LDI SYSVALUECOPY,0
002070	9350 039F	STS WCOMMAND_H,SYSVALUECOPY
002072	E750	LDI SYSVALUECOPY,112
002073	9350 03A0	STS WDATA,SYSVALUECOPY
002075	E650	LDI SYSVALUECOPY,96
002076	9350 03A1	STS WDATA_H,SYSVALUECOPY
002078	940E 2D3F	CALL WRITE_COMMAND_DATA_SSD1289
00207A	9AA1	SBI PORTG,1
00207B	E0D1	LDI SYSWAITTEMPMS,1
00207C	E0E0	LDI SYSWAITTEMPMS_H,0
00207D	940E 1820	CALL DELAY_MS
		SYSSELECTEND4
00207F	9508	RET


		INITGLCD_SSD1289
002080	E054	LDI SYSVALUECOPY,4
002081	9350 0342	STS ORIENTATION_SSD1289,SYSVALUECOPY
002083	9A9A	SBI DDRG,2
002084	9A99	SBI DDRG,1
002085	9A57	SBI DDRD,7
002086	9A98	SBI DDRG,0
002087	9A38	SBI DDRC,0
002088	9A39	SBI DDRC,1
002089	9A3A	SBI DDRC,2
00208A	9A3B	SBI DDRC,3
00208B	9A3C	SBI DDRC,4
00208C	9A3D	SBI DDRC,5
00208D	9A3E	SBI DDRC,6
00208E	9A3F	SBI DDRC,7
00208F	9A08	SBI DDRA,0
002090	9A09	SBI DDRA,1
002091	9A0A	SBI DDRA,2
002092	9A0B	SBI DDRA,3
002093	9A0C	SBI DDRA,4
002094	9A0D	SBI DDRA,5
002095	9A0E	SBI DDRA,6
002096	9A0F	SBI DDRA,7
002097	9AA1	SBI PORTG,1
002098	9AA0	SBI PORTG,0
002099	E0D5	LDI SYSWAITTEMPMS,5
00209A	E0E0	LDI SYSWAITTEMPMS_H,0
00209B	940E 1820	CALL DELAY_MS
00209D	98A0	CBI PORTG,0
00209E	E0DF	LDI SYSWAITTEMPMS,15
00209F	E0E0	LDI SYSWAITTEMPMS_H,0
0020A0	940E 1820	CALL DELAY_MS
0020A2	9AA0	SBI PORTG,0
0020A3	E0DF	LDI SYSWAITTEMPMS,15
0020A4	E0E0	LDI SYSWAITTEMPMS_H,0
0020A5	940E 1820	CALL DELAY_MS
0020A7	98A1	CBI PORTG,1
0020A8	E050	LDI SYSVALUECOPY,0
0020A9	9350 039E	STS WCOMMAND,SYSVALUECOPY
0020AB	9350 039F	STS WCOMMAND_H,SYSVALUECOPY
0020AD	E051	LDI SYSVALUECOPY,1
0020AE	9350 03A0	STS WDATA,SYSVALUECOPY
0020B0	E050	LDI SYSVALUECOPY,0
0020B1	9350 03A1	STS WDATA_H,SYSVALUECOPY
0020B3	940E 2D3F	CALL WRITE_COMMAND_DATA_SSD1289
0020B5	E053	LDI SYSVALUECOPY,3
0020B6	9350 039E	STS WCOMMAND,SYSVALUECOPY
0020B8	E050	LDI SYSVALUECOPY,0
0020B9	9350 039F	STS WCOMMAND_H,SYSVALUECOPY
0020BB	EA54	LDI SYSVALUECOPY,164
0020BC	9350 03A0	STS WDATA,SYSVALUECOPY
0020BE	EA58	LDI SYSVALUECOPY,168
0020BF	9350 03A1	STS WDATA_H,SYSVALUECOPY
0020C1	940E 2D3F	CALL WRITE_COMMAND_DATA_SSD1289
0020C3	E05C	LDI SYSVALUECOPY,12
0020C4	9350 039E	STS WCOMMAND,SYSVALUECOPY
0020C6	E050	LDI SYSVALUECOPY,0
0020C7	9350 039F	STS WCOMMAND_H,SYSVALUECOPY
0020C9	E050	LDI SYSVALUECOPY,0
0020CA	9350 03A0	STS WDATA,SYSVALUECOPY
0020CC	9350 03A1	STS WDATA_H,SYSVALUECOPY
0020CE	940E 2D3F	CALL WRITE_COMMAND_DATA_SSD1289
0020D0	E05D	LDI SYSVALUECOPY,13
0020D1	9350 039E	STS WCOMMAND,SYSVALUECOPY
0020D3	E050	LDI SYSVALUECOPY,0
0020D4	9350 039F	STS WCOMMAND_H,SYSVALUECOPY
0020D6	E05C	LDI SYSVALUECOPY,12
0020D7	9350 03A0	STS WDATA,SYSVALUECOPY
0020D9	E850	LDI SYSVALUECOPY,128
0020DA	9350 03A1	STS WDATA_H,SYSVALUECOPY
0020DC	940E 2D3F	CALL WRITE_COMMAND_DATA_SSD1289
0020DE	E05E	LDI SYSVALUECOPY,14
0020DF	9350 039E	STS WCOMMAND,SYSVALUECOPY
0020E1	E050	LDI SYSVALUECOPY,0
0020E2	9350 039F	STS WCOMMAND_H,SYSVALUECOPY
0020E4	E050	LDI SYSVALUECOPY,0
0020E5	9350 03A0	STS WDATA,SYSVALUECOPY
0020E7	E25B	LDI SYSVALUECOPY,43
0020E8	9350 03A1	STS WDATA_H,SYSVALUECOPY
0020EA	940E 2D3F	CALL WRITE_COMMAND_DATA_SSD1289
0020EC	E15E	LDI SYSVALUECOPY,30
0020ED	9350 039E	STS WCOMMAND,SYSVALUECOPY
0020EF	E050	LDI SYSVALUECOPY,0
0020F0	9350 039F	STS WCOMMAND_H,SYSVALUECOPY
0020F2	EB57	LDI SYSVALUECOPY,183
0020F3	9350 03A0	STS WDATA,SYSVALUECOPY
0020F5	E050	LDI SYSVALUECOPY,0
0020F6	9350 03A1	STS WDATA_H,SYSVALUECOPY
0020F8	940E 2D3F	CALL WRITE_COMMAND_DATA_SSD1289
0020FA	E052	LDI SYSVALUECOPY,2
0020FB	9350 039E	STS WCOMMAND,SYSVALUECOPY
0020FD	E050	LDI SYSVALUECOPY,0
0020FE	9350 039F	STS WCOMMAND_H,SYSVALUECOPY
002100	E050	LDI SYSVALUECOPY,0
002101	9350 03A0	STS WDATA,SYSVALUECOPY
002103	E056	LDI SYSVALUECOPY,6
002104	9350 03A1	STS WDATA_H,SYSVALUECOPY
002106	940E 2D3F	CALL WRITE_COMMAND_DATA_SSD1289
002108	E150	LDI SYSVALUECOPY,16
002109	9350 039E	STS WCOMMAND,SYSVALUECOPY
00210B	E050	LDI SYSVALUECOPY,0
00210C	9350 039F	STS WCOMMAND_H,SYSVALUECOPY
00210E	E050	LDI SYSVALUECOPY,0
00210F	9350 03A0	STS WDATA,SYSVALUECOPY
002111	9350 03A1	STS WDATA_H,SYSVALUECOPY
002113	940E 2D3F	CALL WRITE_COMMAND_DATA_SSD1289
		SYSSELECT3CASE1
002115	9160 0342	LDS SYSCALCTEMPA,ORIENTATION_SSD1289
002117	3063	CPI SYSCALCTEMPA,3
002118	F549	BRNE SYSSELECT3CASE2
002119	E35F	LDI SYSVALUECOPY,63
00211A	9350 031D	STS GLCDDEVICEWIDTH,SYSVALUECOPY
00211C	E051	LDI SYSVALUECOPY,1
00211D	9350 031E	STS GLCDDEVICEWIDTH_H,SYSVALUECOPY
00211F	EE5F	LDI SYSVALUECOPY,239
002120	9350 031B	STS GLCDDEVICEHEIGHT,SYSVALUECOPY
002122	E050	LDI SYSVALUECOPY,0
002123	9350 031C	STS GLCDDEVICEHEIGHT_H,SYSVALUECOPY
002125	E051	LDI SYSVALUECOPY,1
002126	9350 039E	STS WCOMMAND,SYSVALUECOPY
002128	E050	LDI SYSVALUECOPY,0
002129	9350 039F	STS WCOMMAND_H,SYSVALUECOPY
00212B	E35F	LDI SYSVALUECOPY,63
00212C	9350 03A0	STS WDATA,SYSVALUECOPY
00212E	E25B	LDI SYSVALUECOPY,43
00212F	9350 03A1	STS WDATA_H,SYSVALUECOPY
002131	940E 2D3F	CALL WRITE_COMMAND_DATA_SSD1289
002133	E151	LDI SYSVALUECOPY,17
002134	9350 039E	STS WCOMMAND,SYSVALUECOPY
002136	E050	LDI SYSVALUECOPY,0
002137	9350 039F	STS WCOMMAND_H,SYSVALUECOPY
002139	E750	LDI SYSVALUECOPY,112
00213A	9350 03A0	STS WDATA,SYSVALUECOPY
00213C	E650	LDI SYSVALUECOPY,96
00213D	9350 03A1	STS WDATA_H,SYSVALUECOPY
00213F	940E 2D3F	CALL WRITE_COMMAND_DATA_SSD1289
002141	C082	RJMP SYSSELECTEND3
		SYSSELECT3CASE2
002142	9160 0342	LDS SYSCALCTEMPA,ORIENTATION_SSD1289
002144	3061	CPI SYSCALCTEMPA,1
002145	F549	BRNE SYSSELECT3CASE3
002146	E35F	LDI SYSVALUECOPY,63
002147	9350 031D	STS GLCDDEVICEWIDTH,SYSVALUECOPY
002149	E051	LDI SYSVALUECOPY,1
00214A	9350 031E	STS GLCDDEVICEWIDTH_H,SYSVALUECOPY
00214C	EE5F	LDI SYSVALUECOPY,239
00214D	9350 031B	STS GLCDDEVICEHEIGHT,SYSVALUECOPY
00214F	E050	LDI SYSVALUECOPY,0
002150	9350 031C	STS GLCDDEVICEHEIGHT_H,SYSVALUECOPY
002152	E051	LDI SYSVALUECOPY,1
002153	9350 039E	STS WCOMMAND,SYSVALUECOPY
002155	E050	LDI SYSVALUECOPY,0
002156	9350 039F	STS WCOMMAND_H,SYSVALUECOPY
002158	E35F	LDI SYSVALUECOPY,63
002159	9350 03A0	STS WDATA,SYSVALUECOPY
00215B	E659	LDI SYSVALUECOPY,105
00215C	9350 03A1	STS WDATA_H,SYSVALUECOPY
00215E	940E 2D3F	CALL WRITE_COMMAND_DATA_SSD1289
002160	E151	LDI SYSVALUECOPY,17
002161	9350 039E	STS WCOMMAND,SYSVALUECOPY
002163	E050	LDI SYSVALUECOPY,0
002164	9350 039F	STS WCOMMAND_H,SYSVALUECOPY
002166	E750	LDI SYSVALUECOPY,112
002167	9350 03A0	STS WDATA,SYSVALUECOPY
002169	E650	LDI SYSVALUECOPY,96
00216A	9350 03A1	STS WDATA_H,SYSVALUECOPY
00216C	940E 2D3F	CALL WRITE_COMMAND_DATA_SSD1289
00216E	C055	RJMP SYSSELECTEND3
		SYSSELECT3CASE3
00216F	9160 0342	LDS SYSCALCTEMPA,ORIENTATION_SSD1289
002171	3062	CPI SYSCALCTEMPA,2
002172	F549	BRNE SYSSELECT3CASE4
002173	EE5F	LDI SYSVALUECOPY,239
002174	9350 031D	STS GLCDDEVICEWIDTH,SYSVALUECOPY
002176	E050	LDI SYSVALUECOPY,0
002177	9350 031E	STS GLCDDEVICEWIDTH_H,SYSVALUECOPY
002179	E35F	LDI SYSVALUECOPY,63
00217A	9350 031B	STS GLCDDEVICEHEIGHT,SYSVALUECOPY
00217C	E051	LDI SYSVALUECOPY,1
00217D	9350 031C	STS GLCDDEVICEHEIGHT_H,SYSVALUECOPY
00217F	E051	LDI SYSVALUECOPY,1
002180	9350 039E	STS WCOMMAND,SYSVALUECOPY
002182	E050	LDI SYSVALUECOPY,0
002183	9350 039F	STS WCOMMAND_H,SYSVALUECOPY
002185	E35F	LDI SYSVALUECOPY,63
002186	9350 03A0	STS WDATA,SYSVALUECOPY
002188	E659	LDI SYSVALUECOPY,105
002189	9350 03A1	STS WDATA_H,SYSVALUECOPY
00218B	940E 2D3F	CALL WRITE_COMMAND_DATA_SSD1289
00218D	E151	LDI SYSVALUECOPY,17
00218E	9350 039E	STS WCOMMAND,SYSVALUECOPY
002190	E050	LDI SYSVALUECOPY,0
002191	9350 039F	STS WCOMMAND_H,SYSVALUECOPY
002193	E750	LDI SYSVALUECOPY,112
002194	9350 03A0	STS WDATA,SYSVALUECOPY
002196	E650	LDI SYSVALUECOPY,96
002197	9350 03A1	STS WDATA_H,SYSVALUECOPY
002199	940E 2D3F	CALL WRITE_COMMAND_DATA_SSD1289
00219B	C028	RJMP SYSSELECTEND3
		SYSSELECT3CASE4
00219C	EE5F	LDI SYSVALUECOPY,239
00219D	9350 031D	STS GLCDDEVICEWIDTH,SYSVALUECOPY
00219F	E050	LDI SYSVALUECOPY,0
0021A0	9350 031E	STS GLCDDEVICEWIDTH_H,SYSVALUECOPY
0021A2	E35F	LDI SYSVALUECOPY,63
0021A3	9350 031B	STS GLCDDEVICEHEIGHT,SYSVALUECOPY
0021A5	E051	LDI SYSVALUECOPY,1
0021A6	9350 031C	STS GLCDDEVICEHEIGHT_H,SYSVALUECOPY
0021A8	E051	LDI SYSVALUECOPY,1
0021A9	9350 039E	STS WCOMMAND,SYSVALUECOPY
0021AB	E050	LDI SYSVALUECOPY,0
0021AC	9350 039F	STS WCOMMAND_H,SYSVALUECOPY
0021AE	E35F	LDI SYSVALUECOPY,63
0021AF	9350 03A0	STS WDATA,SYSVALUECOPY
0021B1	E25B	LDI SYSVALUECOPY,43
0021B2	9350 03A1	STS WDATA_H,SYSVALUECOPY
0021B4	940E 2D3F	CALL WRITE_COMMAND_DATA_SSD1289
0021B6	E151	LDI SYSVALUECOPY,17
0021B7	9350 039E	STS WCOMMAND,SYSVALUECOPY
0021B9	E050	LDI SYSVALUECOPY,0
0021BA	9350 039F	STS WCOMMAND_H,SYSVALUECOPY
0021BC	E750	LDI SYSVALUECOPY,112
0021BD	9350 03A0	STS WDATA,SYSVALUECOPY
0021BF	E650	LDI SYSVALUECOPY,96
0021C0	9350 03A1	STS WDATA_H,SYSVALUECOPY
0021C2	940E 2D3F	CALL WRITE_COMMAND_DATA_SSD1289
		SYSSELECTEND3
0021C4	E055	LDI SYSVALUECOPY,5
0021C5	9350 039E	STS WCOMMAND,SYSVALUECOPY
0021C7	E050	LDI SYSVALUECOPY,0
0021C8	9350 039F	STS WCOMMAND_H,SYSVALUECOPY
0021CA	E050	LDI SYSVALUECOPY,0
0021CB	9350 03A0	STS WDATA,SYSVALUECOPY
0021CD	9350 03A1	STS WDATA_H,SYSVALUECOPY
0021CF	940E 2D3F	CALL WRITE_COMMAND_DATA_SSD1289
0021D1	E056	LDI SYSVALUECOPY,6
0021D2	9350 039E	STS WCOMMAND,SYSVALUECOPY
0021D4	E050	LDI SYSVALUECOPY,0
0021D5	9350 039F	STS WCOMMAND_H,SYSVALUECOPY
0021D7	E050	LDI SYSVALUECOPY,0
0021D8	9350 03A0	STS WDATA,SYSVALUECOPY
0021DA	9350 03A1	STS WDATA_H,SYSVALUECOPY
0021DC	940E 2D3F	CALL WRITE_COMMAND_DATA_SSD1289
0021DE	E156	LDI SYSVALUECOPY,22
0021DF	9350 039E	STS WCOMMAND,SYSVALUECOPY
0021E1	E050	LDI SYSVALUECOPY,0
0021E2	9350 039F	STS WCOMMAND_H,SYSVALUECOPY
0021E4	E15C	LDI SYSVALUECOPY,28
0021E5	9350 03A0	STS WDATA,SYSVALUECOPY
0021E7	EE5F	LDI SYSVALUECOPY,239
0021E8	9350 03A1	STS WDATA_H,SYSVALUECOPY
0021EA	940E 2D3F	CALL WRITE_COMMAND_DATA_SSD1289
0021EC	E157	LDI SYSVALUECOPY,23
0021ED	9350 039E	STS WCOMMAND,SYSVALUECOPY
0021EF	E050	LDI SYSVALUECOPY,0
0021F0	9350 039F	STS WCOMMAND_H,SYSVALUECOPY
0021F2	E053	LDI SYSVALUECOPY,3
0021F3	9350 03A0	STS WDATA,SYSVALUECOPY
0021F5	E050	LDI SYSVALUECOPY,0
0021F6	9350 03A1	STS WDATA_H,SYSVALUECOPY
0021F8	940E 2D3F	CALL WRITE_COMMAND_DATA_SSD1289
0021FA	E057	LDI SYSVALUECOPY,7
0021FB	9350 039E	STS WCOMMAND,SYSVALUECOPY
0021FD	E050	LDI SYSVALUECOPY,0
0021FE	9350 039F	STS WCOMMAND_H,SYSVALUECOPY
002200	E353	LDI SYSVALUECOPY,51
002201	9350 03A0	STS WDATA,SYSVALUECOPY
002203	E052	LDI SYSVALUECOPY,2
002204	9350 03A1	STS WDATA_H,SYSVALUECOPY
002206	940E 2D3F	CALL WRITE_COMMAND_DATA_SSD1289
002208	E05B	LDI SYSVALUECOPY,11
002209	9350 039E	STS WCOMMAND,SYSVALUECOPY
00220B	E050	LDI SYSVALUECOPY,0
00220C	9350 039F	STS WCOMMAND_H,SYSVALUECOPY
00220E	E050	LDI SYSVALUECOPY,0
00220F	9350 03A0	STS WDATA,SYSVALUECOPY
002211	9350 03A1	STS WDATA_H,SYSVALUECOPY
002213	940E 2D3F	CALL WRITE_COMMAND_DATA_SSD1289
002215	E05F	LDI SYSVALUECOPY,15
002216	9350 039E	STS WCOMMAND,SYSVALUECOPY
002218	E050	LDI SYSVALUECOPY,0
002219	9350 039F	STS WCOMMAND_H,SYSVALUECOPY
00221B	E050	LDI SYSVALUECOPY,0
00221C	9350 03A0	STS WDATA,SYSVALUECOPY
00221E	9350 03A1	STS WDATA_H,SYSVALUECOPY
002220	940E 2D3F	CALL WRITE_COMMAND_DATA_SSD1289
002222	E451	LDI SYSVALUECOPY,65
002223	9350 039E	STS WCOMMAND,SYSVALUECOPY
002225	E050	LDI SYSVALUECOPY,0
002226	9350 039F	STS WCOMMAND_H,SYSVALUECOPY
002228	E050	LDI SYSVALUECOPY,0
002229	9350 03A0	STS WDATA,SYSVALUECOPY
00222B	9350 03A1	STS WDATA_H,SYSVALUECOPY
00222D	940E 2D3F	CALL WRITE_COMMAND_DATA_SSD1289
00222F	E452	LDI SYSVALUECOPY,66
002230	9350 039E	STS WCOMMAND,SYSVALUECOPY
002232	E050	LDI SYSVALUECOPY,0
002233	9350 039F	STS WCOMMAND_H,SYSVALUECOPY
002235	E050	LDI SYSVALUECOPY,0
002236	9350 03A0	STS WDATA,SYSVALUECOPY
002238	9350 03A1	STS WDATA_H,SYSVALUECOPY
00223A	940E 2D3F	CALL WRITE_COMMAND_DATA_SSD1289
00223C	E458	LDI SYSVALUECOPY,72
00223D	9350 039E	STS WCOMMAND,SYSVALUECOPY
00223F	E050	LDI SYSVALUECOPY,0
002240	9350 039F	STS WCOMMAND_H,SYSVALUECOPY
002242	E050	LDI SYSVALUECOPY,0
002243	9350 03A0	STS WDATA,SYSVALUECOPY
002245	9350 03A1	STS WDATA_H,SYSVALUECOPY
002247	940E 2D3F	CALL WRITE_COMMAND_DATA_SSD1289
002249	E459	LDI SYSVALUECOPY,73
00224A	9350 039E	STS WCOMMAND,SYSVALUECOPY
00224C	E050	LDI SYSVALUECOPY,0
00224D	9350 039F	STS WCOMMAND_H,SYSVALUECOPY
00224F	E35F	LDI SYSVALUECOPY,63
002250	9350 03A0	STS WDATA,SYSVALUECOPY
002252	E051	LDI SYSVALUECOPY,1
002253	9350 03A1	STS WDATA_H,SYSVALUECOPY
002255	940E 2D3F	CALL WRITE_COMMAND_DATA_SSD1289
002257	E45A	LDI SYSVALUECOPY,74
002258	9350 039E	STS WCOMMAND,SYSVALUECOPY
00225A	E050	LDI SYSVALUECOPY,0
00225B	9350 039F	STS WCOMMAND_H,SYSVALUECOPY
00225D	E050	LDI SYSVALUECOPY,0
00225E	9350 03A0	STS WDATA,SYSVALUECOPY
002260	9350 03A1	STS WDATA_H,SYSVALUECOPY
002262	940E 2D3F	CALL WRITE_COMMAND_DATA_SSD1289
002264	E45B	LDI SYSVALUECOPY,75
002265	9350 039E	STS WCOMMAND,SYSVALUECOPY
002267	E050	LDI SYSVALUECOPY,0
002268	9350 039F	STS WCOMMAND_H,SYSVALUECOPY
00226A	E050	LDI SYSVALUECOPY,0
00226B	9350 03A0	STS WDATA,SYSVALUECOPY
00226D	9350 03A1	STS WDATA_H,SYSVALUECOPY
00226F	940E 2D3F	CALL WRITE_COMMAND_DATA_SSD1289
002271	E454	LDI SYSVALUECOPY,68
002272	9350 039E	STS WCOMMAND,SYSVALUECOPY
002274	E050	LDI SYSVALUECOPY,0
002275	9350 039F	STS WCOMMAND_H,SYSVALUECOPY
002277	E955	LDI SYSVALUECOPY,149
002278	9350 03A0	STS WDATA,SYSVALUECOPY
00227A	EE5F	LDI SYSVALUECOPY,239
00227B	9350 03A1	STS WDATA_H,SYSVALUECOPY
00227D	940E 2D3F	CALL WRITE_COMMAND_DATA_SSD1289
00227F	E455	LDI SYSVALUECOPY,69
002280	9350 039E	STS WCOMMAND,SYSVALUECOPY
002282	E050	LDI SYSVALUECOPY,0
002283	9350 039F	STS WCOMMAND_H,SYSVALUECOPY
002285	E050	LDI SYSVALUECOPY,0
002286	9350 03A0	STS WDATA,SYSVALUECOPY
002288	9350 03A1	STS WDATA_H,SYSVALUECOPY
00228A	940E 2D3F	CALL WRITE_COMMAND_DATA_SSD1289
00228C	E456	LDI SYSVALUECOPY,70
00228D	9350 039E	STS WCOMMAND,SYSVALUECOPY
00228F	E050	LDI SYSVALUECOPY,0
002290	9350 039F	STS WCOMMAND_H,SYSVALUECOPY
002292	E35F	LDI SYSVALUECOPY,63
002293	9350 03A0	STS WDATA,SYSVALUECOPY
002295	E051	LDI SYSVALUECOPY,1
002296	9350 03A1	STS WDATA_H,SYSVALUECOPY
002298	940E 2D3F	CALL WRITE_COMMAND_DATA_SSD1289
00229A	E350	LDI SYSVALUECOPY,48
00229B	9350 039E	STS WCOMMAND,SYSVALUECOPY
00229D	E050	LDI SYSVALUECOPY,0
00229E	9350 039F	STS WCOMMAND_H,SYSVALUECOPY
0022A0	E057	LDI SYSVALUECOPY,7
0022A1	9350 03A0	STS WDATA,SYSVALUECOPY
0022A3	9350 03A1	STS WDATA_H,SYSVALUECOPY
0022A5	940E 2D3F	CALL WRITE_COMMAND_DATA_SSD1289
0022A7	E351	LDI SYSVALUECOPY,49
0022A8	9350 039E	STS WCOMMAND,SYSVALUECOPY
0022AA	E050	LDI SYSVALUECOPY,0
0022AB	9350 039F	STS WCOMMAND_H,SYSVALUECOPY
0022AD	E054	LDI SYSVALUECOPY,4
0022AE	9350 03A0	STS WDATA,SYSVALUECOPY
0022B0	E052	LDI SYSVALUECOPY,2
0022B1	9350 03A1	STS WDATA_H,SYSVALUECOPY
0022B3	940E 2D3F	CALL WRITE_COMMAND_DATA_SSD1289
0022B5	E352	LDI SYSVALUECOPY,50
0022B6	9350 039E	STS WCOMMAND,SYSVALUECOPY
0022B8	E050	LDI SYSVALUECOPY,0
0022B9	9350 039F	STS WCOMMAND_H,SYSVALUECOPY
0022BB	E054	LDI SYSVALUECOPY,4
0022BC	9350 03A0	STS WDATA,SYSVALUECOPY
0022BE	E052	LDI SYSVALUECOPY,2
0022BF	9350 03A1	STS WDATA_H,SYSVALUECOPY
0022C1	940E 2D3F	CALL WRITE_COMMAND_DATA_SSD1289
0022C3	E353	LDI SYSVALUECOPY,51
0022C4	9350 039E	STS WCOMMAND,SYSVALUECOPY
0022C6	E050	LDI SYSVALUECOPY,0
0022C7	9350 039F	STS WCOMMAND_H,SYSVALUECOPY
0022C9	E052	LDI SYSVALUECOPY,2
0022CA	9350 03A0	STS WDATA,SYSVALUECOPY
0022CC	E055	LDI SYSVALUECOPY,5
0022CD	9350 03A1	STS WDATA_H,SYSVALUECOPY
0022CF	940E 2D3F	CALL WRITE_COMMAND_DATA_SSD1289
0022D1	E354	LDI SYSVALUECOPY,52
0022D2	9350 039E	STS WCOMMAND,SYSVALUECOPY
0022D4	E050	LDI SYSVALUECOPY,0
0022D5	9350 039F	STS WCOMMAND_H,SYSVALUECOPY
0022D7	E057	LDI SYSVALUECOPY,7
0022D8	9350 03A0	STS WDATA,SYSVALUECOPY
0022DA	E055	LDI SYSVALUECOPY,5
0022DB	9350 03A1	STS WDATA_H,SYSVALUECOPY
0022DD	940E 2D3F	CALL WRITE_COMMAND_DATA_SSD1289
0022DF	E355	LDI SYSVALUECOPY,53
0022E0	9350 039E	STS WCOMMAND,SYSVALUECOPY
0022E2	E050	LDI SYSVALUECOPY,0
0022E3	9350 039F	STS WCOMMAND_H,SYSVALUECOPY
0022E5	E054	LDI SYSVALUECOPY,4
0022E6	9350 03A0	STS WDATA,SYSVALUECOPY
0022E8	E052	LDI SYSVALUECOPY,2
0022E9	9350 03A1	STS WDATA_H,SYSVALUECOPY
0022EB	940E 2D3F	CALL WRITE_COMMAND_DATA_SSD1289
0022ED	E356	LDI SYSVALUECOPY,54
0022EE	9350 039E	STS WCOMMAND,SYSVALUECOPY
0022F0	E050	LDI SYSVALUECOPY,0
0022F1	9350 039F	STS WCOMMAND_H,SYSVALUECOPY
0022F3	E054	LDI SYSVALUECOPY,4
0022F4	9350 03A0	STS WDATA,SYSVALUECOPY
0022F6	E052	LDI SYSVALUECOPY,2
0022F7	9350 03A1	STS WDATA_H,SYSVALUECOPY
0022F9	940E 2D3F	CALL WRITE_COMMAND_DATA_SSD1289
0022FB	E357	LDI SYSVALUECOPY,55
0022FC	9350 039E	STS WCOMMAND,SYSVALUECOPY
0022FE	E050	LDI SYSVALUECOPY,0
0022FF	9350 039F	STS WCOMMAND_H,SYSVALUECOPY
002301	E052	LDI SYSVALUECOPY,2
002302	9350 03A0	STS WDATA,SYSVALUECOPY
002304	E055	LDI SYSVALUECOPY,5
002305	9350 03A1	STS WDATA_H,SYSVALUECOPY
002307	940E 2D3F	CALL WRITE_COMMAND_DATA_SSD1289
002309	E35A	LDI SYSVALUECOPY,58
00230A	9350 039E	STS WCOMMAND,SYSVALUECOPY
00230C	E050	LDI SYSVALUECOPY,0
00230D	9350 039F	STS WCOMMAND_H,SYSVALUECOPY
00230F	E052	LDI SYSVALUECOPY,2
002310	9350 03A0	STS WDATA,SYSVALUECOPY
002312	E053	LDI SYSVALUECOPY,3
002313	9350 03A1	STS WDATA_H,SYSVALUECOPY
002315	940E 2D3F	CALL WRITE_COMMAND_DATA_SSD1289
002317	E35B	LDI SYSVALUECOPY,59
002318	9350 039E	STS WCOMMAND,SYSVALUECOPY
00231A	E050	LDI SYSVALUECOPY,0
00231B	9350 039F	STS WCOMMAND_H,SYSVALUECOPY
00231D	E052	LDI SYSVALUECOPY,2
00231E	9350 03A0	STS WDATA,SYSVALUECOPY
002320	E053	LDI SYSVALUECOPY,3
002321	9350 03A1	STS WDATA_H,SYSVALUECOPY
002323	940E 2D3F	CALL WRITE_COMMAND_DATA_SSD1289
002325	E253	LDI SYSVALUECOPY,35
002326	9350 039E	STS WCOMMAND,SYSVALUECOPY
002328	E050	LDI SYSVALUECOPY,0
002329	9350 039F	STS WCOMMAND_H,SYSVALUECOPY
00232B	E050	LDI SYSVALUECOPY,0
00232C	9350 03A0	STS WDATA,SYSVALUECOPY
00232E	9350 03A1	STS WDATA_H,SYSVALUECOPY
002330	940E 2D3F	CALL WRITE_COMMAND_DATA_SSD1289
002332	E254	LDI SYSVALUECOPY,36
002333	9350 039E	STS WCOMMAND,SYSVALUECOPY
002335	E050	LDI SYSVALUECOPY,0
002336	9350 039F	STS WCOMMAND_H,SYSVALUECOPY
002338	E050	LDI SYSVALUECOPY,0
002339	9350 03A0	STS WDATA,SYSVALUECOPY
00233B	9350 03A1	STS WDATA_H,SYSVALUECOPY
00233D	940E 2D3F	CALL WRITE_COMMAND_DATA_SSD1289
00233F	E255	LDI SYSVALUECOPY,37
002340	9350 039E	STS WCOMMAND,SYSVALUECOPY
002342	E050	LDI SYSVALUECOPY,0
002343	9350 039F	STS WCOMMAND_H,SYSVALUECOPY
002345	E050	LDI SYSVALUECOPY,0
002346	9350 03A0	STS WDATA,SYSVALUECOPY
002348	E850	LDI SYSVALUECOPY,128
002349	9350 03A1	STS WDATA_H,SYSVALUECOPY
00234B	940E 2D3F	CALL WRITE_COMMAND_DATA_SSD1289
00234D	E45F	LDI SYSVALUECOPY,79
00234E	9350 039E	STS WCOMMAND,SYSVALUECOPY
002350	E050	LDI SYSVALUECOPY,0
002351	9350 039F	STS WCOMMAND_H,SYSVALUECOPY
002353	E050	LDI SYSVALUECOPY,0
002354	9350 03A0	STS WDATA,SYSVALUECOPY
002356	9350 03A1	STS WDATA_H,SYSVALUECOPY
002358	940E 2D3F	CALL WRITE_COMMAND_DATA_SSD1289
00235A	E45E	LDI SYSVALUECOPY,78
00235B	9350 039E	STS WCOMMAND,SYSVALUECOPY
00235D	E050	LDI SYSVALUECOPY,0
00235E	9350 039F	STS WCOMMAND_H,SYSVALUECOPY
002360	E050	LDI SYSVALUECOPY,0
002361	9350 03A0	STS WDATA,SYSVALUECOPY
002363	9350 03A1	STS WDATA_H,SYSVALUECOPY
002365	940E 2D3F	CALL WRITE_COMMAND_DATA_SSD1289
002367	E252	LDI SYSVALUECOPY,34
002368	9350 039E	STS WCOMMAND,SYSVALUECOPY
00236A	E050	LDI SYSVALUECOPY,0
00236B	9350 039F	STS WCOMMAND_H,SYSVALUECOPY
00236D	940E 2D41	CALL WRITE_COMMAND_SSD1289
00236F	9AA1	SBI PORTG,1
002370	E056	LDI SYSVALUECOPY,6
002371	9350 0321	STS GLCDFONTWIDTH,SYSVALUECOPY
002373	E052	LDI SYSVALUECOPY,2
002374	9350 0320	STS GLCDFNTDEFAULTSIZE,SYSVALUECOPY
002376	E057	LDI SYSVALUECOPY,7
002377	9350 031F	STS GLCDFNTDEFAULTHEIGHT,SYSVALUECOPY
002379	EF5F	LDI SYSVALUECOPY,255
00237A	9350 0322	STS GLCDFOREGROUND,SYSVALUECOPY
00237C	9350 0323	STS GLCDFOREGROUND_H,SYSVALUECOPY
00237E	E050	LDI SYSVALUECOPY,0
00237F	9350 0319	STS GLCDBACKGROUND,SYSVALUECOPY
002381	9350 031A	STS GLCDBACKGROUND_H,SYSVALUECOPY
002383	CA68	RJMP GLCDCLS_SSD1289


		INITSYS
002384	E050	LDI SYSVALUECOPY,0
002385	B952	OUT PORTA,SYSVALUECOPY
002386	E050	LDI SYSVALUECOPY,0
002387	B955	OUT PORTB,SYSVALUECOPY
002388	E050	LDI SYSVALUECOPY,0
002389	B958	OUT PORTC,SYSVALUECOPY
00238A	E050	LDI SYSVALUECOPY,0
00238B	B95B	OUT PORTD,SYSVALUECOPY
00238C	E050	LDI SYSVALUECOPY,0
00238D	B95E	OUT PORTE,SYSVALUECOPY
00238E	E050	LDI SYSVALUECOPY,0
00238F	BB51	OUT PORTF,SYSVALUECOPY
002390	E050	LDI SYSVALUECOPY,0
002391	BB54	OUT PORTG,SYSVALUECOPY
002392	E050	LDI SYSVALUECOPY,0
002393	9350 0102	STS PORTH,SYSVALUECOPY
002395	E050	LDI SYSVALUECOPY,0
002396	9350 0105	STS PORTJ,SYSVALUECOPY
002398	9508	RET


		FN_LEN
002399	91A0 036D	LDS SYSSTRINGA,SYSLENTEMPHANDLER
00239B	91B0 036E	LDS SYSSTRINGA_H,SYSLENTEMPHANDLER_H
00239D	915C	LD SYSVALUECOPY,X
00239E	9350 0329	STS LEN,SYSVALUECOPY
0023A0	9508	RET


		LINE
0023A1	E050	LDI SYSVALUECOPY,0
0023A2	9350 032C	STS LINEDIFFX,SYSVALUECOPY
0023A4	9350 032D	STS LINEDIFFX_H,SYSVALUECOPY
0023A6	E050	LDI SYSVALUECOPY,0
0023A7	9350 0330	STS LINEDIFFY,SYSVALUECOPY
0023A9	9350 0331	STS LINEDIFFY_H,SYSVALUECOPY
0023AB	E050	LDI SYSVALUECOPY,0
0023AC	9350 0336	STS LINESTEPX,SYSVALUECOPY
0023AE	9350 0337	STS LINESTEPX_H,SYSVALUECOPY
0023B0	E050	LDI SYSVALUECOPY,0
0023B1	9350 0338	STS LINESTEPY,SYSVALUECOPY
0023B3	9350 0339	STS LINESTEPY_H,SYSVALUECOPY
0023B5	E050	LDI SYSVALUECOPY,0
0023B6	9350 032E	STS LINEDIFFX_X2,SYSVALUECOPY
0023B8	9350 032F	STS LINEDIFFX_X2_H,SYSVALUECOPY
0023BA	E050	LDI SYSVALUECOPY,0
0023BB	9350 0332	STS LINEDIFFY_X2,SYSVALUECOPY
0023BD	9350 0333	STS LINEDIFFY_X2_H,SYSVALUECOPY
0023BF	E050	LDI SYSVALUECOPY,0
0023C0	9350 0334	STS LINEERR,SYSVALUECOPY
0023C2	9350 0335	STS LINEERR_H,SYSVALUECOPY
0023C4	90E0 033C	LDS SYSTEMP3,LINEX2
0023C6	90F0 033A	LDS SYSTEMP4,LINEX1
0023C8	18EF	SUB SYSTEMP3,SYSTEMP4
0023C9	92E0 032C	STS LINEDIFFX,SYSTEMP3
0023CB	90E0 033D	LDS SYSTEMP3,LINEX2_H
0023CD	90F0 033B	LDS SYSTEMP4,LINEX1_H
0023CF	08EF	SBC SYSTEMP3,SYSTEMP4
0023D0	92E0 032D	STS LINEDIFFX_H,SYSTEMP3
0023D2	90E0 0340	LDS SYSTEMP3,LINEY2
0023D4	90F0 033E	LDS SYSTEMP4,LINEY1
0023D6	18EF	SUB SYSTEMP3,SYSTEMP4
0023D7	92E0 0330	STS LINEDIFFY,SYSTEMP3
0023D9	90E0 0341	LDS SYSTEMP3,LINEY2_H
0023DB	90F0 033F	LDS SYSTEMP4,LINEY1_H
0023DD	08EF	SBC SYSTEMP3,SYSTEMP4
0023DE	92E0 0331	STS LINEDIFFY_H,SYSTEMP3
0023E0	91C0 032C	LDS SYSINTEGERTEMPB,LINEDIFFX
0023E2	91D0 032D	LDS SYSINTEGERTEMPB_H,LINEDIFFX_H
0023E4	E060	LDI SYSINTEGERTEMPA,0
0023E5	E070	LDI SYSINTEGERTEMPA_H,0
0023E6	D69F	RCALL SYSCOMPLESSTHANINT
0023E7	FE00	SBRS SYSBYTETEMPX,0
0023E8	C007	RJMP ELSE70_1
0023E9	E051	LDI SYSVALUECOPY,1
0023EA	9350 0336	STS LINESTEPX,SYSVALUECOPY
0023EC	E050	LDI SYSVALUECOPY,0
0023ED	9350 0337	STS LINESTEPX_H,SYSVALUECOPY
0023EF	C005	RJMP ENDIF70
		ELSE70_1
0023F0	EF5F	LDI SYSVALUECOPY,255
0023F1	9350 0336	STS LINESTEPX,SYSVALUECOPY
0023F3	9350 0337	STS LINESTEPX_H,SYSVALUECOPY
		ENDIF70
0023F5	91C0 0330	LDS SYSINTEGERTEMPB,LINEDIFFY
0023F7	91D0 0331	LDS SYSINTEGERTEMPB_H,LINEDIFFY_H
0023F9	E060	LDI SYSINTEGERTEMPA,0
0023FA	E070	LDI SYSINTEGERTEMPA_H,0
0023FB	D68A	RCALL SYSCOMPLESSTHANINT
0023FC	FE00	SBRS SYSBYTETEMPX,0
0023FD	C007	RJMP ELSE71_1
0023FE	E051	LDI SYSVALUECOPY,1
0023FF	9350 0338	STS LINESTEPY,SYSVALUECOPY
002401	E050	LDI SYSVALUECOPY,0
002402	9350 0339	STS LINESTEPY_H,SYSVALUECOPY
002404	C005	RJMP ENDIF71
		ELSE71_1
002405	EF5F	LDI SYSVALUECOPY,255
002406	9350 0338	STS LINESTEPY,SYSVALUECOPY
002408	9350 0339	STS LINESTEPY_H,SYSVALUECOPY
		ENDIF71
00240A	9160 0336	LDS SYSINTEGERTEMPA,LINESTEPX
00240C	9170 0337	LDS SYSINTEGERTEMPA_H,LINESTEPX_H
00240E	91C0 032C	LDS SYSINTEGERTEMPB,LINEDIFFX
002410	91D0 032D	LDS SYSINTEGERTEMPB_H,LINEDIFFX_H
002412	940E 2C65	CALL SYSMULTSUBINT
002414	9200 032C	STS LINEDIFFX,SYSINTEGERTEMPX
002416	9210 032D	STS LINEDIFFX_H,SYSINTEGERTEMPX_H
002418	9160 0338	LDS SYSINTEGERTEMPA,LINESTEPY
00241A	9170 0339	LDS SYSINTEGERTEMPA_H,LINESTEPY_H
00241C	91C0 0330	LDS SYSINTEGERTEMPB,LINEDIFFY
00241E	91D0 0331	LDS SYSINTEGERTEMPB_H,LINEDIFFY_H
002420	940E 2C65	CALL SYSMULTSUBINT
002422	9200 0330	STS LINEDIFFY,SYSINTEGERTEMPX
002424	9210 0331	STS LINEDIFFY_H,SYSINTEGERTEMPX_H
002426	9160 032C	LDS SYSINTEGERTEMPA,LINEDIFFX
002428	9170 032D	LDS SYSINTEGERTEMPA_H,LINEDIFFX_H
00242A	E0C2	LDI SYSINTEGERTEMPB,2
00242B	E0D0	LDI SYSINTEGERTEMPB_H,0
00242C	940E 2C65	CALL SYSMULTSUBINT
00242E	9200 032E	STS LINEDIFFX_X2,SYSINTEGERTEMPX
002430	9210 032F	STS LINEDIFFX_X2_H,SYSINTEGERTEMPX_H
002432	9160 0330	LDS SYSINTEGERTEMPA,LINEDIFFY
002434	9170 0331	LDS SYSINTEGERTEMPA_H,LINEDIFFY_H
002436	E0C2	LDI SYSINTEGERTEMPB,2
002437	E0D0	LDI SYSINTEGERTEMPB_H,0
002438	940E 2C65	CALL SYSMULTSUBINT
00243A	9200 0332	STS LINEDIFFY_X2,SYSINTEGERTEMPX
00243C	9210 0333	STS LINEDIFFY_X2_H,SYSINTEGERTEMPX_H
00243E	9160 032C	LDS SYSINTEGERTEMPA,LINEDIFFX
002440	9170 032D	LDS SYSINTEGERTEMPA_H,LINEDIFFX_H
002442	91C0 0330	LDS SYSINTEGERTEMPB,LINEDIFFY
002444	91D0 0331	LDS SYSINTEGERTEMPB_H,LINEDIFFY_H
002446	D63F	RCALL SYSCOMPLESSTHANINT
002447	9400	COM SYSBYTETEMPX
002448	FE00	SBRS SYSBYTETEMPX,0
002449	C098	RJMP ELSE72_1
00244A	90E0 0332	LDS SYSTEMP3,LINEDIFFY_X2
00244C	90F0 032C	LDS SYSTEMP4,LINEDIFFX
00244E	18EF	SUB SYSTEMP3,SYSTEMP4
00244F	92E0 0334	STS LINEERR,SYSTEMP3
002451	90E0 0333	LDS SYSTEMP3,LINEDIFFY_X2_H
002453	90F0 032D	LDS SYSTEMP4,LINEDIFFX_H
002455	08EF	SBC SYSTEMP3,SYSTEMP4
002456	92E0 0335	STS LINEERR_H,SYSTEMP3
		SYSDOLOOP_S2
002458	9160 033A	LDS SYSWORDTEMPA,LINEX1
00245A	9170 033B	LDS SYSWORDTEMPA_H,LINEX1_H
00245C	91C0 033C	LDS SYSWORDTEMPB,LINEX2
00245E	91D0 033D	LDS SYSWORDTEMPB_H,LINEX2_H
002460	D5F4	RCALL SYSCOMPEQUAL16
002461	9400	COM SYSBYTETEMPX
002462	FE00	SBRS SYSBYTETEMPX,0
002463	C064	RJMP SYSDOLOOP_E2
002464	9150 033A	LDS SYSVALUECOPY,LINEX1
002466	9350 034A	STS PX1,SYSVALUECOPY
002468	9150 033B	LDS SYSVALUECOPY,LINEX1_H
00246A	9350 034B	STS PX1_H,SYSVALUECOPY
00246C	9150 033E	LDS SYSVALUECOPY,LINEY1
00246E	9350 034E	STS PY1,SYSVALUECOPY
002470	9150 033F	LDS SYSVALUECOPY,LINEY1_H
002472	9350 034F	STS PY1_H,SYSVALUECOPY
002474	9150 032A	LDS SYSVALUECOPY,LINECOLOUR
002476	9350 0304	STS COLOR,SYSVALUECOPY
002478	9150 032B	LDS SYSVALUECOPY,LINECOLOUR_H
00247A	9350 0305	STS COLOR_H,SYSVALUECOPY
00247C	D15E	RCALL PSET_SSD1289
00247D	90E0 033A	LDS SYSTEMP3,LINEX1
00247F	90F0 0336	LDS SYSTEMP4,LINESTEPX
002481	0CEF	ADD SYSTEMP3,SYSTEMP4
002482	92E0 033A	STS LINEX1,SYSTEMP3
002484	90E0 033B	LDS SYSTEMP3,LINEX1_H
002486	90F0 0337	LDS SYSTEMP4,LINESTEPX_H
002488	1CEF	ADC SYSTEMP3,SYSTEMP4
002489	92E0 033B	STS LINEX1_H,SYSTEMP3
00248B	9160 0334	LDS SYSINTEGERTEMPA,LINEERR
00248D	9170 0335	LDS SYSINTEGERTEMPA_H,LINEERR_H
00248F	E0C0	LDI SYSINTEGERTEMPB,0
002490	E0D0	LDI SYSINTEGERTEMPB_H,0
002491	D5F4	RCALL SYSCOMPLESSTHANINT
002492	FE00	SBRS SYSBYTETEMPX,0
002493	C00F	RJMP ELSE73_1
002494	90E0 0334	LDS SYSTEMP3,LINEERR
002496	90F0 0332	LDS SYSTEMP4,LINEDIFFY_X2
002498	0CEF	ADD SYSTEMP3,SYSTEMP4
002499	92E0 0334	STS LINEERR,SYSTEMP3
00249B	90E0 0335	LDS SYSTEMP3,LINEERR_H
00249D	90F0 0333	LDS SYSTEMP4,LINEDIFFY_X2_H
00249F	1CEF	ADC SYSTEMP3,SYSTEMP4
0024A0	92E0 0335	STS LINEERR_H,SYSTEMP3
0024A2	C024	RJMP ENDIF73
		ELSE73_1
0024A3	90E0 0332	LDS SYSTEMP3,LINEDIFFY_X2
0024A5	90F0 032E	LDS SYSTEMP4,LINEDIFFX_X2
0024A7	18EF	SUB SYSTEMP3,SYSTEMP4
0024A8	2C6E	MOV SYSTEMP1,SYSTEMP3
0024A9	90E0 0333	LDS SYSTEMP3,LINEDIFFY_X2_H
0024AB	90F0 032F	LDS SYSTEMP4,LINEDIFFX_X2_H
0024AD	08EF	SBC SYSTEMP3,SYSTEMP4
0024AE	2C7E	MOV SYSTEMP1_H,SYSTEMP3
0024AF	90E0 0334	LDS SYSTEMP3,LINEERR
0024B1	0CE6	ADD SYSTEMP3,SYSTEMP1
0024B2	92E0 0334	STS LINEERR,SYSTEMP3
0024B4	90E0 0335	LDS SYSTEMP3,LINEERR_H
0024B6	1CE7	ADC SYSTEMP3,SYSTEMP1_H
0024B7	92E0 0335	STS LINEERR_H,SYSTEMP3
0024B9	90E0 033E	LDS SYSTEMP3,LINEY1
0024BB	90F0 0338	LDS SYSTEMP4,LINESTEPY
0024BD	0CEF	ADD SYSTEMP3,SYSTEMP4
0024BE	92E0 033E	STS LINEY1,SYSTEMP3
0024C0	90E0 033F	LDS SYSTEMP3,LINEY1_H
0024C2	90F0 0339	LDS SYSTEMP4,LINESTEPY_H
0024C4	1CEF	ADC SYSTEMP3,SYSTEMP4
0024C5	92E0 033F	STS LINEY1_H,SYSTEMP3
		ENDIF73
0024C7	CF90	RJMP SYSDOLOOP_S2
		SYSDOLOOP_E2
0024C8	9150 033A	LDS SYSVALUECOPY,LINEX1
0024CA	9350 034A	STS PX1,SYSVALUECOPY
0024CC	9150 033B	LDS SYSVALUECOPY,LINEX1_H
0024CE	9350 034B	STS PX1_H,SYSVALUECOPY
0024D0	9150 033E	LDS SYSVALUECOPY,LINEY1
0024D2	9350 034E	STS PY1,SYSVALUECOPY
0024D4	9150 033F	LDS SYSVALUECOPY,LINEY1_H
0024D6	9350 034F	STS PY1_H,SYSVALUECOPY
0024D8	9150 032A	LDS SYSVALUECOPY,LINECOLOUR
0024DA	9350 0304	STS COLOR,SYSVALUECOPY
0024DC	9150 032B	LDS SYSVALUECOPY,LINECOLOUR_H
0024DE	9350 0305	STS COLOR_H,SYSVALUECOPY
0024E0	D0FA	RCALL PSET_SSD1289
0024E1	C097	RJMP ENDIF72
		ELSE72_1
0024E2	90E0 032E	LDS SYSTEMP3,LINEDIFFX_X2
0024E4	90F0 0330	LDS SYSTEMP4,LINEDIFFY
0024E6	18EF	SUB SYSTEMP3,SYSTEMP4
0024E7	92E0 0334	STS LINEERR,SYSTEMP3
0024E9	90E0 032F	LDS SYSTEMP3,LINEDIFFX_X2_H
0024EB	90F0 0331	LDS SYSTEMP4,LINEDIFFY_H
0024ED	08EF	SBC SYSTEMP3,SYSTEMP4
0024EE	92E0 0335	STS LINEERR_H,SYSTEMP3
		SYSDOLOOP_S3
0024F0	9160 033E	LDS SYSWORDTEMPA,LINEY1
0024F2	9170 033F	LDS SYSWORDTEMPA_H,LINEY1_H
0024F4	91C0 0340	LDS SYSWORDTEMPB,LINEY2
0024F6	91D0 0341	LDS SYSWORDTEMPB_H,LINEY2_H
0024F8	D55C	RCALL SYSCOMPEQUAL16
0024F9	9400	COM SYSBYTETEMPX
0024FA	FE00	SBRS SYSBYTETEMPX,0
0024FB	C064	RJMP SYSDOLOOP_E3
0024FC	9150 033A	LDS SYSVALUECOPY,LINEX1
0024FE	9350 034A	STS PX1,SYSVALUECOPY
002500	9150 033B	LDS SYSVALUECOPY,LINEX1_H
002502	9350 034B	STS PX1_H,SYSVALUECOPY
002504	9150 033E	LDS SYSVALUECOPY,LINEY1
002506	9350 034E	STS PY1,SYSVALUECOPY
002508	9150 033F	LDS SYSVALUECOPY,LINEY1_H
00250A	9350 034F	STS PY1_H,SYSVALUECOPY
00250C	9150 032A	LDS SYSVALUECOPY,LINECOLOUR
00250E	9350 0304	STS COLOR,SYSVALUECOPY
002510	9150 032B	LDS SYSVALUECOPY,LINECOLOUR_H
002512	9350 0305	STS COLOR_H,SYSVALUECOPY
002514	D0C6	RCALL PSET_SSD1289
002515	90E0 033E	LDS SYSTEMP3,LINEY1
002517	90F0 0338	LDS SYSTEMP4,LINESTEPY
002519	0CEF	ADD SYSTEMP3,SYSTEMP4
00251A	92E0 033E	STS LINEY1,SYSTEMP3
00251C	90E0 033F	LDS SYSTEMP3,LINEY1_H
00251E	90F0 0339	LDS SYSTEMP4,LINESTEPY_H
002520	1CEF	ADC SYSTEMP3,SYSTEMP4
002521	92E0 033F	STS LINEY1_H,SYSTEMP3
002523	9160 0334	LDS SYSINTEGERTEMPA,LINEERR
002525	9170 0335	LDS SYSINTEGERTEMPA_H,LINEERR_H
002527	E0C0	LDI SYSINTEGERTEMPB,0
002528	E0D0	LDI SYSINTEGERTEMPB_H,0
002529	D55C	RCALL SYSCOMPLESSTHANINT
00252A	FE00	SBRS SYSBYTETEMPX,0
00252B	C00F	RJMP ELSE74_1
00252C	90E0 0334	LDS SYSTEMP3,LINEERR
00252E	90F0 032E	LDS SYSTEMP4,LINEDIFFX_X2
002530	0CEF	ADD SYSTEMP3,SYSTEMP4
002531	92E0 0334	STS LINEERR,SYSTEMP3
002533	90E0 0335	LDS SYSTEMP3,LINEERR_H
002535	90F0 032F	LDS SYSTEMP4,LINEDIFFX_X2_H
002537	1CEF	ADC SYSTEMP3,SYSTEMP4
002538	92E0 0335	STS LINEERR_H,SYSTEMP3
00253A	C024	RJMP ENDIF74
		ELSE74_1
00253B	90E0 032E	LDS SYSTEMP3,LINEDIFFX_X2
00253D	90F0 0332	LDS SYSTEMP4,LINEDIFFY_X2
00253F	18EF	SUB SYSTEMP3,SYSTEMP4
002540	2C6E	MOV SYSTEMP1,SYSTEMP3
002541	90E0 032F	LDS SYSTEMP3,LINEDIFFX_X2_H
002543	90F0 0333	LDS SYSTEMP4,LINEDIFFY_X2_H
002545	08EF	SBC SYSTEMP3,SYSTEMP4
002546	2C7E	MOV SYSTEMP1_H,SYSTEMP3
002547	90E0 0334	LDS SYSTEMP3,LINEERR
002549	0CE6	ADD SYSTEMP3,SYSTEMP1
00254A	92E0 0334	STS LINEERR,SYSTEMP3
00254C	90E0 0335	LDS SYSTEMP3,LINEERR_H
00254E	1CE7	ADC SYSTEMP3,SYSTEMP1_H
00254F	92E0 0335	STS LINEERR_H,SYSTEMP3
002551	90E0 033A	LDS SYSTEMP3,LINEX1
002553	90F0 0336	LDS SYSTEMP4,LINESTEPX
002555	0CEF	ADD SYSTEMP3,SYSTEMP4
002556	92E0 033A	STS LINEX1,SYSTEMP3
002558	90E0 033B	LDS SYSTEMP3,LINEX1_H
00255A	90F0 0337	LDS SYSTEMP4,LINESTEPX_H
00255C	1CEF	ADC SYSTEMP3,SYSTEMP4
00255D	92E0 033B	STS LINEX1_H,SYSTEMP3
		ENDIF74
00255F	CF90	RJMP SYSDOLOOP_S3
		SYSDOLOOP_E3
002560	9150 033A	LDS SYSVALUECOPY,LINEX1
002562	9350 034A	STS PX1,SYSVALUECOPY
002564	9150 033B	LDS SYSVALUECOPY,LINEX1_H
002566	9350 034B	STS PX1_H,SYSVALUECOPY
002568	9150 033E	LDS SYSVALUECOPY,LINEY1
00256A	9350 034E	STS PY1,SYSVALUECOPY
00256C	9150 033F	LDS SYSVALUECOPY,LINEY1_H
00256E	9350 034F	STS PY1_H,SYSVALUECOPY
002570	9150 032A	LDS SYSVALUECOPY,LINECOLOUR
002572	9350 0304	STS COLOR,SYSVALUECOPY
002574	9150 032B	LDS SYSVALUECOPY,LINECOLOUR_H
002576	9350 0305	STS COLOR_H,SYSVALUECOPY
002578	D062	RCALL PSET_SSD1289
		ENDIF72
002579	9508	RET


		PRINT_SSD1289513
00257A	91A0 037B	LDS SYSSTRINGA,SYSPRINTDATAHANDLER
00257C	91B0 037C	LDS SYSSTRINGA_H,SYSPRINTDATAHANDLER_H
00257E	915C	LD SYSVALUECOPY,X
00257F	9350 0345	STS PRINTLEN,SYSVALUECOPY
002581	9160 0345	LDS SYSCALCTEMPA,PRINTLEN
002583	2366	TST SYSCALCTEMPA
002584	F409	BRNE ENDIF62
002585	9508	RET
		ENDIF62
002586	9150 0346	LDS SYSVALUECOPY,PRINTLOCX
002588	9350 0324	STS GLCDPRINTLOC,SYSVALUECOPY
00258A	9150 0347	LDS SYSVALUECOPY,PRINTLOCX_H
00258C	9350 0325	STS GLCDPRINTLOC_H,SYSVALUECOPY
00258E	E051	LDI SYSVALUECOPY,1
00258F	9350 037D	STS SYSPRINTTEMP,SYSVALUECOPY
		SYSFORLOOP7
002591	9150 0324	LDS SYSVALUECOPY,GLCDPRINTLOC
002593	9350 02FC	STS CHARLOCX,SYSVALUECOPY
002595	9150 0325	LDS SYSVALUECOPY,GLCDPRINTLOC_H
002597	9350 02FD	STS CHARLOCX_H,SYSVALUECOPY
002599	9150 0348	LDS SYSVALUECOPY,PRINTLOCY
00259B	9350 02FE	STS CHARLOCY,SYSVALUECOPY
00259D	9150 0349	LDS SYSVALUECOPY,PRINTLOCY_H
00259F	9350 02FF	STS CHARLOCY_H,SYSVALUECOPY
0025A1	90E0 037B	LDS SYSTEMP3,SYSPRINTDATAHANDLER
0025A3	90F0 037D	LDS SYSTEMP4,SYSPRINTTEMP
0025A5	0CEF	ADD SYSTEMP3,SYSTEMP4
0025A6	2DAE	MOV SYSSTRINGA,SYSTEMP3
0025A7	90E0 037C	LDS SYSTEMP3,SYSPRINTDATAHANDLER_H
0025A9	E000	LDI SYSTEMP5,0
0025AA	1EE0	ADC SYSTEMP3,SYSTEMP5
0025AB	2DBE	MOV SYSSTRINGA_H,SYSTEMP3
0025AC	915C	LD SYSVALUECOPY,X
0025AD	9350 02F8	STS CHARCODE,SYSVALUECOPY
0025AF	9150 0322	LDS SYSVALUECOPY,GLCDFOREGROUND
0025B1	9350 032A	STS LINECOLOUR,SYSVALUECOPY
0025B3	9150 0323	LDS SYSVALUECOPY,GLCDFOREGROUND_H
0025B5	9350 032B	STS LINECOLOUR_H,SYSVALUECOPY
0025B7	D8C2	RCALL GLCDDRAWCHAR_SSD1289
0025B8	9160 0321	LDS SYSBYTETEMPA,GLCDFONTWIDTH
0025BA	91C0 035F	LDS SYSBYTETEMPB,SIZE
0025BC	9F6C	MUL SYSBYTETEMPA,SYSBYTETEMPB
0025BD	90E0 0324	LDS SYSTEMP3,GLCDPRINTLOC
0025BF	0CE0	ADD SYSTEMP3,SYSBYTETEMPX
0025C0	92E0 0324	STS GLCDPRINTLOC,SYSTEMP3
0025C2	90E0 0325	LDS SYSTEMP3,GLCDPRINTLOC_H
0025C4	E000	LDI SYSTEMP5,0
0025C5	1EE0	ADC SYSTEMP3,SYSTEMP5
0025C6	92E0 0325	STS GLCDPRINTLOC_H,SYSTEMP3
0025C8	90F0 0345	LDS SYSTEMP4,PRINTLEN
0025CA	9060 037D	LDS SYSTEMP1,SYSPRINTTEMP
0025CC	18F6	SUB SYSTEMP4,SYSTEMP1
0025CD	2CEF	MOV SYSTEMP3,SYSTEMP4
0025CE	2D6E	MOV SYSBYTETEMPA,SYSTEMP3
0025CF	E0C0	LDI SYSBYTETEMPB,0
0025D0	D47F	RCALL SYSCOMPEQUAL
0025D1	9400	COM SYSBYTETEMPX
0025D2	FE00	SBRS SYSBYTETEMPX,0
0025D3	C006	RJMP ENDIF63
0025D4	90E0 037D	LDS SYSTEMP3,SYSPRINTTEMP
0025D6	94E3	INC SYSTEMP3
0025D7	92E0 037D	STS SYSPRINTTEMP,SYSTEMP3
0025D9	CFB7	RJMP SYSFORLOOP7
		ENDIF63
		SYSFORLOOPEND7
0025DA	9508	RET


		PSET_SSD1289
0025DB	91C0 034A	LDS SYSWORDTEMPB,PX1
0025DD	91D0 034B	LDS SYSWORDTEMPB_H,PX1_H
0025DF	9160 031D	LDS SYSWORDTEMPA,GLCDDEVICEWIDTH
0025E1	9170 031E	LDS SYSWORDTEMPA_H,GLCDDEVICEWIDTH_H
0025E3	D489	RCALL SYSCOMPLESSTHAN16
0025E4	2CE0	MOV SYSTEMP3,SYSBYTETEMPX
0025E5	91C0 034E	LDS SYSWORDTEMPB,PY1
0025E7	91D0 034F	LDS SYSWORDTEMPB_H,PY1_H
0025E9	9160 031B	LDS SYSWORDTEMPA,GLCDDEVICEHEIGHT
0025EB	9170 031C	LDS SYSWORDTEMPA_H,GLCDDEVICEHEIGHT_H
0025ED	D47F	RCALL SYSCOMPLESSTHAN16
0025EE	2C60	MOV SYSTEMP1,SYSBYTETEMPX
0025EF	286E	OR SYSTEMP1,SYSTEMP3
0025F0	2CF6	MOV SYSTEMP4,SYSTEMP1
0025F1	FCF0	SBRC SYSTEMP4,0
0025F2	9508	RET
0025F3	98A1	CBI PORTG,1
0025F4	9150 034A	LDS SYSVALUECOPY,PX1
0025F6	9350 034C	STS PX2,SYSVALUECOPY
0025F8	9150 034B	LDS SYSVALUECOPY,PX1_H
0025FA	9350 034D	STS PX2_H,SYSVALUECOPY
0025FC	9150 034E	LDS SYSVALUECOPY,PY1
0025FE	9350 0350	STS PY2,SYSVALUECOPY
002600	9150 034F	LDS SYSVALUECOPY,PY1_H
002602	9350 0351	STS PY2_H,SYSVALUECOPY
002604	D2A8	RCALL SET_ADDRESS_SSD1289
002605	9150 0304	LDS SYSVALUECOPY,COLOR
002607	9350 03A0	STS WDATA,SYSVALUECOPY
002609	9150 0305	LDS SYSVALUECOPY,COLOR_H
00260B	9350 03A1	STS WDATA_H,SYSVALUECOPY
00260D	D740	RCALL WRITE_DATA_SSD1289
00260E	9AA1	SBI PORTG,1
00260F	9508	RET


		FN_RIGHT
002610	91A0 0384	LDS SYSSTRINGA,SYSSYSINSTRINGHANDLER
002612	91B0 0385	LDS SYSSTRINGA_H,SYSSYSINSTRINGHANDLER_H
002614	916C	LD SYSCALCTEMPA,X
002615	2366	TST SYSCALCTEMPA
002616	F421	BRNE ENDIF52
002617	E050	LDI SYSVALUECOPY,0
002618	9350 0229	STS SYSRIGHT_0,SYSVALUECOPY
00261A	9508	RET
		ENDIF52
00261B	91A0 0384	LDS SYSSTRINGA,SYSSYSINSTRINGHANDLER
00261D	91B0 0385	LDS SYSSTRINGA_H,SYSSYSINSTRINGHANDLER_H
00261F	916C	LD SYSCALCTEMPA,X
002620	91C0 036B	LDS SYSCALCTEMPB,SYSCHARCOUNT
002622	176C	CP SYSCALCTEMPA,SYSCALCTEMPB
002623	F438	BRSH ENDIF53
002624	91A0 0384	LDS SYSSTRINGA,SYSSYSINSTRINGHANDLER
002626	91B0 0385	LDS SYSSTRINGA_H,SYSSYSINSTRINGHANDLER_H
002628	915C	LD SYSVALUECOPY,X
002629	9350 036B	STS SYSCHARCOUNT,SYSVALUECOPY
		ENDIF53
00262B	91A0 0384	LDS SYSSTRINGA,SYSSYSINSTRINGHANDLER
00262D	91B0 0385	LDS SYSSTRINGA_H,SYSSYSINSTRINGHANDLER_H
00262F	90EC	LD SYSTEMP3,X
002630	90F0 036B	LDS SYSTEMP4,SYSCHARCOUNT
002632	18EF	SUB SYSTEMP3,SYSTEMP4
002633	92E0 036C	STS SYSCHARSTART,SYSTEMP3
002635	E051	LDI SYSVALUECOPY,1
002636	9350 0383	STS SYSSTRINGTEMP,SYSVALUECOPY
		SYSFORLOOP2
002638	90F0 036C	LDS SYSTEMP4,SYSCHARSTART
00263A	9060 0383	LDS SYSTEMP1,SYSSTRINGTEMP
00263C	0CF6	ADD SYSTEMP4,SYSTEMP1
00263D	2CEF	MOV SYSTEMP3,SYSTEMP4
00263E	90F0 0384	LDS SYSTEMP4,SYSSYSINSTRINGHANDLER
002640	0CFE	ADD SYSTEMP4,SYSTEMP3
002641	2DAF	MOV SYSSTRINGA,SYSTEMP4
002642	90E0 0385	LDS SYSTEMP3,SYSSYSINSTRINGHANDLER_H
002644	E000	LDI SYSTEMP5,0
002645	1EE0	ADC SYSTEMP3,SYSTEMP5
002646	2DBE	MOV SYSSTRINGA_H,SYSTEMP3
002647	915D	LD SYSVALUECOPY,X+
002648	9350 036A	STS SYSARRAYTEMP2,SYSVALUECOPY
00264A	9350 0369	STS SYSARRAYTEMP1,SYSVALUECOPY
00264C	90E0 0383	LDS SYSTEMP3,SYSSTRINGTEMP
00264E	E209	LDI SYSTEMP5,LOW(RIGHT)
00264F	0EE0	ADD SYSTEMP3,SYSTEMP5
002650	2DAE	MOV SYSSTRINGA,SYSTEMP3
002651	E000	LDI SYSTEMP5,0
002652	E012	LDI SYSTEMP6,HIGH(RIGHT)
002653	1F01	ADC SYSTEMP5,SYSTEMP6
002654	2FB0	MOV SYSSTRINGA_H,SYSTEMP5
002655	9150 0369	LDS SYSVALUECOPY,SYSARRAYTEMP1
002657	935D	ST X+,SYSVALUECOPY
002658	90F0 036B	LDS SYSTEMP4,SYSCHARCOUNT
00265A	9060 0383	LDS SYSTEMP1,SYSSTRINGTEMP
00265C	18F6	SUB SYSTEMP4,SYSTEMP1
00265D	2CEF	MOV SYSTEMP3,SYSTEMP4
00265E	2D6E	MOV SYSBYTETEMPA,SYSTEMP3
00265F	E0C0	LDI SYSBYTETEMPB,0
002660	D3EF	RCALL SYSCOMPEQUAL
002661	9400	COM SYSBYTETEMPX
002662	FE00	SBRS SYSBYTETEMPX,0
002663	C006	RJMP ENDIF54
002664	90E0 0383	LDS SYSTEMP3,SYSSTRINGTEMP
002666	94E3	INC SYSTEMP3
002667	92E0 0383	STS SYSSTRINGTEMP,SYSTEMP3
002669	CFCE	RJMP SYSFORLOOP2
		ENDIF54
		SYSFORLOOPEND2
00266A	9150 036B	LDS SYSVALUECOPY,SYSCHARCOUNT
00266C	9350 0229	STS SYSRIGHT_0,SYSVALUECOPY
00266E	9508	RET


		ROUNDRECT31
00266F	91C0 0357	LDS SYSWORDTEMPB,RX1
002671	91D0 0358	LDS SYSWORDTEMPB_H,RX1_H
002673	9160 0359	LDS SYSWORDTEMPA,RX2
002675	9170 035A	LDS SYSWORDTEMPA_H,RX2_H
002677	D3F5	RCALL SYSCOMPLESSTHAN16
002678	FE00	SBRS SYSBYTETEMPX,0
002679	C011	RJMP ENDIF28
00267A	9160 0357	LDS SYSCALCTEMPA,RX1
00267C	9170 0358	LDS SYSCALCTEMPA_H,RX1_H
00267E	91C0 0359	LDS SYSCALCTEMPB,RX2
002680	91D0 035A	LDS SYSCALCTEMPB_H,RX2_H
002682	D3C6	RCALL SWAP149
002683	9360 0357	STS RX1,SYSCALCTEMPA
002685	9370 0358	STS RX1_H,SYSCALCTEMPA_H
002687	93C0 0359	STS RX2,SYSCALCTEMPB
002689	93D0 035A	STS RX2_H,SYSCALCTEMPB_H
		ENDIF28
00268B	91C0 035B	LDS SYSWORDTEMPB,RY1
00268D	91D0 035C	LDS SYSWORDTEMPB_H,RY1_H
00268F	9160 035D	LDS SYSWORDTEMPA,RY2
002691	9170 035E	LDS SYSWORDTEMPA_H,RY2_H
002693	D3D9	RCALL SYSCOMPLESSTHAN16
002694	FE00	SBRS SYSBYTETEMPX,0
002695	C011	RJMP ENDIF29
002696	9160 035B	LDS SYSCALCTEMPA,RY1
002698	9170 035C	LDS SYSCALCTEMPA_H,RY1_H
00269A	91C0 035D	LDS SYSCALCTEMPB,RY2
00269C	91D0 035E	LDS SYSCALCTEMPB_H,RY2_H
00269E	D3AA	RCALL SWAP149
00269F	9360 035B	STS RY1,SYSCALCTEMPA
0026A1	9370 035C	STS RY1_H,SYSCALCTEMPA_H
0026A3	93C0 035D	STS RY2,SYSCALCTEMPB
0026A5	93D0 035E	STS RY2_H,SYSCALCTEMPB_H
		ENDIF29
0026A7	90A0 0359	LDS SYSTEMP2,RX2
0026A9	90E0 0357	LDS SYSTEMP3,RX1
0026AB	18AE	SUB SYSTEMP2,SYSTEMP3
0026AC	2C6A	MOV SYSTEMP1,SYSTEMP2
0026AD	90A0 035A	LDS SYSTEMP2,RX2_H
0026AF	90E0 0358	LDS SYSTEMP3,RX1_H
0026B1	08AE	SBC SYSTEMP2,SYSTEMP3
0026B2	2C7A	MOV SYSTEMP1_H,SYSTEMP2
0026B3	2DC6	MOV SYSWORDTEMPB,SYSTEMP1
0026B4	2DD7	MOV SYSWORDTEMPB_H,SYSTEMP1_H
0026B5	E064	LDI SYSWORDTEMPA,4
0026B6	E070	LDI SYSWORDTEMPA_H,0
0026B7	D3B5	RCALL SYSCOMPLESSTHAN16
0026B8	2CA0	MOV SYSTEMP2,SYSBYTETEMPX
0026B9	90E0 035D	LDS SYSTEMP3,RY2
0026BB	90F0 035B	LDS SYSTEMP4,RY1
0026BD	18EF	SUB SYSTEMP3,SYSTEMP4
0026BE	2C6E	MOV SYSTEMP1,SYSTEMP3
0026BF	90E0 035E	LDS SYSTEMP3,RY2_H
0026C1	90F0 035C	LDS SYSTEMP4,RY1_H
0026C3	08EF	SBC SYSTEMP3,SYSTEMP4
0026C4	2C7E	MOV SYSTEMP1_H,SYSTEMP3
0026C5	2DC6	MOV SYSWORDTEMPB,SYSTEMP1
0026C6	2DD7	MOV SYSWORDTEMPB_H,SYSTEMP1_H
0026C7	E064	LDI SYSWORDTEMPA,4
0026C8	E070	LDI SYSWORDTEMPA_H,0
0026C9	D3A3	RCALL SYSCOMPLESSTHAN16
0026CA	2CE0	MOV SYSTEMP3,SYSBYTETEMPX
0026CB	20EA	AND SYSTEMP3,SYSTEMP2
0026CC	2CFE	MOV SYSTEMP4,SYSTEMP3
0026CD	FEF0	SBRS SYSTEMP4,0
0026CE	C18C	RJMP ENDIF30
0026CF	90A0 0357	LDS SYSTEMP2,RX1
0026D1	E001	LDI SYSTEMP5,1
0026D2	0EA0	ADD SYSTEMP2,SYSTEMP5
0026D3	92A0 034A	STS PX1,SYSTEMP2
0026D5	90A0 0358	LDS SYSTEMP2,RX1_H
0026D7	E000	LDI SYSTEMP5,0
0026D8	1EA0	ADC SYSTEMP2,SYSTEMP5
0026D9	92A0 034B	STS PX1_H,SYSTEMP2
0026DB	90A0 035B	LDS SYSTEMP2,RY1
0026DD	E002	LDI SYSTEMP5,2
0026DE	0EA0	ADD SYSTEMP2,SYSTEMP5
0026DF	92A0 034E	STS PY1,SYSTEMP2
0026E1	90A0 035C	LDS SYSTEMP2,RY1_H
0026E3	E000	LDI SYSTEMP5,0
0026E4	1EA0	ADC SYSTEMP2,SYSTEMP5
0026E5	92A0 034F	STS PY1_H,SYSTEMP2
0026E7	DEF3	RCALL PSET_SSD1289
0026E8	90A0 0357	LDS SYSTEMP2,RX1
0026EA	E002	LDI SYSTEMP5,2
0026EB	0EA0	ADD SYSTEMP2,SYSTEMP5
0026EC	92A0 034A	STS PX1,SYSTEMP2
0026EE	90A0 0358	LDS SYSTEMP2,RX1_H
0026F0	E000	LDI SYSTEMP5,0
0026F1	1EA0	ADC SYSTEMP2,SYSTEMP5
0026F2	92A0 034B	STS PX1_H,SYSTEMP2
0026F4	90A0 035B	LDS SYSTEMP2,RY1
0026F6	E001	LDI SYSTEMP5,1
0026F7	0EA0	ADD SYSTEMP2,SYSTEMP5
0026F8	92A0 034E	STS PY1,SYSTEMP2
0026FA	90A0 035C	LDS SYSTEMP2,RY1_H
0026FC	E000	LDI SYSTEMP5,0
0026FD	1EA0	ADC SYSTEMP2,SYSTEMP5
0026FE	92A0 034F	STS PY1_H,SYSTEMP2
002700	DEDA	RCALL PSET_SSD1289
002701	90A0 0359	LDS SYSTEMP2,RX2
002703	E002	LDI SYSTEMP5,2
002704	1AA0	SUB SYSTEMP2,SYSTEMP5
002705	92A0 034A	STS PX1,SYSTEMP2
002707	90A0 035A	LDS SYSTEMP2,RX2_H
002709	E000	LDI SYSTEMP5,0
00270A	0AA0	SBC SYSTEMP2,SYSTEMP5
00270B	92A0 034B	STS PX1_H,SYSTEMP2
00270D	90A0 035B	LDS SYSTEMP2,RY1
00270F	E001	LDI SYSTEMP5,1
002710	0EA0	ADD SYSTEMP2,SYSTEMP5
002711	92A0 034E	STS PY1,SYSTEMP2
002713	90A0 035C	LDS SYSTEMP2,RY1_H
002715	E000	LDI SYSTEMP5,0
002716	1EA0	ADC SYSTEMP2,SYSTEMP5
002717	92A0 034F	STS PY1_H,SYSTEMP2
002719	DEC1	RCALL PSET_SSD1289
00271A	90A0 0359	LDS SYSTEMP2,RX2
00271C	E001	LDI SYSTEMP5,1
00271D	1AA0	SUB SYSTEMP2,SYSTEMP5
00271E	92A0 034A	STS PX1,SYSTEMP2
002720	90A0 035A	LDS SYSTEMP2,RX2_H
002722	E000	LDI SYSTEMP5,0
002723	0AA0	SBC SYSTEMP2,SYSTEMP5
002724	92A0 034B	STS PX1_H,SYSTEMP2
002726	90A0 035B	LDS SYSTEMP2,RY1
002728	E002	LDI SYSTEMP5,2
002729	0EA0	ADD SYSTEMP2,SYSTEMP5
00272A	92A0 034E	STS PY1,SYSTEMP2
00272C	90A0 035C	LDS SYSTEMP2,RY1_H
00272E	E000	LDI SYSTEMP5,0
00272F	1EA0	ADC SYSTEMP2,SYSTEMP5
002730	92A0 034F	STS PY1_H,SYSTEMP2
002732	DEA8	RCALL PSET_SSD1289
002733	90A0 0357	LDS SYSTEMP2,RX1
002735	E001	LDI SYSTEMP5,1
002736	0EA0	ADD SYSTEMP2,SYSTEMP5
002737	92A0 034A	STS PX1,SYSTEMP2
002739	90A0 0358	LDS SYSTEMP2,RX1_H
00273B	E000	LDI SYSTEMP5,0
00273C	1EA0	ADC SYSTEMP2,SYSTEMP5
00273D	92A0 034B	STS PX1_H,SYSTEMP2
00273F	90A0 035D	LDS SYSTEMP2,RY2
002741	E002	LDI SYSTEMP5,2
002742	1AA0	SUB SYSTEMP2,SYSTEMP5
002743	92A0 034E	STS PY1,SYSTEMP2
002745	90A0 035E	LDS SYSTEMP2,RY2_H
002747	E000	LDI SYSTEMP5,0
002748	0AA0	SBC SYSTEMP2,SYSTEMP5
002749	92A0 034F	STS PY1_H,SYSTEMP2
00274B	DE8F	RCALL PSET_SSD1289
00274C	90A0 0357	LDS SYSTEMP2,RX1
00274E	E002	LDI SYSTEMP5,2
00274F	0EA0	ADD SYSTEMP2,SYSTEMP5
002750	92A0 034A	STS PX1,SYSTEMP2
002752	90A0 0358	LDS SYSTEMP2,RX1_H
002754	E000	LDI SYSTEMP5,0
002755	1EA0	ADC SYSTEMP2,SYSTEMP5
002756	92A0 034B	STS PX1_H,SYSTEMP2
002758	90A0 035D	LDS SYSTEMP2,RY2
00275A	E001	LDI SYSTEMP5,1
00275B	1AA0	SUB SYSTEMP2,SYSTEMP5
00275C	92A0 034E	STS PY1,SYSTEMP2
00275E	90A0 035E	LDS SYSTEMP2,RY2_H
002760	E000	LDI SYSTEMP5,0
002761	0AA0	SBC SYSTEMP2,SYSTEMP5
002762	92A0 034F	STS PY1_H,SYSTEMP2
002764	DE76	RCALL PSET_SSD1289
002765	90A0 0359	LDS SYSTEMP2,RX2
002767	E002	LDI SYSTEMP5,2
002768	1AA0	SUB SYSTEMP2,SYSTEMP5
002769	92A0 034A	STS PX1,SYSTEMP2
00276B	90A0 035A	LDS SYSTEMP2,RX2_H
00276D	E000	LDI SYSTEMP5,0
00276E	0AA0	SBC SYSTEMP2,SYSTEMP5
00276F	92A0 034B	STS PX1_H,SYSTEMP2
002771	90A0 035D	LDS SYSTEMP2,RY2
002773	E001	LDI SYSTEMP5,1
002774	1AA0	SUB SYSTEMP2,SYSTEMP5
002775	92A0 034E	STS PY1,SYSTEMP2
002777	90A0 035E	LDS SYSTEMP2,RY2_H
002779	E000	LDI SYSTEMP5,0
00277A	0AA0	SBC SYSTEMP2,SYSTEMP5
00277B	92A0 034F	STS PY1_H,SYSTEMP2
00277D	DE5D	RCALL PSET_SSD1289
00277E	90A0 0359	LDS SYSTEMP2,RX2
002780	E001	LDI SYSTEMP5,1
002781	1AA0	SUB SYSTEMP2,SYSTEMP5
002782	92A0 034A	STS PX1,SYSTEMP2
002784	90A0 035A	LDS SYSTEMP2,RX2_H
002786	E000	LDI SYSTEMP5,0
002787	0AA0	SBC SYSTEMP2,SYSTEMP5
002788	92A0 034B	STS PX1_H,SYSTEMP2
00278A	90A0 035D	LDS SYSTEMP2,RY2
00278C	E002	LDI SYSTEMP5,2
00278D	1AA0	SUB SYSTEMP2,SYSTEMP5
00278E	92A0 034E	STS PY1,SYSTEMP2
002790	90A0 035E	LDS SYSTEMP2,RY2_H
002792	E000	LDI SYSTEMP5,0
002793	0AA0	SBC SYSTEMP2,SYSTEMP5
002794	92A0 034F	STS PY1_H,SYSTEMP2
002796	DE44	RCALL PSET_SSD1289
002797	90A0 0357	LDS SYSTEMP2,RX1
002799	E003	LDI SYSTEMP5,3
00279A	0EA0	ADD SYSTEMP2,SYSTEMP5
00279B	92A0 033A	STS LINEX1,SYSTEMP2
00279D	90A0 0358	LDS SYSTEMP2,RX1_H
00279F	E000	LDI SYSTEMP5,0
0027A0	1EA0	ADC SYSTEMP2,SYSTEMP5
0027A1	92A0 033B	STS LINEX1_H,SYSTEMP2
0027A3	9150 035B	LDS SYSVALUECOPY,RY1
0027A5	9350 033E	STS LINEY1,SYSVALUECOPY
0027A7	9150 035C	LDS SYSVALUECOPY,RY1_H
0027A9	9350 033F	STS LINEY1_H,SYSVALUECOPY
0027AB	90A0 0359	LDS SYSTEMP2,RX2
0027AD	E003	LDI SYSTEMP5,3
0027AE	1AA0	SUB SYSTEMP2,SYSTEMP5
0027AF	92A0 033C	STS LINEX2,SYSTEMP2
0027B1	90A0 035A	LDS SYSTEMP2,RX2_H
0027B3	E000	LDI SYSTEMP5,0
0027B4	0AA0	SBC SYSTEMP2,SYSTEMP5
0027B5	92A0 033D	STS LINEX2_H,SYSTEMP2
0027B7	9150 035B	LDS SYSVALUECOPY,RY1
0027B9	9350 0340	STS LINEY2,SYSVALUECOPY
0027BB	9150 035C	LDS SYSVALUECOPY,RY1_H
0027BD	9350 0341	STS LINEY2_H,SYSVALUECOPY
0027BF	9150 0304	LDS SYSVALUECOPY,COLOR
0027C1	9350 032A	STS LINECOLOUR,SYSVALUECOPY
0027C3	9150 0305	LDS SYSVALUECOPY,COLOR_H
0027C5	9350 032B	STS LINECOLOUR_H,SYSVALUECOPY
0027C7	DBD9	RCALL LINE
0027C8	90A0 0357	LDS SYSTEMP2,RX1
0027CA	E003	LDI SYSTEMP5,3
0027CB	0EA0	ADD SYSTEMP2,SYSTEMP5
0027CC	92A0 033A	STS LINEX1,SYSTEMP2
0027CE	90A0 0358	LDS SYSTEMP2,RX1_H
0027D0	E000	LDI SYSTEMP5,0
0027D1	1EA0	ADC SYSTEMP2,SYSTEMP5
0027D2	92A0 033B	STS LINEX1_H,SYSTEMP2
0027D4	9150 035D	LDS SYSVALUECOPY,RY2
0027D6	9350 033E	STS LINEY1,SYSVALUECOPY
0027D8	9150 035E	LDS SYSVALUECOPY,RY2_H
0027DA	9350 033F	STS LINEY1_H,SYSVALUECOPY
0027DC	90A0 0359	LDS SYSTEMP2,RX2
0027DE	E003	LDI SYSTEMP5,3
0027DF	1AA0	SUB SYSTEMP2,SYSTEMP5
0027E0	92A0 033C	STS LINEX2,SYSTEMP2
0027E2	90A0 035A	LDS SYSTEMP2,RX2_H
0027E4	E000	LDI SYSTEMP5,0
0027E5	0AA0	SBC SYSTEMP2,SYSTEMP5
0027E6	92A0 033D	STS LINEX2_H,SYSTEMP2
0027E8	9150 035D	LDS SYSVALUECOPY,RY2
0027EA	9350 0340	STS LINEY2,SYSVALUECOPY
0027EC	9150 035E	LDS SYSVALUECOPY,RY2_H
0027EE	9350 0341	STS LINEY2_H,SYSVALUECOPY
0027F0	9150 0304	LDS SYSVALUECOPY,COLOR
0027F2	9350 032A	STS LINECOLOUR,SYSVALUECOPY
0027F4	9150 0305	LDS SYSVALUECOPY,COLOR_H
0027F6	9350 032B	STS LINECOLOUR_H,SYSVALUECOPY
0027F8	DBA8	RCALL LINE
0027F9	9150 0357	LDS SYSVALUECOPY,RX1
0027FB	9350 033A	STS LINEX1,SYSVALUECOPY
0027FD	9150 0358	LDS SYSVALUECOPY,RX1_H
0027FF	9350 033B	STS LINEX1_H,SYSVALUECOPY
002801	90A0 035B	LDS SYSTEMP2,RY1
002803	E003	LDI SYSTEMP5,3
002804	0EA0	ADD SYSTEMP2,SYSTEMP5
002805	92A0 033E	STS LINEY1,SYSTEMP2
002807	90A0 035C	LDS SYSTEMP2,RY1_H
002809	E000	LDI SYSTEMP5,0
00280A	1EA0	ADC SYSTEMP2,SYSTEMP5
00280B	92A0 033F	STS LINEY1_H,SYSTEMP2
00280D	9150 0357	LDS SYSVALUECOPY,RX1
00280F	9350 033C	STS LINEX2,SYSVALUECOPY
002811	9150 0358	LDS SYSVALUECOPY,RX1_H
002813	9350 033D	STS LINEX2_H,SYSVALUECOPY
002815	90A0 035D	LDS SYSTEMP2,RY2
002817	E003	LDI SYSTEMP5,3
002818	1AA0	SUB SYSTEMP2,SYSTEMP5
002819	92A0 0340	STS LINEY2,SYSTEMP2
00281B	90A0 035E	LDS SYSTEMP2,RY2_H
00281D	E000	LDI SYSTEMP5,0
00281E	0AA0	SBC SYSTEMP2,SYSTEMP5
00281F	92A0 0341	STS LINEY2_H,SYSTEMP2
002821	9150 0304	LDS SYSVALUECOPY,COLOR
002823	9350 032A	STS LINECOLOUR,SYSVALUECOPY
002825	9150 0305	LDS SYSVALUECOPY,COLOR_H
002827	9350 032B	STS LINECOLOUR_H,SYSVALUECOPY
002829	DB77	RCALL LINE
00282A	9150 0359	LDS SYSVALUECOPY,RX2
00282C	9350 033A	STS LINEX1,SYSVALUECOPY
00282E	9150 035A	LDS SYSVALUECOPY,RX2_H
002830	9350 033B	STS LINEX1_H,SYSVALUECOPY
002832	90A0 035B	LDS SYSTEMP2,RY1
002834	E003	LDI SYSTEMP5,3
002835	0EA0	ADD SYSTEMP2,SYSTEMP5
002836	92A0 033E	STS LINEY1,SYSTEMP2
002838	90A0 035C	LDS SYSTEMP2,RY1_H
00283A	E000	LDI SYSTEMP5,0
00283B	1EA0	ADC SYSTEMP2,SYSTEMP5
00283C	92A0 033F	STS LINEY1_H,SYSTEMP2
00283E	9150 0359	LDS SYSVALUECOPY,RX2
002840	9350 033C	STS LINEX2,SYSVALUECOPY
002842	9150 035A	LDS SYSVALUECOPY,RX2_H
002844	9350 033D	STS LINEX2_H,SYSVALUECOPY
002846	90A0 035D	LDS SYSTEMP2,RY2
002848	E003	LDI SYSTEMP5,3
002849	1AA0	SUB SYSTEMP2,SYSTEMP5
00284A	92A0 0340	STS LINEY2,SYSTEMP2
00284C	90A0 035E	LDS SYSTEMP2,RY2_H
00284E	E000	LDI SYSTEMP5,0
00284F	0AA0	SBC SYSTEMP2,SYSTEMP5
002850	92A0 0341	STS LINEY2_H,SYSTEMP2
002852	9150 0304	LDS SYSVALUECOPY,COLOR
002854	9350 032A	STS LINECOLOUR,SYSVALUECOPY
002856	9150 0305	LDS SYSVALUECOPY,COLOR_H
002858	9350 032B	STS LINECOLOUR_H,SYSVALUECOPY
00285A	DB46	RCALL LINE
		ENDIF30
00285B	9508	RET


		SETBUS_SSD1289
00285C	9840	CBI PORTC,0
00285D	9050 030E	LDS SYSBITTEST,DATAVAL
00285F	FC50	SBRC SYSBITTEST,0
002860	9A40	SBI PORTC,0
002861	9841	CBI PORTC,1
002862	9050 030E	LDS SYSBITTEST,DATAVAL
002864	FC51	SBRC SYSBITTEST,1
002865	9A41	SBI PORTC,1
002866	9842	CBI PORTC,2
002867	9050 030E	LDS SYSBITTEST,DATAVAL
002869	FC52	SBRC SYSBITTEST,2
00286A	9A42	SBI PORTC,2
00286B	9843	CBI PORTC,3
00286C	9050 030E	LDS SYSBITTEST,DATAVAL
00286E	FC53	SBRC SYSBITTEST,3
00286F	9A43	SBI PORTC,3
002870	9844	CBI PORTC,4
002871	9050 030E	LDS SYSBITTEST,DATAVAL
002873	FC54	SBRC SYSBITTEST,4
002874	9A44	SBI PORTC,4
002875	9845	CBI PORTC,5
002876	9050 030E	LDS SYSBITTEST,DATAVAL
002878	FC55	SBRC SYSBITTEST,5
002879	9A45	SBI PORTC,5
00287A	9846	CBI PORTC,6
00287B	9050 030E	LDS SYSBITTEST,DATAVAL
00287D	FC56	SBRC SYSBITTEST,6
00287E	9A46	SBI PORTC,6
00287F	9847	CBI PORTC,7
002880	9050 030E	LDS SYSBITTEST,DATAVAL
002882	FC57	SBRC SYSBITTEST,7
002883	9A47	SBI PORTC,7
002884	9810	CBI PORTA,0
002885	9050 030F	LDS SYSBITTEST,DATAVAL_H
002887	FC50	SBRC SYSBITTEST,0
002888	9A10	SBI PORTA,0
002889	9811	CBI PORTA,1
00288A	9050 030F	LDS SYSBITTEST,DATAVAL_H
00288C	FC51	SBRC SYSBITTEST,1
00288D	9A11	SBI PORTA,1
00288E	9812	CBI PORTA,2
00288F	9050 030F	LDS SYSBITTEST,DATAVAL_H
002891	FC52	SBRC SYSBITTEST,2
002892	9A12	SBI PORTA,2
002893	9813	CBI PORTA,3
002894	9050 030F	LDS SYSBITTEST,DATAVAL_H
002896	FC53	SBRC SYSBITTEST,3
002897	9A13	SBI PORTA,3
002898	9814	CBI PORTA,4
002899	9050 030F	LDS SYSBITTEST,DATAVAL_H
00289B	FC54	SBRC SYSBITTEST,4
00289C	9A14	SBI PORTA,4
00289D	9815	CBI PORTA,5
00289E	9050 030F	LDS SYSBITTEST,DATAVAL_H
0028A0	FC55	SBRC SYSBITTEST,5
0028A1	9A15	SBI PORTA,5
0028A2	9816	CBI PORTA,6
0028A3	9050 030F	LDS SYSBITTEST,DATAVAL_H
0028A5	FC56	SBRC SYSBITTEST,6
0028A6	9A16	SBI PORTA,6
0028A7	9817	CBI PORTA,7
0028A8	9050 030F	LDS SYSBITTEST,DATAVAL_H
0028AA	FC57	SBRC SYSBITTEST,7
0028AB	9A17	SBI PORTA,7
0028AC	9508	RET


		SET_ADDRESS_SSD1289
0028AD	9160 0342	LDS SYSBYTETEMPA,ORIENTATION_SSD1289
0028AF	E0C1	LDI SYSBYTETEMPB,1
0028B0	D19F	RCALL SYSCOMPEQUAL
0028B1	2CE0	MOV SYSTEMP3,SYSBYTETEMPX
0028B2	9160 0342	LDS SYSBYTETEMPA,ORIENTATION_SSD1289
0028B4	E0C3	LDI SYSBYTETEMPB,3
0028B5	D19A	RCALL SYSCOMPEQUAL
0028B6	2C60	MOV SYSTEMP1,SYSBYTETEMPX
0028B7	286E	OR SYSTEMP1,SYSTEMP3
0028B8	2CF6	MOV SYSTEMP4,SYSTEMP1
0028B9	FEF0	SBRS SYSTEMP4,0
0028BA	C04F	RJMP ENDIF87
0028BB	9160 034A	LDS SYSCALCTEMPA,PX1
0028BD	9170 034B	LDS SYSCALCTEMPA_H,PX1_H
0028BF	91C0 034E	LDS SYSCALCTEMPB,PY1
0028C1	91D0 034F	LDS SYSCALCTEMPB_H,PY1_H
0028C3	D185	RCALL SWAP149
0028C4	9360 034A	STS PX1,SYSCALCTEMPA
0028C6	9370 034B	STS PX1_H,SYSCALCTEMPA_H
0028C8	93C0 034E	STS PY1,SYSCALCTEMPB
0028CA	93D0 034F	STS PY1_H,SYSCALCTEMPB_H
0028CC	9160 034C	LDS SYSCALCTEMPA,PX2
0028CE	9170 034D	LDS SYSCALCTEMPA_H,PX2_H
0028D0	91C0 0350	LDS SYSCALCTEMPB,PY2
0028D2	91D0 0351	LDS SYSCALCTEMPB_H,PY2_H
0028D4	D174	RCALL SWAP149
0028D5	9360 034C	STS PX2,SYSCALCTEMPA
0028D7	9370 034D	STS PX2_H,SYSCALCTEMPA_H
0028D9	93C0 0350	STS PY2,SYSCALCTEMPB
0028DB	93D0 0351	STS PY2_H,SYSCALCTEMPB_H
0028DD	90E0 031B	LDS SYSTEMP3,GLCDDEVICEHEIGHT
0028DF	90F0 034A	LDS SYSTEMP4,PX1
0028E1	18EF	SUB SYSTEMP3,SYSTEMP4
0028E2	92E0 034A	STS PX1,SYSTEMP3
0028E4	90E0 031C	LDS SYSTEMP3,GLCDDEVICEHEIGHT_H
0028E6	90F0 034B	LDS SYSTEMP4,PX1_H
0028E8	08EF	SBC SYSTEMP3,SYSTEMP4
0028E9	92E0 034B	STS PX1_H,SYSTEMP3
0028EB	90E0 031B	LDS SYSTEMP3,GLCDDEVICEHEIGHT
0028ED	90F0 034C	LDS SYSTEMP4,PX2
0028EF	18EF	SUB SYSTEMP3,SYSTEMP4
0028F0	92E0 034C	STS PX2,SYSTEMP3
0028F2	90E0 031C	LDS SYSTEMP3,GLCDDEVICEHEIGHT_H
0028F4	90F0 034D	LDS SYSTEMP4,PX2_H
0028F6	08EF	SBC SYSTEMP3,SYSTEMP4
0028F7	92E0 034D	STS PX2_H,SYSTEMP3
0028F9	9160 034A	LDS SYSCALCTEMPA,PX1
0028FB	9170 034B	LDS SYSCALCTEMPA_H,PX1_H
0028FD	91C0 034C	LDS SYSCALCTEMPB,PX2
0028FF	91D0 034D	LDS SYSCALCTEMPB_H,PX2_H
002901	D147	RCALL SWAP149
002902	9360 034A	STS PX1,SYSCALCTEMPA
002904	9370 034B	STS PX1_H,SYSCALCTEMPA_H
002906	93C0 034C	STS PX2,SYSCALCTEMPB
002908	93D0 034D	STS PX2_H,SYSCALCTEMPB_H
		ENDIF87
00290A	9150 034C	LDS SYSVALUECOPY,PX2
00290C	9350 0328	STS GLCDTEMPXY,SYSVALUECOPY
00290E	E058	LDI SYSVALUECOPY,8
00290F	9350 0381	STS SYSREPEATTEMP4,SYSVALUECOPY
		SYSREPEATLOOP4
002911	9150 034C	LDS SYSVALUECOPY,PX2
002913	1F55	ROL SYSVALUECOPY
002914	9350 034C	STS PX2,SYSVALUECOPY
002916	9150 034D	LDS SYSVALUECOPY,PX2_H
002918	1F55	ROL SYSVALUECOPY
002919	9350 034D	STS PX2_H,SYSVALUECOPY
00291B	90E0 0381	LDS SYSTEMP3,SYSREPEATTEMP4
00291D	94EA	DEC SYSTEMP3
00291E	92E0 0381	STS SYSREPEATTEMP4,SYSTEMP3
002920	F781	BRNE SYSREPEATLOOP4
		SYSREPEATLOOPEND4
002921	90E0 034C	LDS SYSTEMP3,PX2
002923	90F0 034A	LDS SYSTEMP4,PX1
002925	0CEF	ADD SYSTEMP3,SYSTEMP4
002926	92E0 034C	STS PX2,SYSTEMP3
002928	90E0 034D	LDS SYSTEMP3,PX2_H
00292A	90F0 034B	LDS SYSTEMP4,PX1_H
00292C	1CEF	ADC SYSTEMP3,SYSTEMP4
00292D	92E0 034D	STS PX2_H,SYSTEMP3
00292F	E454	LDI SYSVALUECOPY,68
002930	9350 039E	STS WCOMMAND,SYSVALUECOPY
002932	E050	LDI SYSVALUECOPY,0
002933	9350 039F	STS WCOMMAND_H,SYSVALUECOPY
002935	9150 034C	LDS SYSVALUECOPY,PX2
002937	9350 03A0	STS WDATA,SYSVALUECOPY
002939	9150 034D	LDS SYSVALUECOPY,PX2_H
00293B	9350 03A1	STS WDATA_H,SYSVALUECOPY
00293D	D401	RCALL WRITE_COMMAND_DATA_SSD1289
00293E	E455	LDI SYSVALUECOPY,69
00293F	9350 039E	STS WCOMMAND,SYSVALUECOPY
002941	E050	LDI SYSVALUECOPY,0
002942	9350 039F	STS WCOMMAND_H,SYSVALUECOPY
002944	9150 034E	LDS SYSVALUECOPY,PY1
002946	9350 03A0	STS WDATA,SYSVALUECOPY
002948	9150 034F	LDS SYSVALUECOPY,PY1_H
00294A	9350 03A1	STS WDATA_H,SYSVALUECOPY
00294C	D3F2	RCALL WRITE_COMMAND_DATA_SSD1289
00294D	E456	LDI SYSVALUECOPY,70
00294E	9350 039E	STS WCOMMAND,SYSVALUECOPY
002950	E050	LDI SYSVALUECOPY,0
002951	9350 039F	STS WCOMMAND_H,SYSVALUECOPY
002953	9150 0350	LDS SYSVALUECOPY,PY2
002955	9350 03A0	STS WDATA,SYSVALUECOPY
002957	9150 0351	LDS SYSVALUECOPY,PY2_H
002959	9350 03A1	STS WDATA_H,SYSVALUECOPY
00295B	D3E3	RCALL WRITE_COMMAND_DATA_SSD1289
00295C	E45E	LDI SYSVALUECOPY,78
00295D	9350 039E	STS WCOMMAND,SYSVALUECOPY
00295F	E050	LDI SYSVALUECOPY,0
002960	9350 039F	STS WCOMMAND_H,SYSVALUECOPY
002962	9150 034A	LDS SYSVALUECOPY,PX1
002964	9350 03A0	STS WDATA,SYSVALUECOPY
002966	9150 034B	LDS SYSVALUECOPY,PX1_H
002968	9350 03A1	STS WDATA_H,SYSVALUECOPY
00296A	D3D4	RCALL WRITE_COMMAND_DATA_SSD1289
00296B	E45F	LDI SYSVALUECOPY,79
00296C	9350 039E	STS WCOMMAND,SYSVALUECOPY
00296E	E050	LDI SYSVALUECOPY,0
00296F	9350 039F	STS WCOMMAND_H,SYSVALUECOPY
002971	9150 034E	LDS SYSVALUECOPY,PY1
002973	9350 03A0	STS WDATA,SYSVALUECOPY
002975	9150 034F	LDS SYSVALUECOPY,PY1_H
002977	9350 03A1	STS WDATA_H,SYSVALUECOPY
002979	D3C5	RCALL WRITE_COMMAND_DATA_SSD1289
00297A	E252	LDI SYSVALUECOPY,34
00297B	9350 039E	STS WCOMMAND,SYSVALUECOPY
00297D	E050	LDI SYSVALUECOPY,0
00297E	9350 039F	STS WCOMMAND_H,SYSVALUECOPY
002980	D3C0	RCALL WRITE_COMMAND_SSD1289
002981	9150 0328	LDS SYSVALUECOPY,GLCDTEMPXY
002983	9350 034C	STS PX2,SYSVALUECOPY
002985	E050	LDI SYSVALUECOPY,0
002986	9350 034D	STS PX2_H,SYSVALUECOPY
002988	9508	RET


		FN_STR
002989	E050	LDI SYSVALUECOPY,0
00298A	9350 036B	STS SYSCHARCOUNT,SYSVALUECOPY
00298C	9160 0386	LDS SYSWORDTEMPA,SYSVALTEMP
00298E	9170 0387	LDS SYSWORDTEMPA_H,SYSVALTEMP_H
002990	E1C0	LDI SYSWORDTEMPB,16
002991	E2D7	LDI SYSWORDTEMPB_H,39
002992	D0DA	RCALL SYSCOMPLESSTHAN16
002993	9400	COM SYSBYTETEMPX
002994	FE00	SBRS SYSBYTETEMPX,0
002995	C01F	RJMP ENDIF44
002996	9160 0386	LDS SYSWORDTEMPA,SYSVALTEMP
002998	9170 0387	LDS SYSWORDTEMPA_H,SYSVALTEMP_H
00299A	E1C0	LDI SYSWORDTEMPB,16
00299B	E2D7	LDI SYSWORDTEMPB_H,39
00299C	D120	RCALL SYSDIVSUB16
00299D	9360 0382	STS SYSSTRDATA,SYSWORDTEMPA
00299F	9200 0386	STS SYSVALTEMP,SYSCALCTEMPX
0029A1	9210 0387	STS SYSVALTEMP_H,SYSCALCTEMPX_H
0029A3	90E0 036B	LDS SYSTEMP3,SYSCHARCOUNT
0029A5	94E3	INC SYSTEMP3
0029A6	92E0 036B	STS SYSCHARCOUNT,SYSTEMP3
0029A8	EE02	LDI SYSTEMP5,LOW(STR)
0029A9	0EE0	ADD SYSTEMP3,SYSTEMP5
0029AA	2DAE	MOV SYSSTRINGA,SYSTEMP3
0029AB	E000	LDI SYSTEMP5,0
0029AC	E012	LDI SYSTEMP6,HIGH(STR)
0029AD	1F01	ADC SYSTEMP5,SYSTEMP6
0029AE	2FB0	MOV SYSSTRINGA_H,SYSTEMP5
0029AF	90E0 0382	LDS SYSTEMP3,SYSSTRDATA
0029B1	E300	LDI SYSTEMP5,48
0029B2	0EE0	ADD SYSTEMP3,SYSTEMP5
0029B3	92EC	ST X,SYSTEMP3
0029B4	C00A	RJMP SYSVALTHOUSANDS
		ENDIF44
0029B5	9160 0386	LDS SYSWORDTEMPA,SYSVALTEMP
0029B7	9170 0387	LDS SYSWORDTEMPA_H,SYSVALTEMP_H
0029B9	EEC8	LDI SYSWORDTEMPB,232
0029BA	E0D3	LDI SYSWORDTEMPB_H,3
0029BB	D0B1	RCALL SYSCOMPLESSTHAN16
0029BC	9400	COM SYSBYTETEMPX
0029BD	FE00	SBRS SYSBYTETEMPX,0
0029BE	C01F	RJMP ENDIF45
		SYSVALTHOUSANDS
0029BF	9160 0386	LDS SYSWORDTEMPA,SYSVALTEMP
0029C1	9170 0387	LDS SYSWORDTEMPA_H,SYSVALTEMP_H
0029C3	EEC8	LDI SYSWORDTEMPB,232
0029C4	E0D3	LDI SYSWORDTEMPB_H,3
0029C5	D0F7	RCALL SYSDIVSUB16
0029C6	9360 0382	STS SYSSTRDATA,SYSWORDTEMPA
0029C8	9200 0386	STS SYSVALTEMP,SYSCALCTEMPX
0029CA	9210 0387	STS SYSVALTEMP_H,SYSCALCTEMPX_H
0029CC	90E0 036B	LDS SYSTEMP3,SYSCHARCOUNT
0029CE	94E3	INC SYSTEMP3
0029CF	92E0 036B	STS SYSCHARCOUNT,SYSTEMP3
0029D1	EE02	LDI SYSTEMP5,LOW(STR)
0029D2	0EE0	ADD SYSTEMP3,SYSTEMP5
0029D3	2DAE	MOV SYSSTRINGA,SYSTEMP3
0029D4	E000	LDI SYSTEMP5,0
0029D5	E012	LDI SYSTEMP6,HIGH(STR)
0029D6	1F01	ADC SYSTEMP5,SYSTEMP6
0029D7	2FB0	MOV SYSSTRINGA_H,SYSTEMP5
0029D8	90E0 0382	LDS SYSTEMP3,SYSSTRDATA
0029DA	E300	LDI SYSTEMP5,48
0029DB	0EE0	ADD SYSTEMP3,SYSTEMP5
0029DC	92EC	ST X,SYSTEMP3
0029DD	C00A	RJMP SYSVALHUNDREDS
		ENDIF45
0029DE	9160 0386	LDS SYSWORDTEMPA,SYSVALTEMP
0029E0	9170 0387	LDS SYSWORDTEMPA_H,SYSVALTEMP_H
0029E2	E6C4	LDI SYSWORDTEMPB,100
0029E3	E0D0	LDI SYSWORDTEMPB_H,0
0029E4	D088	RCALL SYSCOMPLESSTHAN16
0029E5	9400	COM SYSBYTETEMPX
0029E6	FE00	SBRS SYSBYTETEMPX,0
0029E7	C01F	RJMP ENDIF46
		SYSVALHUNDREDS
0029E8	9160 0386	LDS SYSWORDTEMPA,SYSVALTEMP
0029EA	9170 0387	LDS SYSWORDTEMPA_H,SYSVALTEMP_H
0029EC	E6C4	LDI SYSWORDTEMPB,100
0029ED	E0D0	LDI SYSWORDTEMPB_H,0
0029EE	D0CE	RCALL SYSDIVSUB16
0029EF	9360 0382	STS SYSSTRDATA,SYSWORDTEMPA
0029F1	9200 0386	STS SYSVALTEMP,SYSCALCTEMPX
0029F3	9210 0387	STS SYSVALTEMP_H,SYSCALCTEMPX_H
0029F5	90E0 036B	LDS SYSTEMP3,SYSCHARCOUNT
0029F7	94E3	INC SYSTEMP3
0029F8	92E0 036B	STS SYSCHARCOUNT,SYSTEMP3
0029FA	EE02	LDI SYSTEMP5,LOW(STR)
0029FB	0EE0	ADD SYSTEMP3,SYSTEMP5
0029FC	2DAE	MOV SYSSTRINGA,SYSTEMP3
0029FD	E000	LDI SYSTEMP5,0
0029FE	E012	LDI SYSTEMP6,HIGH(STR)
0029FF	1F01	ADC SYSTEMP5,SYSTEMP6
002A00	2FB0	MOV SYSSTRINGA_H,SYSTEMP5
002A01	90E0 0382	LDS SYSTEMP3,SYSSTRDATA
002A03	E300	LDI SYSTEMP5,48
002A04	0EE0	ADD SYSTEMP3,SYSTEMP5
002A05	92EC	ST X,SYSTEMP3
002A06	C00A	RJMP SYSVALTENS
		ENDIF46
002A07	9160 0386	LDS SYSWORDTEMPA,SYSVALTEMP
002A09	9170 0387	LDS SYSWORDTEMPA_H,SYSVALTEMP_H
002A0B	E0CA	LDI SYSWORDTEMPB,10
002A0C	E0D0	LDI SYSWORDTEMPB_H,0
002A0D	D05F	RCALL SYSCOMPLESSTHAN16
002A0E	9400	COM SYSBYTETEMPX
002A0F	FE00	SBRS SYSBYTETEMPX,0
002A10	C01E	RJMP ENDIF47
		SYSVALTENS
002A11	9160 0386	LDS SYSWORDTEMPA,SYSVALTEMP
002A13	9170 0387	LDS SYSWORDTEMPA_H,SYSVALTEMP_H
002A15	E0CA	LDI SYSWORDTEMPB,10
002A16	E0D0	LDI SYSWORDTEMPB_H,0
002A17	D0A5	RCALL SYSDIVSUB16
002A18	9360 0382	STS SYSSTRDATA,SYSWORDTEMPA
002A1A	9200 0386	STS SYSVALTEMP,SYSCALCTEMPX
002A1C	9210 0387	STS SYSVALTEMP_H,SYSCALCTEMPX_H
002A1E	90E0 036B	LDS SYSTEMP3,SYSCHARCOUNT
002A20	94E3	INC SYSTEMP3
002A21	92E0 036B	STS SYSCHARCOUNT,SYSTEMP3
002A23	EE02	LDI SYSTEMP5,LOW(STR)
002A24	0EE0	ADD SYSTEMP3,SYSTEMP5
002A25	2DAE	MOV SYSSTRINGA,SYSTEMP3
002A26	E000	LDI SYSTEMP5,0
002A27	E012	LDI SYSTEMP6,HIGH(STR)
002A28	1F01	ADC SYSTEMP5,SYSTEMP6
002A29	2FB0	MOV SYSSTRINGA_H,SYSTEMP5
002A2A	90E0 0382	LDS SYSTEMP3,SYSSTRDATA
002A2C	E300	LDI SYSTEMP5,48
002A2D	0EE0	ADD SYSTEMP3,SYSTEMP5
002A2E	92EC	ST X,SYSTEMP3
		ENDIF47
002A2F	90E0 036B	LDS SYSTEMP3,SYSCHARCOUNT
002A31	94E3	INC SYSTEMP3
002A32	92E0 036B	STS SYSCHARCOUNT,SYSTEMP3
002A34	EE02	LDI SYSTEMP5,LOW(STR)
002A35	0EE0	ADD SYSTEMP3,SYSTEMP5
002A36	2DAE	MOV SYSSTRINGA,SYSTEMP3
002A37	E000	LDI SYSTEMP5,0
002A38	E012	LDI SYSTEMP6,HIGH(STR)
002A39	1F01	ADC SYSTEMP5,SYSTEMP6
002A3A	2FB0	MOV SYSSTRINGA_H,SYSTEMP5
002A3B	90E0 0386	LDS SYSTEMP3,SYSVALTEMP
002A3D	E300	LDI SYSTEMP5,48
002A3E	0EE0	ADD SYSTEMP3,SYSTEMP5
002A3F	92EC	ST X,SYSTEMP3
002A40	9200 0386	STS SYSVALTEMP,SYSCALCTEMPX
002A42	9210 0387	STS SYSVALTEMP_H,SYSCALCTEMPX_H
002A44	9150 036B	LDS SYSVALUECOPY,SYSCHARCOUNT
002A46	9350 02E2	STS SYSSTR_0,SYSVALUECOPY
002A48	9508	RET


		SWAP149
002A49	2E06	MOV SYSCALCTEMPX,SYSCALCTEMPA
002A4A	2E17	MOV SYSCALCTEMPX_H,SYSCALCTEMPA_H
002A4B	2F6C	MOV SYSCALCTEMPA,SYSCALCTEMPB
002A4C	2F7D	MOV SYSCALCTEMPA_H,SYSCALCTEMPB_H
002A4D	2DC0	MOV SYSCALCTEMPB,SYSCALCTEMPX
002A4E	2DD1	MOV SYSCALCTEMPB_H,SYSCALCTEMPX_H
002A4F	9508	RET


		SYSCOMPEQUAL
002A50	2400	CLR SYSBYTETEMPX
002A51	136C	CPSE SYSBYTETEMPA, SYSBYTETEMPB
002A52	9508	RET
002A53	9400	COM SYSBYTETEMPX
002A54	9508	RET


		SYSCOMPEQUAL16
002A55	2400	CLR SYSBYTETEMPX
002A56	176C	CP SYSWORDTEMPA, SYSWORDTEMPB
002A57	F419	BRNE SCE16FALSE
002A58	177D	CP SYSWORDTEMPA_H, SYSWORDTEMPB_H
002A59	F409	BRNE SCE16FALSE
002A5A	9400	COM SYSBYTETEMPX
		SCE16FALSE
002A5B	9508	RET


		SYSCOMPEQUAL32
002A5C	2400	CLR SYSBYTETEMPX
002A5D	176C	CP SYSLONGTEMPA, SYSLONGTEMPB
002A5E	F439	BRNE SCE32FALSE
002A5F	177D	CP SYSLONGTEMPA_H, SYSLONGTEMPB_H
002A60	F429	BRNE SCE32FALSE
002A61	178E	CP SYSLONGTEMPA_U, SYSLONGTEMPB_U
002A62	F419	BRNE SCE32FALSE
002A63	179F	CP SYSLONGTEMPA_E, SYSLONGTEMPB_E
002A64	F409	BRNE SCE32FALSE
002A65	9400	COM SYSBYTETEMPX
		SCE32FALSE
002A66	9508	RET


		SYSCOMPLESSTHAN
002A67	2400	CLR SYSBYTETEMPX
002A68	176C	CP SYSBYTETEMPA,SYSBYTETEMPB
002A69	F008	BRLO SCLTTRUE
002A6A	9508	RET
		SCLTTRUE
002A6B	9400	COM SYSBYTETEMPX
002A6C	9508	RET


		SYSCOMPLESSTHAN16
002A6D	2400	CLR SYSBYTETEMPX
002A6E	17D7	CP SYSWORDTEMPB_H,SYSWORDTEMPA_H
002A6F	F030	BRLO SCLT16FALSE
002A70	177D	CP SYSWORDTEMPA_H,SYSWORDTEMPB_H
002A71	F018	BRLO SCLT16TRUE
002A72	176C	CP SYSWORDTEMPA,SYSWORDTEMPB
002A73	F008	BRLO SCLT16TRUE
002A74	9508	RET
		SCLT16TRUE
002A75	9400	COM SYSBYTETEMPX
		SCLT16FALSE
002A76	9508	RET


		SYSCOMPLESSTHAN32
002A77	2400	CLR SYSBYTETEMPX
002A78	17F9	CP SYSLONGTEMPB_E,SYSLONGTEMPA_E
002A79	F058	BRLO SCLT32FALSE
002A7A	F449	BRNE SCLT32TRUE
002A7B	17E8	CP SYSLONGTEMPB_U,SYSLONGTEMPA_U
002A7C	F040	BRLO SCLT32FALSE
002A7D	F431	BRNE SCLT32TRUE
002A7E	17D7	CP SYSLONGTEMPB_H,SYSLONGTEMPA_H
002A7F	F028	BRLO SCLT32FALSE
002A80	F419	BRNE SCLT32TRUE
002A81	176C	CP SYSLONGTEMPA,SYSLONGTEMPB
002A82	F008	BRLO SCLT32TRUE
002A83	9508	RET
		SCLT32TRUE
002A84	9400	COM SYSBYTETEMPX
		SCLT32FALSE
002A85	9508	RET


		SYSCOMPLESSTHANINT
002A86	E050	LDI SYSVALUECOPY,0
002A87	2E05	MOV SYSBYTETEMPX,SYSVALUECOPY
002A88	FF77	SBRS SYSINTEGERTEMPA_H,7
002A89	C01B	RJMP ELSE84_1
002A8A	FDD7	SBRC SYSINTEGERTEMPB_H,7
002A8B	C004	RJMP ENDIF85
002A8C	2CE0	MOV SYSTEMP3,SYSBYTETEMPX
002A8D	94E0	COM SYSTEMP3
002A8E	2C0E	MOV SYSBYTETEMPX,SYSTEMP3
002A8F	9508	RET
		ENDIF85
002A90	2E66	MOV SYSTEMP1,SYSINTEGERTEMPA
002A91	2E77	MOV SYSTEMP1_H,SYSINTEGERTEMPA_H
002A92	9460	COM SYSTEMP1
002A93	9470	COM SYSTEMP1_H
002A94	9463	INC SYSTEMP1
002A95	F409	BRNE PC + 2
002A96	9473	INC SYSTEMP1_H
002A97	2D86	MOV SYSDIVMULTA,SYSTEMP1
002A98	2D97	MOV SYSDIVMULTA_H,SYSTEMP1_H
002A99	2E6C	MOV SYSTEMP1,SYSINTEGERTEMPB
002A9A	2E7D	MOV SYSTEMP1_H,SYSINTEGERTEMPB_H
002A9B	9460	COM SYSTEMP1
002A9C	9470	COM SYSTEMP1_H
002A9D	9463	INC SYSTEMP1
002A9E	F409	BRNE PC + 2
002A9F	9473	INC SYSTEMP1_H
002AA0	2D66	MOV SYSINTEGERTEMPA,SYSTEMP1
002AA1	2D77	MOV SYSINTEGERTEMPA_H,SYSTEMP1_H
002AA2	2FC8	MOV SYSINTEGERTEMPB,SYSDIVMULTA
002AA3	2FD9	MOV SYSINTEGERTEMPB_H,SYSDIVMULTA_H
002AA4	C002	RJMP ENDIF84
		ELSE84_1
002AA5	FDD7	SBRC SYSINTEGERTEMPB_H,7
002AA6	9508	RET
		ENDIF84
002AA7	17D7	CP SYSINTEGERTEMPB_H,SYSINTEGERTEMPA_H
002AA8	F030	BRLO SCLTINTFALSE
002AA9	177D	CP SYSINTEGERTEMPA_H,SYSINTEGERTEMPB_H
002AAA	F018	BRLO SCLTINTTRUE
002AAB	176C	CP SYSINTEGERTEMPA,SYSINTEGERTEMPB
002AAC	F008	BRLO SCLTINTTRUE
002AAD	9508	RET
		SCLTINTTRUE
002AAE	9400	COM SYSBYTETEMPX
		SCLTINTFALSE
002AAF	9508	RET


		SYSCOPYSTRING
002AB0	916D	LD SYSCALCTEMPA, X+
002AB1	9369	ST Y+, SYSCALCTEMPA
002AB2	C002	RJMP SYSCOPYSTRINGCHECK
		SYSCOPYSTRINGPART
002AB3	916D	LD SYSCALCTEMPA, X+
002AB4	0F96	ADD SYSSTRINGLENGTH, SYSCALCTEMPA
		SYSCOPYSTRINGCHECK
002AB5	3060	CPI SYSCALCTEMPA,0
002AB6	F409	BRNE SYSSTRINGCOPY
002AB7	9508	RET
		SYSSTRINGCOPY
002AB8	91ED	LD SYSREADA, X+
002AB9	93E9	ST Y+, SYSREADA
002ABA	956A	DEC SYSCALCTEMPA
002ABB	F7E1	BRNE SYSSTRINGCOPY
002ABC	9508	RET


		SYSDIVSUB16
002ABD	2F86	MOV SYSDIVMULTA,SYSWORDTEMPA
002ABE	2F97	MOV SYSDIVMULTA_H,SYSWORDTEMPA_H
002ABF	2FEC	MOV SYSDIVMULTB,SYSWORDTEMPB
002AC0	2FFD	MOV SYSDIVMULTB_H,SYSWORDTEMPB_H
002AC1	E050	LDI SYSVALUECOPY,0
002AC2	2E25	MOV SYSDIVMULTX,SYSVALUECOPY
002AC3	E050	LDI SYSVALUECOPY,0
002AC4	2E35	MOV SYSDIVMULTX_H,SYSVALUECOPY
002AC5	2F6E	MOV SYSWORDTEMPA,SYSDIVMULTB
002AC6	2F7F	MOV SYSWORDTEMPA_H,SYSDIVMULTB_H
002AC7	E0C0	LDI SYSWORDTEMPB,0
002AC8	E0D0	LDI SYSWORDTEMPB_H,0
002AC9	DF8B	RCALL SYSCOMPEQUAL16
002ACA	FE00	SBRS SYSBYTETEMPX,0
002ACB	C003	RJMP ENDIF37
002ACC	E060	LDI SYSWORDTEMPA,0
002ACD	E070	LDI SYSWORDTEMPA_H,0
002ACE	9508	RET
		ENDIF37
002ACF	E150	LDI SYSVALUECOPY,16
002AD0	2E55	MOV SYSDIVLOOP,SYSVALUECOPY
		SYSDIV16START
002AD1	9488	CLC
002AD2	1F88	ROL SYSDIVMULTA
002AD3	1F99	ROL SYSDIVMULTA_H
002AD4	1C22	ROL SYSDIVMULTX
002AD5	1C33	ROL SYSDIVMULTX_H
002AD6	2CE2	MOV SYSTEMP3,SYSDIVMULTX
002AD7	1AEE	SUB SYSTEMP3,SYSDIVMULTB
002AD8	2C2E	MOV SYSDIVMULTX,SYSTEMP3
002AD9	2CE3	MOV SYSTEMP3,SYSDIVMULTX_H
002ADA	0AEF	SBC SYSTEMP3,SYSDIVMULTB_H
002ADB	2C3E	MOV SYSDIVMULTX_H,SYSTEMP3
002ADC	6081	SBR  SYSDIVMULTA,1<<0
002ADD	F438	BRBC C,ENDIF38
002ADE	7F8E	CBR  SYSDIVMULTA,1<<0
002ADF	2CE2	MOV SYSTEMP3,SYSDIVMULTX
002AE0	0EEE	ADD SYSTEMP3,SYSDIVMULTB
002AE1	2C2E	MOV SYSDIVMULTX,SYSTEMP3
002AE2	2CE3	MOV SYSTEMP3,SYSDIVMULTX_H
002AE3	1EEF	ADC SYSTEMP3,SYSDIVMULTB_H
002AE4	2C3E	MOV SYSDIVMULTX_H,SYSTEMP3
		ENDIF38
002AE5	945A	DEC SYSDIVLOOP
002AE6	F751	BRNE SYSDIV16START
002AE7	2F68	MOV SYSWORDTEMPA,SYSDIVMULTA
002AE8	2F79	MOV SYSWORDTEMPA_H,SYSDIVMULTA_H
002AE9	2C02	MOV SYSWORDTEMPX,SYSDIVMULTX
002AEA	2C13	MOV SYSWORDTEMPX_H,SYSDIVMULTX_H
002AEB	9508	RET


		SYSDIVSUB32
002AEC	9360 036F	STS SYSLONGDIVMULTA,SYSLONGTEMPA
002AEE	9370 0370	STS SYSLONGDIVMULTA_H,SYSLONGTEMPA_H
002AF0	9380 0371	STS SYSLONGDIVMULTA_U,SYSLONGTEMPA_U
002AF2	9390 0372	STS SYSLONGDIVMULTA_E,SYSLONGTEMPA_E
002AF4	93C0 0373	STS SYSLONGDIVMULTB,SYSLONGTEMPB
002AF6	93D0 0374	STS SYSLONGDIVMULTB_H,SYSLONGTEMPB_H
002AF8	93E0 0375	STS SYSLONGDIVMULTB_U,SYSLONGTEMPB_U
002AFA	93F0 0376	STS SYSLONGDIVMULTB_E,SYSLONGTEMPB_E
002AFC	E050	LDI SYSVALUECOPY,0
002AFD	9350 0377	STS SYSLONGDIVMULTX,SYSVALUECOPY
002AFF	9350 0378	STS SYSLONGDIVMULTX_H,SYSVALUECOPY
002B01	9350 0379	STS SYSLONGDIVMULTX_U,SYSVALUECOPY
002B03	9350 037A	STS SYSLONGDIVMULTX_E,SYSVALUECOPY
002B05	9160 0373	LDS SYSLONGTEMPA,SYSLONGDIVMULTB
002B07	9170 0374	LDS SYSLONGTEMPA_H,SYSLONGDIVMULTB_H
002B09	9180 0375	LDS SYSLONGTEMPA_U,SYSLONGDIVMULTB_U
002B0B	9190 0376	LDS SYSLONGTEMPA_E,SYSLONGDIVMULTB_E
002B0D	E0C0	LDI SYSLONGTEMPB,0
002B0E	E0D0	LDI SYSLONGTEMPB_H,0
002B0F	E0E0	LDI SYSLONGTEMPB_U,0
002B10	E0F0	LDI SYSLONGTEMPB_E,0
002B11	DF4A	RCALL SYSCOMPEQUAL32
002B12	FE00	SBRS SYSBYTETEMPX,0
002B13	C005	RJMP ENDIF42
002B14	E060	LDI SYSLONGTEMPA,0
002B15	E070	LDI SYSLONGTEMPA_H,0
002B16	E080	LDI SYSLONGTEMPA_U,0
002B17	E090	LDI SYSLONGTEMPA_E,0
002B18	9508	RET
		ENDIF42
002B19	E250	LDI SYSVALUECOPY,32
002B1A	2E55	MOV SYSDIVLOOP,SYSVALUECOPY
		SYSDIV32START
002B1B	9488	CLC
002B1C	9150 036F	LDS SYSVALUECOPY,SYSLONGDIVMULTA
002B1E	1F55	ROL SYSVALUECOPY
002B1F	9350 036F	STS SYSLONGDIVMULTA,SYSVALUECOPY
002B21	9150 0370	LDS SYSVALUECOPY,SYSLONGDIVMULTA_H
002B23	1F55	ROL SYSVALUECOPY
002B24	9350 0370	STS SYSLONGDIVMULTA_H,SYSVALUECOPY
002B26	9150 0371	LDS SYSVALUECOPY,SYSLONGDIVMULTA_U
002B28	1F55	ROL SYSVALUECOPY
002B29	9350 0371	STS SYSLONGDIVMULTA_U,SYSVALUECOPY
002B2B	9150 0372	LDS SYSVALUECOPY,SYSLONGDIVMULTA_E
002B2D	1F55	ROL SYSVALUECOPY
002B2E	9350 0372	STS SYSLONGDIVMULTA_E,SYSVALUECOPY
002B30	9150 0377	LDS SYSVALUECOPY,SYSLONGDIVMULTX
002B32	1F55	ROL SYSVALUECOPY
002B33	9350 0377	STS SYSLONGDIVMULTX,SYSVALUECOPY
002B35	9150 0378	LDS SYSVALUECOPY,SYSLONGDIVMULTX_H
002B37	1F55	ROL SYSVALUECOPY
002B38	9350 0378	STS SYSLONGDIVMULTX_H,SYSVALUECOPY
002B3A	9150 0379	LDS SYSVALUECOPY,SYSLONGDIVMULTX_U
002B3C	1F55	ROL SYSVALUECOPY
002B3D	9350 0379	STS SYSLONGDIVMULTX_U,SYSVALUECOPY
002B3F	9150 037A	LDS SYSVALUECOPY,SYSLONGDIVMULTX_E
002B41	1F55	ROL SYSVALUECOPY
002B42	9350 037A	STS SYSLONGDIVMULTX_E,SYSVALUECOPY
002B44	90E0 0377	LDS SYSTEMP3,SYSLONGDIVMULTX
002B46	90F0 0373	LDS SYSTEMP4,SYSLONGDIVMULTB
002B48	18EF	SUB SYSTEMP3,SYSTEMP4
002B49	92E0 0377	STS SYSLONGDIVMULTX,SYSTEMP3
002B4B	90E0 0378	LDS SYSTEMP3,SYSLONGDIVMULTX_H
002B4D	90F0 0374	LDS SYSTEMP4,SYSLONGDIVMULTB_H
002B4F	08EF	SBC SYSTEMP3,SYSTEMP4
002B50	92E0 0378	STS SYSLONGDIVMULTX_H,SYSTEMP3
002B52	90E0 0379	LDS SYSTEMP3,SYSLONGDIVMULTX_U
002B54	90F0 0375	LDS SYSTEMP4,SYSLONGDIVMULTB_U
002B56	08EF	SBC SYSTEMP3,SYSTEMP4
002B57	92E0 0379	STS SYSLONGDIVMULTX_U,SYSTEMP3
002B59	90E0 037A	LDS SYSTEMP3,SYSLONGDIVMULTX_E
002B5B	90F0 0376	LDS SYSTEMP4,SYSLONGDIVMULTB_E
002B5D	08EF	SBC SYSTEMP3,SYSTEMP4
002B5E	92E0 037A	STS SYSLONGDIVMULTX_E,SYSTEMP3
002B60	9150 036F	LDS SYSVALUECOPY,SYSLONGDIVMULTA
002B62	6051	SBR SYSVALUECOPY,1<<0
002B63	9350 036F	STS SYSLONGDIVMULTA,SYSVALUECOPY
002B65	F508	BRBC C,ENDIF43
002B66	9150 036F	LDS SYSVALUECOPY,SYSLONGDIVMULTA
002B68	7F5E	CBR SYSVALUECOPY,1<<0
002B69	9350 036F	STS SYSLONGDIVMULTA,SYSVALUECOPY
002B6B	90E0 0377	LDS SYSTEMP3,SYSLONGDIVMULTX
002B6D	90F0 0373	LDS SYSTEMP4,SYSLONGDIVMULTB
002B6F	0CEF	ADD SYSTEMP3,SYSTEMP4
002B70	92E0 0377	STS SYSLONGDIVMULTX,SYSTEMP3
002B72	90E0 0378	LDS SYSTEMP3,SYSLONGDIVMULTX_H
002B74	90F0 0374	LDS SYSTEMP4,SYSLONGDIVMULTB_H
002B76	1CEF	ADC SYSTEMP3,SYSTEMP4
002B77	92E0 0378	STS SYSLONGDIVMULTX_H,SYSTEMP3
002B79	90E0 0379	LDS SYSTEMP3,SYSLONGDIVMULTX_U
002B7B	90F0 0375	LDS SYSTEMP4,SYSLONGDIVMULTB_U
002B7D	1CEF	ADC SYSTEMP3,SYSTEMP4
002B7E	92E0 0379	STS SYSLONGDIVMULTX_U,SYSTEMP3
002B80	90E0 037A	LDS SYSTEMP3,SYSLONGDIVMULTX_E
002B82	90F0 0376	LDS SYSTEMP4,SYSLONGDIVMULTB_E
002B84	1CEF	ADC SYSTEMP3,SYSTEMP4
002B85	92E0 037A	STS SYSLONGDIVMULTX_E,SYSTEMP3
		ENDIF43
002B87	945A	DEC SYSDIVLOOP
002B88	F009	BREQ SYSDIV32END
002B89	CF91	RJMP SYSDIV32START
		SYSDIV32END
002B8A	9160 036F	LDS SYSLONGTEMPA,SYSLONGDIVMULTA
002B8C	9170 0370	LDS SYSLONGTEMPA_H,SYSLONGDIVMULTA_H
002B8E	9180 0371	LDS SYSLONGTEMPA_U,SYSLONGDIVMULTA_U
002B90	9190 0372	LDS SYSLONGTEMPA_E,SYSLONGDIVMULTA_E
002B92	9000 0377	LDS SYSLONGTEMPX,SYSLONGDIVMULTX
002B94	9010 0378	LDS SYSLONGTEMPX_H,SYSLONGDIVMULTX_H
002B96	9020 0379	LDS SYSLONGTEMPX_U,SYSLONGDIVMULTX_U
002B98	9030 037A	LDS SYSLONGTEMPX_E,SYSLONGDIVMULTX_E
002B9A	9508	RET


		SYSDIVSUBINT
002B9B	2EED	MOV SYSTEMP3,SYSINTEGERTEMPB_H
002B9C	26E7	EOR SYSTEMP3,SYSINTEGERTEMPA_H
002B9D	2C4E	MOV SYSSIGNBYTE,SYSTEMP3
002B9E	FF77	SBRS SYSINTEGERTEMPA_H,7
002B9F	C009	RJMP ENDIF39
002BA0	2E66	MOV SYSTEMP1,SYSINTEGERTEMPA
002BA1	2E77	MOV SYSTEMP1_H,SYSINTEGERTEMPA_H
002BA2	9460	COM SYSTEMP1
002BA3	9470	COM SYSTEMP1_H
002BA4	9463	INC SYSTEMP1
002BA5	F409	BRNE PC + 2
002BA6	9473	INC SYSTEMP1_H
002BA7	2D66	MOV SYSINTEGERTEMPA,SYSTEMP1
002BA8	2D77	MOV SYSINTEGERTEMPA_H,SYSTEMP1_H
		ENDIF39
002BA9	FFD7	SBRS SYSINTEGERTEMPB_H,7
002BAA	C009	RJMP ENDIF40
002BAB	2E6C	MOV SYSTEMP1,SYSINTEGERTEMPB
002BAC	2E7D	MOV SYSTEMP1_H,SYSINTEGERTEMPB_H
002BAD	9460	COM SYSTEMP1
002BAE	9470	COM SYSTEMP1_H
002BAF	9463	INC SYSTEMP1
002BB0	F409	BRNE PC + 2
002BB1	9473	INC SYSTEMP1_H
002BB2	2DC6	MOV SYSINTEGERTEMPB,SYSTEMP1
002BB3	2DD7	MOV SYSINTEGERTEMPB_H,SYSTEMP1_H
		ENDIF40
002BB4	DF08	RCALL SYSDIVSUB16
002BB5	FE47	SBRS SYSSIGNBYTE,7
002BB6	C012	RJMP ENDIF41
002BB7	2E66	MOV SYSTEMP1,SYSINTEGERTEMPA
002BB8	2E77	MOV SYSTEMP1_H,SYSINTEGERTEMPA_H
002BB9	9460	COM SYSTEMP1
002BBA	9470	COM SYSTEMP1_H
002BBB	9463	INC SYSTEMP1
002BBC	F409	BRNE PC + 2
002BBD	9473	INC SYSTEMP1_H
002BBE	2D66	MOV SYSINTEGERTEMPA,SYSTEMP1
002BBF	2D77	MOV SYSINTEGERTEMPA_H,SYSTEMP1_H
002BC0	2C60	MOV SYSTEMP1,SYSINTEGERTEMPX
002BC1	2C71	MOV SYSTEMP1_H,SYSINTEGERTEMPX_H
002BC2	9460	COM SYSTEMP1
002BC3	9470	COM SYSTEMP1_H
002BC4	9463	INC SYSTEMP1
002BC5	F409	BRNE PC + 2
002BC6	9473	INC SYSTEMP1_H
002BC7	2C06	MOV SYSINTEGERTEMPX,SYSTEMP1
002BC8	2C17	MOV SYSINTEGERTEMPX_H,SYSTEMP1_H
		ENDIF41
002BC9	9508	RET


		SYSMULTSUB16
002BCA	2F86	MOV SYSDIVMULTA,SYSWORDTEMPA
002BCB	2F97	MOV SYSDIVMULTA_H,SYSWORDTEMPA_H
002BCC	2FEC	MOV SYSDIVMULTB,SYSWORDTEMPB
002BCD	2FFD	MOV SYSDIVMULTB_H,SYSWORDTEMPB_H
002BCE	E050	LDI SYSVALUECOPY,0
002BCF	2E25	MOV SYSDIVMULTX,SYSVALUECOPY
002BD0	E050	LDI SYSVALUECOPY,0
002BD1	2E35	MOV SYSDIVMULTX_H,SYSVALUECOPY
		MUL16LOOP
002BD2	FFE0	SBRS SYSDIVMULTB,0
002BD3	C006	RJMP ENDIF33
002BD4	2CE2	MOV SYSTEMP3,SYSDIVMULTX
002BD5	0EE8	ADD SYSTEMP3,SYSDIVMULTA
002BD6	2C2E	MOV SYSDIVMULTX,SYSTEMP3
002BD7	2CE3	MOV SYSTEMP3,SYSDIVMULTX_H
002BD8	1EE9	ADC SYSTEMP3,SYSDIVMULTA_H
002BD9	2C3E	MOV SYSDIVMULTX_H,SYSTEMP3
		ENDIF33
002BDA	9488	CLC
002BDB	95F7	ROR SYSDIVMULTB_H
002BDC	95E7	ROR SYSDIVMULTB
002BDD	9488	CLC
002BDE	1F88	ROL SYSDIVMULTA
002BDF	1F99	ROL SYSDIVMULTA_H
002BE0	2FCE	MOV SYSWORDTEMPB,SYSDIVMULTB
002BE1	2FDF	MOV SYSWORDTEMPB_H,SYSDIVMULTB_H
002BE2	E060	LDI SYSWORDTEMPA,0
002BE3	E070	LDI SYSWORDTEMPA_H,0
002BE4	DE88	RCALL SYSCOMPLESSTHAN16
002BE5	FC00	SBRC SYSBYTETEMPX,0
002BE6	CFEB	RJMP MUL16LOOP
002BE7	2C02	MOV SYSWORDTEMPX,SYSDIVMULTX
002BE8	2C13	MOV SYSWORDTEMPX_H,SYSDIVMULTX_H
002BE9	9508	RET


		SYSMULTSUB32
002BEA	9360 036F	STS SYSLONGDIVMULTA,SYSLONGTEMPA
002BEC	9370 0370	STS SYSLONGDIVMULTA_H,SYSLONGTEMPA_H
002BEE	9380 0371	STS SYSLONGDIVMULTA_U,SYSLONGTEMPA_U
002BF0	9390 0372	STS SYSLONGDIVMULTA_E,SYSLONGTEMPA_E
002BF2	93C0 0373	STS SYSLONGDIVMULTB,SYSLONGTEMPB
002BF4	93D0 0374	STS SYSLONGDIVMULTB_H,SYSLONGTEMPB_H
002BF6	93E0 0375	STS SYSLONGDIVMULTB_U,SYSLONGTEMPB_U
002BF8	93F0 0376	STS SYSLONGDIVMULTB_E,SYSLONGTEMPB_E
002BFA	E050	LDI SYSVALUECOPY,0
002BFB	9350 0377	STS SYSLONGDIVMULTX,SYSVALUECOPY
002BFD	9350 0378	STS SYSLONGDIVMULTX_H,SYSVALUECOPY
002BFF	9350 0379	STS SYSLONGDIVMULTX_U,SYSVALUECOPY
002C01	9350 037A	STS SYSLONGDIVMULTX_E,SYSVALUECOPY
		MUL32LOOP
002C03	9050 0373	LDS SYSBITTEST,SYSLONGDIVMULTB
002C05	FE50	SBRS SYSBITTEST,0
002C06	C01C	RJMP ENDIF35
002C07	90E0 0377	LDS SYSTEMP3,SYSLONGDIVMULTX
002C09	90F0 036F	LDS SYSTEMP4,SYSLONGDIVMULTA
002C0B	0CEF	ADD SYSTEMP3,SYSTEMP4
002C0C	92E0 0377	STS SYSLONGDIVMULTX,SYSTEMP3
002C0E	90E0 0378	LDS SYSTEMP3,SYSLONGDIVMULTX_H
002C10	90F0 0370	LDS SYSTEMP4,SYSLONGDIVMULTA_H
002C12	1CEF	ADC SYSTEMP3,SYSTEMP4
002C13	92E0 0378	STS SYSLONGDIVMULTX_H,SYSTEMP3
002C15	90E0 0379	LDS SYSTEMP3,SYSLONGDIVMULTX_U
002C17	90F0 0371	LDS SYSTEMP4,SYSLONGDIVMULTA_U
002C19	1CEF	ADC SYSTEMP3,SYSTEMP4
002C1A	92E0 0379	STS SYSLONGDIVMULTX_U,SYSTEMP3
002C1C	90E0 037A	LDS SYSTEMP3,SYSLONGDIVMULTX_E
002C1E	90F0 0372	LDS SYSTEMP4,SYSLONGDIVMULTA_E
002C20	1CEF	ADC SYSTEMP3,SYSTEMP4
002C21	92E0 037A	STS SYSLONGDIVMULTX_E,SYSTEMP3
		ENDIF35
002C23	9488	CLC
002C24	9150 0376	LDS SYSVALUECOPY,SYSLONGDIVMULTB_E
002C26	9557	ROR SYSVALUECOPY
002C27	9350 0376	STS SYSLONGDIVMULTB_E,SYSVALUECOPY
002C29	9150 0375	LDS SYSVALUECOPY,SYSLONGDIVMULTB_U
002C2B	9557	ROR SYSVALUECOPY
002C2C	9350 0375	STS SYSLONGDIVMULTB_U,SYSVALUECOPY
002C2E	9150 0374	LDS SYSVALUECOPY,SYSLONGDIVMULTB_H
002C30	9557	ROR SYSVALUECOPY
002C31	9350 0374	STS SYSLONGDIVMULTB_H,SYSVALUECOPY
002C33	9150 0373	LDS SYSVALUECOPY,SYSLONGDIVMULTB
002C35	9557	ROR SYSVALUECOPY
002C36	9350 0373	STS SYSLONGDIVMULTB,SYSVALUECOPY
002C38	9488	CLC
002C39	9150 036F	LDS SYSVALUECOPY,SYSLONGDIVMULTA
002C3B	1F55	ROL SYSVALUECOPY
002C3C	9350 036F	STS SYSLONGDIVMULTA,SYSVALUECOPY
002C3E	9150 0370	LDS SYSVALUECOPY,SYSLONGDIVMULTA_H
002C40	1F55	ROL SYSVALUECOPY
002C41	9350 0370	STS SYSLONGDIVMULTA_H,SYSVALUECOPY
002C43	9150 0371	LDS SYSVALUECOPY,SYSLONGDIVMULTA_U
002C45	1F55	ROL SYSVALUECOPY
002C46	9350 0371	STS SYSLONGDIVMULTA_U,SYSVALUECOPY
002C48	9150 0372	LDS SYSVALUECOPY,SYSLONGDIVMULTA_E
002C4A	1F55	ROL SYSVALUECOPY
002C4B	9350 0372	STS SYSLONGDIVMULTA_E,SYSVALUECOPY
002C4D	91C0 0373	LDS SYSLONGTEMPB,SYSLONGDIVMULTB
002C4F	91D0 0374	LDS SYSLONGTEMPB_H,SYSLONGDIVMULTB_H
002C51	91E0 0375	LDS SYSLONGTEMPB_U,SYSLONGDIVMULTB_U
002C53	91F0 0376	LDS SYSLONGTEMPB_E,SYSLONGDIVMULTB_E
002C55	E060	LDI SYSLONGTEMPA,0
002C56	E070	LDI SYSLONGTEMPA_H,0
002C57	E080	LDI SYSLONGTEMPA_U,0
002C58	E090	LDI SYSLONGTEMPA_E,0
002C59	DE1D	RCALL SYSCOMPLESSTHAN32
002C5A	FC00	SBRC SYSBYTETEMPX,0
002C5B	CFA7	RJMP MUL32LOOP
002C5C	9000 0377	LDS SYSLONGTEMPX,SYSLONGDIVMULTX
002C5E	9010 0378	LDS SYSLONGTEMPX_H,SYSLONGDIVMULTX_H
002C60	9020 0379	LDS SYSLONGTEMPX_U,SYSLONGDIVMULTX_U
002C62	9030 037A	LDS SYSLONGTEMPX_E,SYSLONGDIVMULTX_E
002C64	9508	RET


		SYSMULTSUBINT
002C65	2EED	MOV SYSTEMP3,SYSINTEGERTEMPB_H
002C66	26E7	EOR SYSTEMP3,SYSINTEGERTEMPA_H
002C67	2C4E	MOV SYSSIGNBYTE,SYSTEMP3
002C68	FF77	SBRS SYSINTEGERTEMPA_H,7
002C69	C009	RJMP ENDIF81
002C6A	2E66	MOV SYSTEMP1,SYSINTEGERTEMPA
002C6B	2E77	MOV SYSTEMP1_H,SYSINTEGERTEMPA_H
002C6C	9460	COM SYSTEMP1
002C6D	9470	COM SYSTEMP1_H
002C6E	9463	INC SYSTEMP1
002C6F	F409	BRNE PC + 2
002C70	9473	INC SYSTEMP1_H
002C71	2D66	MOV SYSINTEGERTEMPA,SYSTEMP1
002C72	2D77	MOV SYSINTEGERTEMPA_H,SYSTEMP1_H
		ENDIF81
002C73	FFD7	SBRS SYSINTEGERTEMPB_H,7
002C74	C009	RJMP ENDIF82
002C75	2E6C	MOV SYSTEMP1,SYSINTEGERTEMPB
002C76	2E7D	MOV SYSTEMP1_H,SYSINTEGERTEMPB_H
002C77	9460	COM SYSTEMP1
002C78	9470	COM SYSTEMP1_H
002C79	9463	INC SYSTEMP1
002C7A	F409	BRNE PC + 2
002C7B	9473	INC SYSTEMP1_H
002C7C	2DC6	MOV SYSINTEGERTEMPB,SYSTEMP1
002C7D	2DD7	MOV SYSINTEGERTEMPB_H,SYSTEMP1_H
		ENDIF82
002C7E	DF4B	RCALL SYSMULTSUB16
002C7F	FE47	SBRS SYSSIGNBYTE,7
002C80	C009	RJMP ENDIF83
002C81	2C60	MOV SYSTEMP1,SYSINTEGERTEMPX
002C82	2C71	MOV SYSTEMP1_H,SYSINTEGERTEMPX_H
002C83	9460	COM SYSTEMP1
002C84	9470	COM SYSTEMP1_H
002C85	9463	INC SYSTEMP1
002C86	F409	BRNE PC + 2
002C87	9473	INC SYSTEMP1_H
002C88	2C06	MOV SYSINTEGERTEMPX,SYSTEMP1
002C89	2C17	MOV SYSINTEGERTEMPX_H,SYSTEMP1_H
		ENDIF83
002C8A	9508	RET


		SYSREADSTRING
002C8B	95C8	LPM
002C8C	2D60	MOV SYSCALCTEMPA, SYSCALCTEMPX
002C8D	95E3	INC SYSREADA
002C8E	F409	BRNE PC + 2
002C8F	95F3	INC SYSREADA_H
002C90	9369	ST Y+, SYSCALCTEMPA
002C91	C006	RJMP SYSSTRINGREADCHECK
		SYSREADSTRINGPART
002C92	95C8	LPM
002C93	2D60	MOV SYSCALCTEMPA, SYSCALCTEMPX
002C94	95E3	INC SYSREADA
002C95	F409	BRNE PC + 2
002C96	95F3	INC SYSREADA_H
002C97	0F96	ADD SYSSTRINGLENGTH, SYSCALCTEMPA
		SYSSTRINGREADCHECK
002C98	3060	CPI SYSCALCTEMPA, 0
002C99	F409	BRNE SYSSTRINGREAD
002C9A	9508	RET
		SYSSTRINGREAD
002C9B	95C8	LPM
002C9C	95E3	INC SYSREADA
002C9D	F409	BRNE PC + 2
002C9E	95F3	INC SYSREADA_H
002C9F	9209	ST Y+, SYSCALCTEMPX
002CA0	956A	DEC SYSCALCTEMPA
002CA1	F7C9	BRNE SYSSTRINGREAD
002CA2	9508	RET


		SYSSTRINGTABLES

		STRINGTABLE1
002CA3	470D 4243 5341 4349 7620 2E31 7878	RAW 470D,4243,5341,4349,7620,2E31,7878


		STRINGTABLE2
002CAA	3701	RAW 3701


		STRINGTABLE3
002CAB	3801	RAW 3801


		STRINGTABLE4
002CAC	3901	RAW 3901


		STRINGTABLE5
002CAD	2F01	RAW 2F01


		STRINGTABLE6
002CAE	3401	RAW 3401


		STRINGTABLE7
002CAF	3501	RAW 3501


		STRINGTABLE8
002CB0	3601	RAW 3601


		STRINGTABLE9
002CB1	2A01	RAW 2A01


		STRINGTABLE10
002CB2	3101	RAW 3101


		STRINGTABLE11
002CB3	3201	RAW 3201


		STRINGTABLE12
002CB4	3301	RAW 3301


		STRINGTABLE13
002CB5	2D01	RAW 2D01


		STRINGTABLE14
002CB6	3001	RAW 3001


		STRINGTABLE15
002CB7	2E01	RAW 2E01


		STRINGTABLE16
002CB8	2B01	RAW 2B01


		STRINGTABLE17
002CB9	4301	RAW 4301


		STRINGTABLE18
002CBA	3D01	RAW 3D01


		STRINGTABLE19
002CBB	4014 6944 696D 7274 7369 4B20 7461 6173 756F 696E 0073	RAW 4014,6944,696D,7274,7369,4B20,7461,6173,756F,696E,0073


		STRINGTABLE20
002CC6	4712 4243 7361 6369 4320 6C61 7563 616C 6F74 0072	RAW 4712,4243,7361,6369,4320,6C61,7563,616C,6F74,0072


		STRINGTABLE21
002CD0	0000	RAW 0000


		STRINGTABLE22
002CD1	2014 2020 2020 2020 2020 2020 2020 2020 2020 2020 0020	RAW 2014,2020,2020,2020,2020,2020,2020,2020,2020,2020,0020


		STRINGTABLE23
002CDC	2014 2020 2020 2020 2020 2020 2020 2020 2020 2020 0030	RAW 2014,2020,2020,2020,2020,2020,2020,2020,2020,2020,0030



		FN_VAL
002CE7	E050	LDI SYSVALUECOPY,0
002CE8	9350 0394	STS VAL,SYSVALUECOPY
002CEA	9350 0395	STS VAL_H,SYSVALUECOPY
002CEC	91A0 0384	LDS SYSSTRINGA,SYSSYSINSTRINGHANDLER
002CEE	91B0 0385	LDS SYSSTRINGA_H,SYSSYSINSTRINGHANDLER_H
002CF0	915C	LD SYSVALUECOPY,X
002CF1	9350 036B	STS SYSCHARCOUNT,SYSVALUECOPY
002CF3	9160 036B	LDS SYSCALCTEMPA,SYSCHARCOUNT
002CF5	2366	TST SYSCALCTEMPA
002CF6	F409	BRNE ENDIF48
002CF7	9508	RET
		ENDIF48
002CF8	E051	LDI SYSVALUECOPY,1
002CF9	9350 0383	STS SYSSTRINGTEMP,SYSVALUECOPY
		SYSFORLOOP1
002CFB	90E0 0384	LDS SYSTEMP3,SYSSYSINSTRINGHANDLER
002CFD	90F0 0383	LDS SYSTEMP4,SYSSTRINGTEMP
002CFF	0CEF	ADD SYSTEMP3,SYSTEMP4
002D00	2DAE	MOV SYSSTRINGA,SYSTEMP3
002D01	90E0 0385	LDS SYSTEMP3,SYSSYSINSTRINGHANDLER_H
002D03	E000	LDI SYSTEMP5,0
002D04	1EE0	ADC SYSTEMP3,SYSTEMP5
002D05	2DBE	MOV SYSSTRINGA_H,SYSTEMP3
002D06	915C	LD SYSVALUECOPY,X
002D07	9350 0382	STS SYSSTRDATA,SYSVALUECOPY
002D09	9160 0382	LDS SYSCALCTEMPA,SYSSTRDATA
002D0B	3360	CPI SYSCALCTEMPA,48
002D0C	F408	BRSH ENDIF49
002D0D	9508	RET
		ENDIF49
002D0E	E369	LDI SYSCALCTEMPA,57
002D0F	91C0 0382	LDS SYSCALCTEMPB,SYSSTRDATA
002D11	176C	CP SYSCALCTEMPA,SYSCALCTEMPB
002D12	F408	BRSH ENDIF50
002D13	9508	RET
		ENDIF50
002D14	9160 0394	LDS SYSWORDTEMPA,VAL
002D16	9170 0395	LDS SYSWORDTEMPA_H,VAL_H
002D18	E0CA	LDI SYSWORDTEMPB,10
002D19	E0D0	LDI SYSWORDTEMPB_H,0
002D1A	DEAF	RCALL SYSMULTSUB16
002D1B	2CE0	MOV SYSTEMP3,SYSWORDTEMPX
002D1C	90F0 0382	LDS SYSTEMP4,SYSSTRDATA
002D1E	0CEF	ADD SYSTEMP3,SYSTEMP4
002D1F	2C6E	MOV SYSTEMP1,SYSTEMP3
002D20	2CE1	MOV SYSTEMP3,SYSWORDTEMPX_H
002D21	E000	LDI SYSTEMP5,0
002D22	1EE0	ADC SYSTEMP3,SYSTEMP5
002D23	2C7E	MOV SYSTEMP1_H,SYSTEMP3
002D24	E300	LDI SYSTEMP5,48
002D25	1A60	SUB SYSTEMP1,SYSTEMP5
002D26	9260 0394	STS VAL,SYSTEMP1
002D28	E000	LDI SYSTEMP5,0
002D29	0A70	SBC SYSTEMP1_H,SYSTEMP5
002D2A	9270 0395	STS VAL_H,SYSTEMP1_H
002D2C	90F0 036B	LDS SYSTEMP4,SYSCHARCOUNT
002D2E	9060 0383	LDS SYSTEMP1,SYSSTRINGTEMP
002D30	18F6	SUB SYSTEMP4,SYSTEMP1
002D31	2CEF	MOV SYSTEMP3,SYSTEMP4
002D32	2D6E	MOV SYSBYTETEMPA,SYSTEMP3
002D33	E0C0	LDI SYSBYTETEMPB,0
002D34	DD1B	RCALL SYSCOMPEQUAL
002D35	9400	COM SYSBYTETEMPX
002D36	FE00	SBRS SYSBYTETEMPX,0
002D37	C006	RJMP ENDIF51
002D38	90E0 0383	LDS SYSTEMP3,SYSSTRINGTEMP
002D3A	94E3	INC SYSTEMP3
002D3B	92E0 0383	STS SYSSTRINGTEMP,SYSTEMP3
002D3D	CFBD	RJMP SYSFORLOOP1
		ENDIF51
		SYSFORLOOPEND1
002D3E	9508	RET


		WRITE_COMMAND_DATA_SSD1289
002D3F	D001	RCALL WRITE_COMMAND_SSD1289
002D40	C00D	RJMP WRITE_DATA_SSD1289


		WRITE_COMMAND_SSD1289
002D41	985F	CBI PORTD,7
002D42	9150 039E	LDS SYSVALUECOPY,WCOMMAND
002D44	9350 030E	STS DATAVAL,SYSVALUECOPY
002D46	9150 039F	LDS SYSVALUECOPY,WCOMMAND_H
002D48	9350 030F	STS DATAVAL_H,SYSVALUECOPY
002D4A	DB11	RCALL SETBUS_SSD1289
002D4B	98A2	CBI PORTG,2
002D4C	9AA2	SBI PORTG,2
002D4D	9508	RET


		WRITE_DATA_SSD1289
002D4E	9A5F	SBI PORTD,7
002D4F	9150 03A0	LDS SYSVALUECOPY,WDATA
002D51	9350 030E	STS DATAVAL,SYSVALUECOPY
002D53	9150 03A1	LDS SYSVALUECOPY,WDATA_H
002D55	9350 030F	STS DATAVAL_H,SYSVALUECOPY
002D57	DB04	RCALL SETBUS_SSD1289
002D58	98A2	CBI PORTG,2
002D59	9AA2	SBI PORTG,2
002D5A	9508	RET


