GCASM List File (GCBASIC 2025.01.21 (Windows 64 bit) : Build 1460)

Symbols:
A 	EQU 	0
ABD 	EQU 	4
ABDEN 	EQU 	6
ABDIE 	EQU 	2
ABDIF 	EQU 	6
ABDOVE 	EQU 	5
ABDOVF 	EQU 	5
ACC0 	EQU 	0
ACC1 	EQU 	1
ACC10 	EQU 	2
ACC11 	EQU 	3
ACC12 	EQU 	4
ACC13 	EQU 	5
ACC14 	EQU 	6
ACC15 	EQU 	7
ACC16 	EQU 	0
ACC17 	EQU 	1
ACC18 	EQU 	2
ACC19 	EQU 	3
ACC2 	EQU 	2
ACC20 	EQU 	4
ACC21 	EQU 	5
ACC22 	EQU 	6
ACC23 	EQU 	7
ACC3 	EQU 	3
ACC4 	EQU 	4
ACC5 	EQU 	5
ACC6 	EQU 	6
ACC7 	EQU 	7
ACC8 	EQU 	0
ACC9 	EQU 	1
ACCESS 	EQU 	0
ACCM 	EQU 	4
ACKCNT 	EQU 	7
ACKDT 	EQU 	6
ACKSTAT 	EQU 	5
ACKT 	EQU 	4
ACKT1IE 	EQU 	6
ACKT1IF 	EQU 	6
ACKT2IE 	EQU 	6
ACKT2IF 	EQU 	6
ACKTIE 	EQU 	6
ACKTIF 	EQU 	6
ACLR 	EQU 	3
ACNT 	EQU 	7
ACQ0 	EQU 	0
ACQ1 	EQU 	1
ACQ10 	EQU 	2
ACQ11 	EQU 	3
ACQ12 	EQU 	4
ACQ2 	EQU 	2
ACQ3 	EQU 	3
ACQ4 	EQU 	4
ACQ5 	EQU 	5
ACQ6 	EQU 	6
ACQ7 	EQU 	7
ACQ8 	EQU 	0
ACQ9 	EQU 	1
ACT0 	EQU 	0
ACT1 	EQU 	1
ACT2 	EQU 	2
ACT3 	EQU 	3
ACT4 	EQU 	4
ADACC 	EQU 	16104
ADACC0 	EQU 	0
ADACC1 	EQU 	1
ADACC10 	EQU 	2
ADACC11 	EQU 	3
ADACC12 	EQU 	4
ADACC13 	EQU 	5
ADACC14 	EQU 	6
ADACC15 	EQU 	7
ADACC16 	EQU 	0
ADACC17 	EQU 	1
ADACC18 	EQU 	2
ADACC19 	EQU 	3
ADACC2 	EQU 	2
ADACC20 	EQU 	4
ADACC21 	EQU 	5
ADACC22 	EQU 	6
ADACC23 	EQU 	7
ADACC3 	EQU 	3
ADACC4 	EQU 	4
ADACC5 	EQU 	5
ADACC6 	EQU 	6
ADACC7 	EQU 	7
ADACC8 	EQU 	0
ADACC9 	EQU 	1
ADACCH 	EQU 	16105
ADACCH_ACC10 	EQU 	2
ADACCH_ACC11 	EQU 	3
ADACCH_ACC12 	EQU 	4
ADACCH_ACC13 	EQU 	5
ADACCH_ACC14 	EQU 	6
ADACCH_ACC15 	EQU 	7
ADACCH_ACC8 	EQU 	0
ADACCH_ACC9 	EQU 	1
ADACCL 	EQU 	16104
ADACCL_ACC0 	EQU 	0
ADACCL_ACC1 	EQU 	1
ADACCL_ACC2 	EQU 	2
ADACCL_ACC3 	EQU 	3
ADACCL_ACC4 	EQU 	4
ADACCL_ACC5 	EQU 	5
ADACCL_ACC6 	EQU 	6
ADACCL_ACC7 	EQU 	7
ADACCU 	EQU 	16106
ADACLR 	EQU 	3
ADACQ 	EQU 	16115
ADACQ0 	EQU 	0
ADACQ1 	EQU 	1
ADACQ10 	EQU 	2
ADACQ11 	EQU 	3
ADACQ12 	EQU 	4
ADACQ2 	EQU 	2
ADACQ3 	EQU 	3
ADACQ4 	EQU 	4
ADACQ5 	EQU 	5
ADACQ6 	EQU 	6
ADACQ7 	EQU 	7
ADACQ8 	EQU 	0
ADACQ9 	EQU 	1
ADACQH 	EQU 	16116
ADACQL 	EQU 	16115
ADACT 	EQU 	16126
ADACT0 	EQU 	0
ADACT1 	EQU 	1
ADACT2 	EQU 	2
ADACT3 	EQU 	3
ADACT4 	EQU 	4
ADACTPPS 	EQU 	15069
ADAOV 	EQU 	7
ADCALC0 	EQU 	4
ADCALC1 	EQU 	5
ADCALC2 	EQU 	6
ADCAP 	EQU 	16117
ADCAP0 	EQU 	0
ADCAP1 	EQU 	1
ADCAP2 	EQU 	2
ADCAP3 	EQU 	3
ADCAP4 	EQU 	4
ADCLK 	EQU 	16127
ADCLK_CS3 	EQU 	3
ADCLK_CS4 	EQU 	4
ADCMD 	EQU 	5
ADCNT 	EQU 	16107
ADCNT0 	EQU 	0
ADCNT1 	EQU 	1
ADCNT2 	EQU 	2
ADCNT3 	EQU 	3
ADCNT4 	EQU 	4
ADCNT5 	EQU 	5
ADCNT6 	EQU 	6
ADCNT7 	EQU 	7
ADCNT_CNT0 	EQU 	0
ADCNT_CNT1 	EQU 	1
ADCNT_CNT2 	EQU 	2
ADCNT_CNT3 	EQU 	3
ADCNT_CNT4 	EQU 	4
ADCNT_CNT5 	EQU 	5
ADCNT_CNT6 	EQU 	6
ADCNT_CNT7 	EQU 	7
ADCON0 	EQU 	16120
ADCON1 	EQU 	16121
ADCON2 	EQU 	16122
ADCON2_MODE0 	EQU 	0
ADCON2_MODE1 	EQU 	1
ADCON2_MODE2 	EQU 	2
ADCON3 	EQU 	16123
ADCONT 	EQU 	6
ADCP 	EQU 	16087
ADCPON 	EQU 	7
ADCPRDY 	EQU 	0
ADCRS0 	EQU 	4
ADCRS1 	EQU 	5
ADCRS2 	EQU 	6
ADCS 	EQU 	4
ADCS0 	EQU 	0
ADCS1 	EQU 	1
ADCS2 	EQU 	2
ADCS3 	EQU 	3
ADCS4 	EQU 	4
ADCS5 	EQU 	5
ADDSEN 	EQU 	0
ADERR 	EQU 	16098
ADERR0 	EQU 	0
ADERR1 	EQU 	1
ADERR10 	EQU 	2
ADERR11 	EQU 	3
ADERR12 	EQU 	4
ADERR13 	EQU 	5
ADERR14 	EQU 	6
ADERR15 	EQU 	7
ADERR2 	EQU 	2
ADERR3 	EQU 	3
ADERR4 	EQU 	4
ADERR5 	EQU 	5
ADERR6 	EQU 	6
ADERR7 	EQU 	7
ADERR8 	EQU 	0
ADERR9 	EQU 	1
ADERRH 	EQU 	16099
ADERRL 	EQU 	16098
ADFLTR 	EQU 	16102
ADFLTR0 	EQU 	0
ADFLTR1 	EQU 	1
ADFLTR10 	EQU 	2
ADFLTR11 	EQU 	3
ADFLTR12 	EQU 	4
ADFLTR13 	EQU 	5
ADFLTR14 	EQU 	6
ADFLTR15 	EQU 	7
ADFLTR2 	EQU 	2
ADFLTR3 	EQU 	3
ADFLTR4 	EQU 	4
ADFLTR5 	EQU 	5
ADFLTR6 	EQU 	6
ADFLTR7 	EQU 	7
ADFLTR8 	EQU 	0
ADFLTR9 	EQU 	1
ADFLTRH 	EQU 	16103
ADFLTRL 	EQU 	16102
ADFM0 	EQU 	2
ADFVR0 	EQU 	0
ADFVR1 	EQU 	1
ADGO 	EQU 	0
ADGPOL 	EQU 	5
ADIE 	EQU 	2
ADIF 	EQU 	2
ADIP 	EQU 	2
ADIPEN 	EQU 	6
ADLTH 	EQU 	16094
ADLTH0 	EQU 	0
ADLTH1 	EQU 	1
ADLTH10 	EQU 	2
ADLTH11 	EQU 	3
ADLTH12 	EQU 	4
ADLTH13 	EQU 	5
ADLTH14 	EQU 	6
ADLTH15 	EQU 	7
ADLTH2 	EQU 	2
ADLTH3 	EQU 	3
ADLTH4 	EQU 	4
ADLTH5 	EQU 	5
ADLTH6 	EQU 	6
ADLTH7 	EQU 	7
ADLTH8 	EQU 	0
ADLTH9 	EQU 	1
ADLTHH 	EQU 	16095
ADLTHL 	EQU 	16094
ADLTHR 	EQU 	5
ADMATH 	EQU 	4
ADMD0 	EQU 	0
ADMD1 	EQU 	1
ADMD2 	EQU 	2
ADNREF0 	EQU 	4
ADOEN 	EQU 	2
ADON 	EQU 	7
ADOR 	EQU 	2
ADOV 	EQU 	7
ADPCH 	EQU 	16113
ADPCH0 	EQU 	0
ADPCH1 	EQU 	1
ADPCH2 	EQU 	2
ADPCH3 	EQU 	3
ADPCH4 	EQU 	4
ADPCH5 	EQU 	5
ADPCH_PCH0 	EQU 	0
ADPCH_PCH1 	EQU 	1
ADPCH_PCH2 	EQU 	2
ADPPOL 	EQU 	7
ADPRE 	EQU 	16118
ADPRE0 	EQU 	0
ADPRE1 	EQU 	1
ADPRE10 	EQU 	2
ADPRE11 	EQU 	3
ADPRE12 	EQU 	4
ADPRE2 	EQU 	2
ADPRE3 	EQU 	3
ADPRE4 	EQU 	4
ADPRE5 	EQU 	5
ADPRE6 	EQU 	6
ADPRE7 	EQU 	7
ADPRE8 	EQU 	0
ADPRE9 	EQU 	1
ADPREF0 	EQU 	0
ADPREF1 	EQU 	1
ADPREH 	EQU 	16119
ADPREL 	EQU 	16118
ADPREV 	EQU 	16109
ADPREV0 	EQU 	0
ADPREV1 	EQU 	1
ADPREV10 	EQU 	2
ADPREV11 	EQU 	3
ADPREV12 	EQU 	4
ADPREV13 	EQU 	5
ADPREV14 	EQU 	6
ADPREV15 	EQU 	7
ADPREV2 	EQU 	2
ADPREV3 	EQU 	3
ADPREV4 	EQU 	4
ADPREV5 	EQU 	5
ADPREV6 	EQU 	6
ADPREV7 	EQU 	7
ADPREV8 	EQU 	0
ADPREV9 	EQU 	1
ADPREVH 	EQU 	16110
ADPREVL 	EQU 	16109
ADPSIS 	EQU 	7
ADR0 	EQU 	0
ADR1 	EQU 	1
ADR1IE 	EQU 	3
ADR1IF 	EQU 	3
ADR2 	EQU 	2
ADR2IE 	EQU 	3
ADR2IF 	EQU 	3
ADR3 	EQU 	3
ADR4 	EQU 	4
ADR5 	EQU 	5
ADR6 	EQU 	6
ADR7 	EQU 	7
ADR8 	EQU 	0
ADR9 	EQU 	1
ADREF 	EQU 	16125
ADRES 	EQU 	16111
ADRES0 	EQU 	0
ADRES1 	EQU 	1
ADRES10 	EQU 	2
ADRES11 	EQU 	3
ADRES12 	EQU 	4
ADRES13 	EQU 	5
ADRES14 	EQU 	6
ADRES15 	EQU 	7
ADRES2 	EQU 	2
ADRES3 	EQU 	3
ADRES4 	EQU 	4
ADRES5 	EQU 	5
ADRES6 	EQU 	6
ADRES7 	EQU 	7
ADRES8 	EQU 	0
ADRES9 	EQU 	1
ADRESH 	EQU 	16112
ADRESL 	EQU 	16111
ADRIE 	EQU 	3
ADRIF 	EQU 	3
ADRPT 	EQU 	16108
ADRPT0 	EQU 	0
ADRPT1 	EQU 	1
ADRPT2 	EQU 	2
ADRPT3 	EQU 	3
ADRPT4 	EQU 	4
ADRPT5 	EQU 	5
ADRPT6 	EQU 	6
ADRPT7 	EQU 	7
ADSOI 	EQU 	3
ADSTAT 	EQU 	16124
ADSTAT0 	EQU 	0
ADSTAT1 	EQU 	1
ADSTAT2 	EQU 	2
ADSTPT 	EQU 	16100
ADSTPT0 	EQU 	0
ADSTPT1 	EQU 	1
ADSTPT10 	EQU 	2
ADSTPT11 	EQU 	3
ADSTPT12 	EQU 	4
ADSTPT13 	EQU 	5
ADSTPT14 	EQU 	6
ADSTPT15 	EQU 	7
ADSTPT2 	EQU 	2
ADSTPT3 	EQU 	3
ADSTPT4 	EQU 	4
ADSTPT5 	EQU 	5
ADSTPT6 	EQU 	6
ADSTPT7 	EQU 	7
ADSTPT8 	EQU 	0
ADSTPT9 	EQU 	1
ADSTPTH 	EQU 	16101
ADSTPTL 	EQU 	16100
ADTIE 	EQU 	3
ADTIF 	EQU 	3
ADTIP 	EQU 	3
ADTMD0 	EQU 	0
ADTMD1 	EQU 	1
ADTMD2 	EQU 	2
ADUTH 	EQU 	16096
ADUTH0 	EQU 	0
ADUTH1 	EQU 	1
ADUTH10 	EQU 	2
ADUTH11 	EQU 	3
ADUTH12 	EQU 	4
ADUTH13 	EQU 	5
ADUTH14 	EQU 	6
ADUTH15 	EQU 	7
ADUTH2 	EQU 	2
ADUTH3 	EQU 	3
ADUTH4 	EQU 	4
ADUTH5 	EQU 	5
ADUTH6 	EQU 	6
ADUTH7 	EQU 	7
ADUTH8 	EQU 	0
ADUTH9 	EQU 	1
ADUTHH 	EQU 	16097
ADUTHL 	EQU 	16096
ADUTHR 	EQU 	6
AFSR0 	EQU 	16361
AFSR0_H 	EQU 	16362
AIRQ0 	EQU 	0
AIRQ1 	EQU 	1
AIRQ2 	EQU 	2
AIRQ3 	EQU 	3
AIRQ4 	EQU 	4
AIRQ5 	EQU 	5
AIRQ6 	EQU 	6
AIRQEN 	EQU 	2
ANSELA 	EQU 	14912
ANSELA0 	EQU 	0
ANSELA1 	EQU 	1
ANSELA2 	EQU 	2
ANSELA3 	EQU 	3
ANSELA4 	EQU 	4
ANSELA5 	EQU 	5
ANSELA6 	EQU 	6
ANSELA7 	EQU 	7
ANSELB 	EQU 	14928
ANSELB0 	EQU 	0
ANSELB1 	EQU 	1
ANSELB2 	EQU 	2
ANSELB3 	EQU 	3
ANSELB4 	EQU 	4
ANSELB5 	EQU 	5
ANSELB6 	EQU 	6
ANSELB7 	EQU 	7
ANSELC 	EQU 	14944
ANSELC0 	EQU 	0
ANSELC1 	EQU 	1
ANSELC2 	EQU 	2
ANSELC3 	EQU 	3
ANSELC4 	EQU 	4
ANSELC5 	EQU 	5
ANSELC6 	EQU 	6
ANSELC7 	EQU 	7
ANSELD 	EQU 	14960
ANSELD0 	EQU 	0
ANSELD1 	EQU 	1
ANSELD2 	EQU 	2
ANSELD3 	EQU 	3
ANSELD4 	EQU 	4
ANSELD5 	EQU 	5
ANSELD6 	EQU 	6
ANSELD7 	EQU 	7
ANSELE 	EQU 	14976
ANSELE0 	EQU 	0
ANSELE1 	EQU 	1
ANSELE2 	EQU 	2
AS 	EQU 	0
AS0E 	EQU 	0
AS1E 	EQU 	1
AS2E 	EQU 	2
AS3E 	EQU 	3
AS4E 	EQU 	4
AS5E 	EQU 	5
AS6E 	EQU 	6
ASYNC 	EQU 	4
B 	EQU 	1
BANKED 	EQU 	1
BASE0 	EQU 	0
BASE1 	EQU 	1
BASE10 	EQU 	2
BASE11 	EQU 	3
BASE12 	EQU 	4
BASE13 	EQU 	5
BASE14 	EQU 	6
BASE15 	EQU 	7
BASE16 	EQU 	0
BASE17 	EQU 	1
BASE18 	EQU 	2
BASE19 	EQU 	3
BASE2 	EQU 	2
BASE20 	EQU 	4
BASE3 	EQU 	3
BASE4 	EQU 	4
BASE5 	EQU 	5
BASE6 	EQU 	6
BASE7 	EQU 	7
BASE8 	EQU 	0
BASE9 	EQU 	1
BASPROGRAMEND 	EQU 	764
BASPROGRAMSTART 	EQU 	12
BAUD0 	EQU 	0
BAUD1 	EQU 	1
BAUD2 	EQU 	2
BAUD3 	EQU 	3
BAUD4 	EQU 	4
BAUD5 	EQU 	5
BAUD6 	EQU 	6
BAUD7 	EQU 	7
BCDTODEC 	EQU 	13
BCL1IE 	EQU 	1
BCL1IF 	EQU 	5
BCL2IE 	EQU 	1
BCL2IF 	EQU 	5
BCLIE 	EQU 	1
BCLIF 	EQU 	5
BFRE 	EQU 	7
BFRET0 	EQU 	0
BFRET1 	EQU 	1
BIT 	EQU 	0
BMODE 	EQU 	0
BOR 	EQU 	0
BORCON 	EQU 	14800
BORRDY 	EQU 	0
BRGS 	EQU 	7
BRKOVR 	EQU 	1
BSR 	EQU 	16352
BSR_CSHAD 	EQU 	14466
BSR_SHAD 	EQU 	14470
BTO0 	EQU 	0
BTO1 	EQU 	1
BTO1IE 	EQU 	2
BTO1IF 	EQU 	6
BTO2 	EQU 	2
BTO2IE 	EQU 	2
BTO2IF 	EQU 	6
BTOIE 	EQU 	2
BTOIF 	EQU 	6
BUF0 	EQU 	0
BUF1 	EQU 	1
BUF2 	EQU 	2
BUF3 	EQU 	3
BUF4 	EQU 	4
BUF5 	EQU 	5
BUF6 	EQU 	6
BUF7 	EQU 	7
BURSTMD 	EQU 	1
BUSY_CRCCON0 	EQU 	5
BUSY_SCANCON0 	EQU 	0
BUSY_SPI1CON2 	EQU 	7
C 	EQU 	0
C0EN 	EQU 	3
C1EN 	EQU 	7
C1HYS 	EQU 	1
C1IE 	EQU 	4
C1IF 	EQU 	4
C1INTN 	EQU 	0
C1INTP 	EQU 	1
C1IP 	EQU 	4
C1NCH0 	EQU 	0
C1NCH1 	EQU 	1
C1NCH2 	EQU 	2
C1OUT_CM1CON0 	EQU 	6
C1OUT_CMOUT 	EQU 	0
C1PCH0 	EQU 	0
C1PCH1 	EQU 	1
C1PCH2 	EQU 	2
C1POL 	EQU 	4
C1SYNC 	EQU 	0
C1TSEL0 	EQU 	0
C1TSEL1 	EQU 	1
C2EN 	EQU 	7
C2HYS 	EQU 	1
C2IE 	EQU 	1
C2IF 	EQU 	1
C2INTN 	EQU 	0
C2INTP 	EQU 	1
C2IP 	EQU 	1
C2NCH0 	EQU 	0
C2NCH1 	EQU 	1
C2NCH2 	EQU 	2
C2OUT_CM2CON0 	EQU 	6
C2OUT_CMOUT 	EQU 	1
C2PCH0 	EQU 	0
C2PCH1 	EQU 	1
C2PCH2 	EQU 	2
C2POL 	EQU 	4
C2SYNC 	EQU 	0
C2TSEL0 	EQU 	2
C2TSEL1 	EQU 	3
C3TSEL0 	EQU 	4
C3TSEL1 	EQU 	5
C4TSEL0 	EQU 	6
C4TSEL1 	EQU 	7
CALC0 	EQU 	4
CALC1 	EQU 	5
CALC2 	EQU 	6
CAP0 	EQU 	0
CAP1 	EQU 	1
CAP2 	EQU 	2
CAP3 	EQU 	3
CAP4 	EQU 	4
CCOUNT 	EQU 	16
CCOUNT_E 	EQU 	19
CCOUNT_H 	EQU 	17
CCOUNT_U 	EQU 	18
CCP1CAP 	EQU 	16255
CCP1CON 	EQU 	16254
CCP1CON_EN 	EQU 	7
CCP1CON_MODE0 	EQU 	0
CCP1CON_MODE1 	EQU 	1
CCP1CON_MODE2 	EQU 	2
CCP1CTS0 	EQU 	0
CCP1CTS1 	EQU 	1
CCP1CTS2 	EQU 	2
CCP1EN 	EQU 	7
CCP1FMT 	EQU 	4
CCP1IE 	EQU 	3
CCP1IF 	EQU 	3
CCP1IP 	EQU 	3
CCP1MD 	EQU 	0
CCP1MODE0 	EQU 	0
CCP1MODE1 	EQU 	1
CCP1MODE2 	EQU 	2
CCP1MODE3 	EQU 	3
CCP1OUT 	EQU 	5
CCP1PPS 	EQU 	15053
CCP2CAP 	EQU 	16251
CCP2CAP_CTS0 	EQU 	0
CCP2CAP_CTS1 	EQU 	1
CCP2CAP_CTS2 	EQU 	2
CCP2CON 	EQU 	16250
CCP2CON_EN 	EQU 	7
CCP2CON_FMT 	EQU 	4
CCP2CON_MODE0 	EQU 	0
CCP2CON_MODE1 	EQU 	1
CCP2CON_MODE2 	EQU 	2
CCP2CON_MODE3 	EQU 	3
CCP2CTS0 	EQU 	0
CCP2CTS1 	EQU 	1
CCP2CTS2 	EQU 	2
CCP2EN 	EQU 	7
CCP2FMT 	EQU 	4
CCP2IE 	EQU 	1
CCP2IF 	EQU 	1
CCP2IP 	EQU 	1
CCP2MD 	EQU 	1
CCP2MODE0 	EQU 	0
CCP2MODE1 	EQU 	1
CCP2MODE2 	EQU 	2
CCP2MODE3 	EQU 	3
CCP2OUT 	EQU 	5
CCP2PPS 	EQU 	15054
CCP3CAP 	EQU 	16247
CCP3CAP_CTS0 	EQU 	0
CCP3CAP_CTS1 	EQU 	1
CCP3CAP_CTS2 	EQU 	2
CCP3CON 	EQU 	16246
CCP3CON_EN 	EQU 	7
CCP3CON_FMT 	EQU 	4
CCP3CON_MODE0 	EQU 	0
CCP3CON_MODE1 	EQU 	1
CCP3CON_MODE2 	EQU 	2
CCP3CON_MODE3 	EQU 	3
CCP3CTS0 	EQU 	0
CCP3CTS1 	EQU 	1
CCP3CTS2 	EQU 	2
CCP3EN 	EQU 	7
CCP3FMT 	EQU 	4
CCP3IE 	EQU 	1
CCP3IF 	EQU 	1
CCP3IP 	EQU 	1
CCP3MD 	EQU 	2
CCP3MODE0 	EQU 	0
CCP3MODE1 	EQU 	1
CCP3MODE2 	EQU 	2
CCP3MODE3 	EQU 	3
CCP3OUT 	EQU 	5
CCP3PPS 	EQU 	15055
CCP4CAP 	EQU 	16243
CCP4CAP_CTS0 	EQU 	0
CCP4CAP_CTS1 	EQU 	1
CCP4CAP_CTS2 	EQU 	2
CCP4CON 	EQU 	16242
CCP4CON_EN 	EQU 	7
CCP4CON_FMT 	EQU 	4
CCP4CON_MODE0 	EQU 	0
CCP4CON_MODE1 	EQU 	1
CCP4CON_MODE2 	EQU 	2
CCP4CON_MODE3 	EQU 	3
CCP4CTS0 	EQU 	0
CCP4CTS1 	EQU 	1
CCP4CTS2 	EQU 	2
CCP4EN 	EQU 	7
CCP4FMT 	EQU 	4
CCP4IE 	EQU 	0
CCP4IF 	EQU 	0
CCP4IP 	EQU 	0
CCP4MD 	EQU 	3
CCP4MODE0 	EQU 	0
CCP4MODE1 	EQU 	1
CCP4MODE2 	EQU 	2
CCP4MODE3 	EQU 	3
CCP4OUT 	EQU 	5
CCP4PPS 	EQU 	15056
CCPR1 	EQU 	16252
CCPR1H 	EQU 	16253
CCPR1L 	EQU 	16252
CCPR2 	EQU 	16248
CCPR2H 	EQU 	16249
CCPR2L 	EQU 	16248
CCPR3 	EQU 	16244
CCPR3H 	EQU 	16245
CCPR3L 	EQU 	16244
CCPR4 	EQU 	16240
CCPR4H 	EQU 	16241
CCPR4L 	EQU 	16240
CCPTMRS0 	EQU 	16222
CCPTMRS1 	EQU 	16223
CDAFVR0 	EQU 	2
CDAFVR1 	EQU 	3
CDIV0 	EQU 	0
CDIV1 	EQU 	1
CDIV2 	EQU 	2
CDIV3 	EQU 	3
CERIE 	EQU 	4
CERIF 	EQU 	4
CH0 	EQU 	0
CH1 	EQU 	1
CH2 	EQU 	2
CH3 	EQU 	3
CH4 	EQU 	4
CHARCODE 	EQU 	20
CHARCOL 	EQU 	21
CHARCOLS 	EQU 	23
CHARCOL_H 	EQU 	22
CHARLOCX 	EQU 	24
CHARLOCX_H 	EQU 	25
CHARLOCY 	EQU 	26
CHARLOCY_H 	EQU 	27
CHARROW 	EQU 	28
CHARROWS 	EQU 	30
CHARROW_H 	EQU 	29
CHPOL 	EQU 	5
CHS0 	EQU 	2
CHS1 	EQU 	3
CHS2 	EQU 	4
CHS3 	EQU 	5
CHS4 	EQU 	6
CHSYNC 	EQU 	4
CKE 	EQU 	6
CKP 	EQU 	5
CKPOL 	EQU 	6
CKPS0_T0CON1 	EQU 	0
CKPS0_T1CON 	EQU 	4
CKPS0_T2CON 	EQU 	4
CKPS0_T3CON 	EQU 	4
CKPS0_T4CON 	EQU 	4
CKPS0_T5CON 	EQU 	4
CKPS0_T6CON 	EQU 	4
CKPS0_TMR1CON 	EQU 	4
CKPS0_TMR3CON 	EQU 	4
CKPS0_TMR5CON 	EQU 	4
CKPS1_T0CON1 	EQU 	1
CKPS1_T1CON 	EQU 	5
CKPS1_T2CON 	EQU 	5
CKPS1_T3CON 	EQU 	5
CKPS1_T4CON 	EQU 	5
CKPS1_T5CON 	EQU 	5
CKPS1_T6CON 	EQU 	5
CKPS1_TMR1CON 	EQU 	5
CKPS1_TMR3CON 	EQU 	5
CKPS1_TMR5CON 	EQU 	5
CKPS2_T0CON1 	EQU 	2
CKPS2_T2CON 	EQU 	6
CKPS2_T4CON 	EQU 	6
CKPS2_T6CON 	EQU 	6
CKPS3 	EQU 	3
CKS0 	EQU 	0
CKS1 	EQU 	1
CKS2 	EQU 	2
CKS3 	EQU 	3
CKSYNC 	EQU 	5
CL0 	EQU 	0
CL1 	EQU 	1
CL2 	EQU 	2
CL3 	EQU 	3
CL4 	EQU 	4
CLC1CON 	EQU 	15476
CLC1CON_EN 	EQU 	7
CLC1GLS0 	EQU 	15482
CLC1GLS1 	EQU 	15483
CLC1GLS2 	EQU 	15484
CLC1GLS3 	EQU 	15485
CLC1IE 	EQU 	7
CLC1IF 	EQU 	7
CLC1IP 	EQU 	7
CLC1MD 	EQU 	1
CLC1OUT 	EQU 	0
CLC1POL 	EQU 	15477
CLC1SEL0 	EQU 	15478
CLC1SEL1 	EQU 	15479
CLC1SEL2 	EQU 	15480
CLC1SEL3 	EQU 	15481
CLC2CON 	EQU 	15466
CLC2CON_EN 	EQU 	7
CLC2CON_MODE0 	EQU 	0
CLC2CON_MODE1 	EQU 	1
CLC2CON_MODE2 	EQU 	2
CLC2CON_OE 	EQU 	6
CLC2GLS0 	EQU 	15472
CLC2GLS0_G1D1N 	EQU 	0
CLC2GLS0_G1D1T 	EQU 	1
CLC2GLS0_G1D2N 	EQU 	2
CLC2GLS0_G1D2T 	EQU 	3
CLC2GLS0_G1D3N 	EQU 	4
CLC2GLS0_G1D3T 	EQU 	5
CLC2GLS0_G1D4N 	EQU 	6
CLC2GLS0_G1D4T 	EQU 	7
CLC2GLS1 	EQU 	15473
CLC2GLS1_G2D1N 	EQU 	0
CLC2GLS1_G2D1T 	EQU 	1
CLC2GLS1_G2D2N 	EQU 	2
CLC2GLS1_G2D2T 	EQU 	3
CLC2GLS1_G2D3N 	EQU 	4
CLC2GLS1_G2D3T 	EQU 	5
CLC2GLS1_G2D4N 	EQU 	6
CLC2GLS1_G2D4T 	EQU 	7
CLC2GLS2 	EQU 	15474
CLC2GLS2_G3D1N 	EQU 	0
CLC2GLS2_G3D1T 	EQU 	1
CLC2GLS2_G3D2N 	EQU 	2
CLC2GLS2_G3D2T 	EQU 	3
CLC2GLS2_G3D3N 	EQU 	4
CLC2GLS2_G3D3T 	EQU 	5
CLC2GLS2_G3D4N 	EQU 	6
CLC2GLS2_G3D4T 	EQU 	7
CLC2GLS3 	EQU 	15475
CLC2GLS3_G4D1N 	EQU 	0
CLC2GLS3_G4D1T 	EQU 	1
CLC2GLS3_G4D2N 	EQU 	2
CLC2GLS3_G4D2T 	EQU 	3
CLC2GLS3_G4D3N 	EQU 	4
CLC2GLS3_G4D3T 	EQU 	5
CLC2GLS3_G4D4N 	EQU 	6
CLC2GLS3_G4D4T 	EQU 	7
CLC2IE 	EQU 	4
CLC2IF 	EQU 	4
CLC2IP 	EQU 	4
CLC2MD 	EQU 	2
CLC2OUT 	EQU 	1
CLC2POL 	EQU 	15467
CLC2POL_G1POL 	EQU 	0
CLC2POL_G2POL 	EQU 	1
CLC2POL_G3POL 	EQU 	2
CLC2POL_G4POL 	EQU 	3
CLC2SEL0 	EQU 	15468
CLC2SEL0_D1S0 	EQU 	0
CLC2SEL0_D1S1 	EQU 	1
CLC2SEL0_D1S2 	EQU 	2
CLC2SEL0_D1S3 	EQU 	3
CLC2SEL0_D1S4 	EQU 	4
CLC2SEL0_D1S5 	EQU 	5
CLC2SEL0_D1S6 	EQU 	6
CLC2SEL0_D1S7 	EQU 	7
CLC2SEL1 	EQU 	15469
CLC2SEL1_D2S0 	EQU 	0
CLC2SEL1_D2S1 	EQU 	1
CLC2SEL1_D2S2 	EQU 	2
CLC2SEL1_D2S3 	EQU 	3
CLC2SEL1_D2S4 	EQU 	4
CLC2SEL1_D2S5 	EQU 	5
CLC2SEL1_D2S6 	EQU 	6
CLC2SEL1_D2S7 	EQU 	7
CLC2SEL2 	EQU 	15470
CLC2SEL2_D3S0 	EQU 	0
CLC2SEL2_D3S1 	EQU 	1
CLC2SEL2_D3S2 	EQU 	2
CLC2SEL2_D3S3 	EQU 	3
CLC2SEL2_D3S4 	EQU 	4
CLC2SEL2_D3S5 	EQU 	5
CLC2SEL2_D3S6 	EQU 	6
CLC2SEL2_D3S7 	EQU 	7
CLC2SEL3 	EQU 	15471
CLC2SEL3_D4S0 	EQU 	0
CLC2SEL3_D4S1 	EQU 	1
CLC2SEL3_D4S2 	EQU 	2
CLC2SEL3_D4S3 	EQU 	3
CLC2SEL3_D4S4 	EQU 	4
CLC2SEL3_D4S5 	EQU 	5
CLC2SEL3_D4S6 	EQU 	6
CLC2SEL3_D4S7 	EQU 	7
CLC3CON 	EQU 	15456
CLC3CON_EN 	EQU 	7
CLC3CON_MODE0 	EQU 	0
CLC3CON_MODE1 	EQU 	1
CLC3CON_MODE2 	EQU 	2
CLC3CON_OE 	EQU 	6
CLC3GLS0 	EQU 	15462
CLC3GLS0_G1D1N 	EQU 	0
CLC3GLS0_G1D1T 	EQU 	1
CLC3GLS0_G1D2N 	EQU 	2
CLC3GLS0_G1D2T 	EQU 	3
CLC3GLS0_G1D3N 	EQU 	4
CLC3GLS0_G1D3T 	EQU 	5
CLC3GLS0_G1D4N 	EQU 	6
CLC3GLS0_G1D4T 	EQU 	7
CLC3GLS1 	EQU 	15463
CLC3GLS1_G2D1N 	EQU 	0
CLC3GLS1_G2D1T 	EQU 	1
CLC3GLS1_G2D2N 	EQU 	2
CLC3GLS1_G2D2T 	EQU 	3
CLC3GLS1_G2D3N 	EQU 	4
CLC3GLS1_G2D3T 	EQU 	5
CLC3GLS1_G2D4N 	EQU 	6
CLC3GLS1_G2D4T 	EQU 	7
CLC3GLS2 	EQU 	15464
CLC3GLS2_G3D1N 	EQU 	0
CLC3GLS2_G3D1T 	EQU 	1
CLC3GLS2_G3D2N 	EQU 	2
CLC3GLS2_G3D2T 	EQU 	3
CLC3GLS2_G3D3N 	EQU 	4
CLC3GLS2_G3D3T 	EQU 	5
CLC3GLS2_G3D4N 	EQU 	6
CLC3GLS2_G3D4T 	EQU 	7
CLC3GLS3 	EQU 	15465
CLC3GLS3_G4D1N 	EQU 	0
CLC3GLS3_G4D1T 	EQU 	1
CLC3GLS3_G4D2N 	EQU 	2
CLC3GLS3_G4D2T 	EQU 	3
CLC3GLS3_G4D3N 	EQU 	4
CLC3GLS3_G4D3T 	EQU 	5
CLC3GLS3_G4D4N 	EQU 	6
CLC3GLS3_G4D4T 	EQU 	7
CLC3IE 	EQU 	3
CLC3IF 	EQU 	3
CLC3IP 	EQU 	3
CLC3MD 	EQU 	3
CLC3OUT 	EQU 	2
CLC3POL 	EQU 	15457
CLC3POL_G1POL 	EQU 	0
CLC3POL_G2POL 	EQU 	1
CLC3POL_G3POL 	EQU 	2
CLC3POL_G4POL 	EQU 	3
CLC3SEL0 	EQU 	15458
CLC3SEL0_D1S0 	EQU 	0
CLC3SEL0_D1S1 	EQU 	1
CLC3SEL0_D1S2 	EQU 	2
CLC3SEL0_D1S3 	EQU 	3
CLC3SEL0_D1S4 	EQU 	4
CLC3SEL0_D1S5 	EQU 	5
CLC3SEL0_D1S6 	EQU 	6
CLC3SEL0_D1S7 	EQU 	7
CLC3SEL1 	EQU 	15459
CLC3SEL1_D2S0 	EQU 	0
CLC3SEL1_D2S1 	EQU 	1
CLC3SEL1_D2S2 	EQU 	2
CLC3SEL1_D2S3 	EQU 	3
CLC3SEL1_D2S4 	EQU 	4
CLC3SEL1_D2S5 	EQU 	5
CLC3SEL1_D2S6 	EQU 	6
CLC3SEL1_D2S7 	EQU 	7
CLC3SEL2 	EQU 	15460
CLC3SEL2_D3S0 	EQU 	0
CLC3SEL2_D3S1 	EQU 	1
CLC3SEL2_D3S2 	EQU 	2
CLC3SEL2_D3S3 	EQU 	3
CLC3SEL2_D3S4 	EQU 	4
CLC3SEL2_D3S5 	EQU 	5
CLC3SEL2_D3S6 	EQU 	6
CLC3SEL2_D3S7 	EQU 	7
CLC3SEL3 	EQU 	15461
CLC3SEL3_D4S0 	EQU 	0
CLC3SEL3_D4S1 	EQU 	1
CLC3SEL3_D4S2 	EQU 	2
CLC3SEL3_D4S3 	EQU 	3
CLC3SEL3_D4S4 	EQU 	4
CLC3SEL3_D4S5 	EQU 	5
CLC3SEL3_D4S6 	EQU 	6
CLC3SEL3_D4S7 	EQU 	7
CLC4CON 	EQU 	15446
CLC4CON_EN 	EQU 	7
CLC4CON_MODE0 	EQU 	0
CLC4CON_MODE1 	EQU 	1
CLC4CON_MODE2 	EQU 	2
CLC4CON_OE 	EQU 	6
CLC4GLS0 	EQU 	15452
CLC4GLS0_G1D1N 	EQU 	0
CLC4GLS0_G1D1T 	EQU 	1
CLC4GLS0_G1D2N 	EQU 	2
CLC4GLS0_G1D2T 	EQU 	3
CLC4GLS0_G1D3N 	EQU 	4
CLC4GLS0_G1D3T 	EQU 	5
CLC4GLS0_G1D4N 	EQU 	6
CLC4GLS0_G1D4T 	EQU 	7
CLC4GLS1 	EQU 	15453
CLC4GLS1_G2D1N 	EQU 	0
CLC4GLS1_G2D1T 	EQU 	1
CLC4GLS1_G2D2N 	EQU 	2
CLC4GLS1_G2D2T 	EQU 	3
CLC4GLS1_G2D3N 	EQU 	4
CLC4GLS1_G2D3T 	EQU 	5
CLC4GLS1_G2D4N 	EQU 	6
CLC4GLS1_G2D4T 	EQU 	7
CLC4GLS2 	EQU 	15454
CLC4GLS2_G3D1N 	EQU 	0
CLC4GLS2_G3D1T 	EQU 	1
CLC4GLS2_G3D2N 	EQU 	2
CLC4GLS2_G3D2T 	EQU 	3
CLC4GLS2_G3D3N 	EQU 	4
CLC4GLS2_G3D3T 	EQU 	5
CLC4GLS2_G3D4N 	EQU 	6
CLC4GLS2_G3D4T 	EQU 	7
CLC4GLS3 	EQU 	15455
CLC4GLS3_G4D1N 	EQU 	0
CLC4GLS3_G4D1T 	EQU 	1
CLC4GLS3_G4D2N 	EQU 	2
CLC4GLS3_G4D2T 	EQU 	3
CLC4GLS3_G4D3N 	EQU 	4
CLC4GLS3_G4D3T 	EQU 	5
CLC4GLS3_G4D4N 	EQU 	6
CLC4GLS3_G4D4T 	EQU 	7
CLC4IE 	EQU 	1
CLC4IF 	EQU 	1
CLC4IP 	EQU 	1
CLC4MD 	EQU 	4
CLC4OUT 	EQU 	3
CLC4POL 	EQU 	15447
CLC4POL_G1POL 	EQU 	0
CLC4POL_G2POL 	EQU 	1
CLC4POL_G3POL 	EQU 	2
CLC4POL_G4POL 	EQU 	3
CLC4SEL0 	EQU 	15448
CLC4SEL0_D1S0 	EQU 	0
CLC4SEL0_D1S1 	EQU 	1
CLC4SEL0_D1S2 	EQU 	2
CLC4SEL0_D1S3 	EQU 	3
CLC4SEL0_D1S4 	EQU 	4
CLC4SEL0_D1S5 	EQU 	5
CLC4SEL0_D1S6 	EQU 	6
CLC4SEL0_D1S7 	EQU 	7
CLC4SEL1 	EQU 	15449
CLC4SEL1_D2S0 	EQU 	0
CLC4SEL1_D2S1 	EQU 	1
CLC4SEL1_D2S2 	EQU 	2
CLC4SEL1_D2S3 	EQU 	3
CLC4SEL1_D2S4 	EQU 	4
CLC4SEL1_D2S5 	EQU 	5
CLC4SEL1_D2S6 	EQU 	6
CLC4SEL1_D2S7 	EQU 	7
CLC4SEL2 	EQU 	15450
CLC4SEL2_D3S0 	EQU 	0
CLC4SEL2_D3S1 	EQU 	1
CLC4SEL2_D3S2 	EQU 	2
CLC4SEL2_D3S3 	EQU 	3
CLC4SEL2_D3S4 	EQU 	4
CLC4SEL2_D3S5 	EQU 	5
CLC4SEL2_D3S6 	EQU 	6
CLC4SEL2_D3S7 	EQU 	7
CLC4SEL3 	EQU 	15451
CLC4SEL3_D4S0 	EQU 	0
CLC4SEL3_D4S1 	EQU 	1
CLC4SEL3_D4S2 	EQU 	2
CLC4SEL3_D4S3 	EQU 	3
CLC4SEL3_D4S4 	EQU 	4
CLC4SEL3_D4S5 	EQU 	5
CLC4SEL3_D4S6 	EQU 	6
CLC4SEL3_D4S7 	EQU 	7
CLCDATA0 	EQU 	15486
CLCIN0PPS 	EQU 	15065
CLCIN1PPS 	EQU 	15066
CLCIN2PPS 	EQU 	15067
CLCIN3PPS 	EQU 	15068
CLK0 	EQU 	0
CLK1 	EQU 	1
CLK2 	EQU 	2
CLK3 	EQU 	3
CLKRCLK 	EQU 	15590
CLKRCLK0 	EQU 	0
CLKRCLK1 	EQU 	1
CLKRCLK2 	EQU 	2
CLKRCLK3 	EQU 	3
CLKRCON 	EQU 	15589
CLKRCON_EN 	EQU 	7
CLKRDC0 	EQU 	3
CLKRDC1 	EQU 	4
CLKRDIV0 	EQU 	0
CLKRDIV1 	EQU 	1
CLKRDIV2 	EQU 	2
CLKREN 	EQU 	7
CLKRMD 	EQU 	1
CLKSEL0 	EQU 	0
CLKSEL1 	EQU 	1
CLKSEL2 	EQU 	2
CLPOL 	EQU 	1
CLRBF 	EQU 	2
CLSYNC 	EQU 	0
CM1CON0 	EQU 	16060
CM1CON0_EN 	EQU 	7
CM1CON1 	EQU 	16061
CM1NCH 	EQU 	16062
CM1PCH 	EQU 	16063
CM2CON0 	EQU 	16056
CM2CON0_EN 	EQU 	7
CM2CON0_HYS 	EQU 	1
CM2CON0_SYNC 	EQU 	0
CM2CON1 	EQU 	16057
CM2NCH 	EQU 	16058
CM2NCH_NCH0 	EQU 	0
CM2NCH_NCH1 	EQU 	1
CM2NCH_NCH2 	EQU 	2
CM2PCH 	EQU 	16059
CM2PCH_PCH0 	EQU 	0
CM2PCH_PCH1 	EQU 	1
CM2PCH_PCH2 	EQU 	2
CMOUT 	EQU 	16064
CMP1MD 	EQU 	1
CMP2MD 	EQU 	2
CNT0 	EQU 	0
CNT1 	EQU 	1
CNT1IE 	EQU 	7
CNT1IF 	EQU 	7
CNT2 	EQU 	2
CNT2IE 	EQU 	7
CNT2IF 	EQU 	7
CNT3 	EQU 	3
CNT4 	EQU 	4
CNT5 	EQU 	5
CNT6 	EQU 	6
CNT7 	EQU 	7
CNTIE 	EQU 	7
CNTIF 	EQU 	7
COL 	EQU 	31
COMPORT 	EQU 	32
CONT 	EQU 	6
COSC0 	EQU 	4
COSC1 	EQU 	5
COSC2 	EQU 	6
CPOL 	EQU 	2
CPON 	EQU 	7
CPR0 	EQU 	0
CPR1 	EQU 	1
CPR10 	EQU 	2
CPR11 	EQU 	3
CPR12 	EQU 	4
CPR13 	EQU 	5
CPR14 	EQU 	6
CPR15 	EQU 	7
CPR16 	EQU 	0
CPR17 	EQU 	1
CPR18 	EQU 	2
CPR19 	EQU 	3
CPR2 	EQU 	2
CPR20 	EQU 	4
CPR21 	EQU 	5
CPR22 	EQU 	6
CPR23 	EQU 	7
CPR3 	EQU 	3
CPR4 	EQU 	4
CPR5 	EQU 	5
CPR6 	EQU 	6
CPR7 	EQU 	7
CPR8 	EQU 	0
CPR9 	EQU 	1
CPRDY 	EQU 	0
CPRUP 	EQU 	7
CPUDOZE 	EQU 	14808
CPW0 	EQU 	0
CPW1 	EQU 	1
CPW10 	EQU 	2
CPW11 	EQU 	3
CPW12 	EQU 	4
CPW13 	EQU 	5
CPW14 	EQU 	6
CPW15 	EQU 	7
CPW16 	EQU 	0
CPW17 	EQU 	1
CPW18 	EQU 	2
CPW19 	EQU 	3
CPW2 	EQU 	2
CPW20 	EQU 	4
CPW21 	EQU 	5
CPW22 	EQU 	6
CPW23 	EQU 	7
CPW3 	EQU 	3
CPW4 	EQU 	4
CPW5 	EQU 	5
CPW6 	EQU 	6
CPW7 	EQU 	7
CPW8 	EQU 	0
CPW9 	EQU 	1
CPWUP 	EQU 	6
CRCACC 	EQU 	14690
CRCACCH 	EQU 	14691
CRCACCL 	EQU 	14690
CRCCON0 	EQU 	14696
CRCCON0_EN 	EQU 	7
CRCCON1 	EQU 	14697
CRCDATA 	EQU 	14688
CRCDATH 	EQU 	14689
CRCDATL 	EQU 	14688
CRCEN 	EQU 	7
CRCGO 	EQU 	6
CRCIE 	EQU 	6
CRCIF 	EQU 	6
CRCIP 	EQU 	6
CRCMD 	EQU 	4
CRCSHFT 	EQU 	14692
CRCSHIFTH 	EQU 	14693
CRCSHIFTL 	EQU 	14692
CRCXOR 	EQU 	14694
CRCXORH 	EQU 	14695
CRCXORL 	EQU 	14694
CRS0 	EQU 	4
CRS1 	EQU 	5
CRS2 	EQU 	6
CS0_ADCLK 	EQU 	0
CS0_T0CON1 	EQU 	5
CS0_T1CLK 	EQU 	0
CS0_T2CLK 	EQU 	0
CS0_T2CLKCON 	EQU 	0
CS0_T3CLK 	EQU 	0
CS0_T4CLK 	EQU 	0
CS0_T4CLKCON 	EQU 	0
CS0_T5CLK 	EQU 	0
CS0_T6CLK 	EQU 	0
CS0_T6CLKCON 	EQU 	0
CS0_TMR1CLK 	EQU 	0
CS0_TMR3CLK 	EQU 	0
CS0_TMR5CLK 	EQU 	0
CS1_ADCLK 	EQU 	1
CS1_T0CON1 	EQU 	6
CS1_T1CLK 	EQU 	1
CS1_T2CLK 	EQU 	1
CS1_T2CLKCON 	EQU 	1
CS1_T3CLK 	EQU 	1
CS1_T4CLK 	EQU 	1
CS1_T4CLKCON 	EQU 	1
CS1_T5CLK 	EQU 	1
CS1_T6CLK 	EQU 	1
CS1_T6CLKCON 	EQU 	1
CS1_TMR1CLK 	EQU 	1
CS1_TMR3CLK 	EQU 	1
CS1_TMR5CLK 	EQU 	1
CS2_ADCLK 	EQU 	2
CS2_T0CON1 	EQU 	7
CS2_T1CLK 	EQU 	2
CS2_T2CLK 	EQU 	2
CS2_T2CLKCON 	EQU 	2
CS2_T3CLK 	EQU 	2
CS2_T4CLK 	EQU 	2
CS2_T4CLKCON 	EQU 	2
CS2_T5CLK 	EQU 	2
CS2_T6CLK 	EQU 	2
CS2_T6CLKCON 	EQU 	2
CS2_TMR1CLK 	EQU 	2
CS2_TMR3CLK 	EQU 	2
CS2_TMR5CLK 	EQU 	2
CS3 	EQU 	3
CS4 	EQU 	4
CS5 	EQU 	5
CSD 	EQU 	0
CSEL0 	EQU 	0
CSEL1 	EQU 	1
CSEL2 	EQU 	2
CSTR 	EQU 	4
CSWHOLD 	EQU 	7
CSWIE 	EQU 	3
CSWIF 	EQU 	3
CSWIP 	EQU 	3
CS_ADCON0 	EQU 	4
CS_CWG1CLK 	EQU 	0
CS_CWG1CLKCON 	EQU 	0
CS_CWG2CLK 	EQU 	0
CS_CWG2CLKCON 	EQU 	0
CS_CWG3CLK 	EQU 	0
CS_CWG3CLKCON 	EQU 	0
CTS0 	EQU 	0
CTS1 	EQU 	1
CTS2 	EQU 	2
CURRCHARCOL 	EQU 	33
CURRCHARROW 	EQU 	34
CURRCHARVAL 	EQU 	35
CURRCOL 	EQU 	36
CURRPAGE 	EQU 	37
CWG1AS0 	EQU 	16216
CWG1AS1 	EQU 	16217
CWG1CLK 	EQU 	16210
CWG1CLKCON 	EQU 	16210
CWG1CLKCON_CWG1CS 	EQU 	0
CWG1CON0 	EQU 	16214
CWG1CON0_EN 	EQU 	7
CWG1CON0_MODE0 	EQU 	0
CWG1CON0_MODE1 	EQU 	1
CWG1CON0_MODE2 	EQU 	2
CWG1CON1 	EQU 	16215
CWG1CS 	EQU 	0
CWG1DBF 	EQU 	16213
CWG1DBF0 	EQU 	0
CWG1DBF1 	EQU 	1
CWG1DBF2 	EQU 	2
CWG1DBF3 	EQU 	3
CWG1DBF4 	EQU 	4
CWG1DBF5 	EQU 	5
CWG1DBR 	EQU 	16212
CWG1DBR0 	EQU 	0
CWG1DBR1 	EQU 	1
CWG1DBR2 	EQU 	2
CWG1DBR3 	EQU 	3
CWG1DBR4 	EQU 	4
CWG1DBR5 	EQU 	5
CWG1EN 	EQU 	7
CWG1IE 	EQU 	6
CWG1IF 	EQU 	6
CWG1IN 	EQU 	5
CWG1INPPS 	EQU 	15059
CWG1IP 	EQU 	6
CWG1ISM 	EQU 	16211
CWG1ISM0 	EQU 	0
CWG1ISM1 	EQU 	1
CWG1ISM2 	EQU 	2
CWG1ISM3 	EQU 	3
CWG1LD 	EQU 	6
CWG1LSAC0 	EQU 	2
CWG1LSAC1 	EQU 	3
CWG1LSBD0 	EQU 	4
CWG1LSBD1 	EQU 	5
CWG1MD 	EQU 	5
CWG1MODE0 	EQU 	0
CWG1MODE1 	EQU 	1
CWG1MODE2 	EQU 	2
CWG1OVRA 	EQU 	4
CWG1OVRB 	EQU 	5
CWG1OVRC 	EQU 	6
CWG1OVRD 	EQU 	7
CWG1POLA 	EQU 	0
CWG1POLB 	EQU 	1
CWG1POLC 	EQU 	2
CWG1POLD 	EQU 	3
CWG1REN 	EQU 	6
CWG1SHUTDOWN 	EQU 	7
CWG1STR 	EQU 	16218
CWG1STRA 	EQU 	0
CWG1STRB 	EQU 	1
CWG1STRC 	EQU 	2
CWG1STRD 	EQU 	3
CWG2AS0 	EQU 	16207
CWG2AS0_LSAC0 	EQU 	2
CWG2AS0_LSAC1 	EQU 	3
CWG2AS0_LSBD0 	EQU 	4
CWG2AS0_LSBD1 	EQU 	5
CWG2AS0_REN 	EQU 	6
CWG2AS0_SHUTDOWN 	EQU 	7
CWG2AS1 	EQU 	16208
CWG2AS1_AS0E 	EQU 	0
CWG2AS1_AS1E 	EQU 	1
CWG2AS1_AS2E 	EQU 	2
CWG2AS1_AS3E 	EQU 	3
CWG2AS1_AS4E 	EQU 	4
CWG2AS1_AS5E 	EQU 	5
CWG2AS1_AS6E 	EQU 	6
CWG2CLK 	EQU 	16201
CWG2CLKCON 	EQU 	16201
CWG2CLKCON_CWG2CS 	EQU 	0
CWG2CON0 	EQU 	16205
CWG2CON0_EN 	EQU 	7
CWG2CON0_LD 	EQU 	6
CWG2CON0_MODE0 	EQU 	0
CWG2CON0_MODE1 	EQU 	1
CWG2CON0_MODE2 	EQU 	2
CWG2CON1 	EQU 	16206
CWG2CON1_IN 	EQU 	5
CWG2CON1_POLA 	EQU 	0
CWG2CON1_POLB 	EQU 	1
CWG2CON1_POLC 	EQU 	2
CWG2CON1_POLD 	EQU 	3
CWG2CS 	EQU 	0
CWG2DBF 	EQU 	16204
CWG2DBF0 	EQU 	0
CWG2DBF1 	EQU 	1
CWG2DBF2 	EQU 	2
CWG2DBF3 	EQU 	3
CWG2DBF4 	EQU 	4
CWG2DBF5 	EQU 	5
CWG2DBF_DBF0 	EQU 	0
CWG2DBF_DBF1 	EQU 	1
CWG2DBF_DBF2 	EQU 	2
CWG2DBF_DBF3 	EQU 	3
CWG2DBF_DBF4 	EQU 	4
CWG2DBF_DBF5 	EQU 	5
CWG2DBR 	EQU 	16203
CWG2DBR0 	EQU 	0
CWG2DBR1 	EQU 	1
CWG2DBR2 	EQU 	2
CWG2DBR3 	EQU 	3
CWG2DBR4 	EQU 	4
CWG2DBR5 	EQU 	5
CWG2DBR_DBR0 	EQU 	0
CWG2DBR_DBR1 	EQU 	1
CWG2DBR_DBR2 	EQU 	2
CWG2DBR_DBR3 	EQU 	3
CWG2DBR_DBR4 	EQU 	4
CWG2DBR_DBR5 	EQU 	5
CWG2EN 	EQU 	7
CWG2IE 	EQU 	3
CWG2IF 	EQU 	3
CWG2IN 	EQU 	5
CWG2INPPS 	EQU 	15060
CWG2IP 	EQU 	3
CWG2ISM 	EQU 	16202
CWG2ISM0 	EQU 	0
CWG2ISM1 	EQU 	1
CWG2ISM2 	EQU 	2
CWG2ISM3 	EQU 	3
CWG2LD 	EQU 	6
CWG2LSAC0 	EQU 	2
CWG2LSAC1 	EQU 	3
CWG2LSBD0 	EQU 	4
CWG2LSBD1 	EQU 	5
CWG2MD 	EQU 	6
CWG2MODE0 	EQU 	0
CWG2MODE1 	EQU 	1
CWG2MODE2 	EQU 	2
CWG2OVRA 	EQU 	4
CWG2OVRB 	EQU 	5
CWG2OVRC 	EQU 	6
CWG2OVRD 	EQU 	7
CWG2POLA 	EQU 	0
CWG2POLB 	EQU 	1
CWG2POLC 	EQU 	2
CWG2POLD 	EQU 	3
CWG2REN 	EQU 	6
CWG2SHUTDOWN 	EQU 	7
CWG2STR 	EQU 	16209
CWG2STRA 	EQU 	0
CWG2STRB 	EQU 	1
CWG2STRC 	EQU 	2
CWG2STRD 	EQU 	3
CWG2STR_OVRA 	EQU 	4
CWG2STR_OVRB 	EQU 	5
CWG2STR_OVRC 	EQU 	6
CWG2STR_OVRD 	EQU 	7
CWG2STR_STRA 	EQU 	0
CWG2STR_STRB 	EQU 	1
CWG2STR_STRC 	EQU 	2
CWG2STR_STRD 	EQU 	3
CWG3AS0 	EQU 	16198
CWG3AS0_LSAC0 	EQU 	2
CWG3AS0_LSAC1 	EQU 	3
CWG3AS0_LSBD0 	EQU 	4
CWG3AS0_LSBD1 	EQU 	5
CWG3AS0_REN 	EQU 	6
CWG3AS0_SHUTDOWN 	EQU 	7
CWG3AS1 	EQU 	16199
CWG3AS1_AS0E 	EQU 	0
CWG3AS1_AS1E 	EQU 	1
CWG3AS1_AS2E 	EQU 	2
CWG3AS1_AS3E 	EQU 	3
CWG3AS1_AS4E 	EQU 	4
CWG3AS1_AS5E 	EQU 	5
CWG3AS1_AS6E 	EQU 	6
CWG3CLK 	EQU 	16192
CWG3CLKCON 	EQU 	16192
CWG3CLKCON_CWG3CS 	EQU 	0
CWG3CON0 	EQU 	16196
CWG3CON0_EN 	EQU 	7
CWG3CON0_LD 	EQU 	6
CWG3CON0_MODE0 	EQU 	0
CWG3CON0_MODE1 	EQU 	1
CWG3CON0_MODE2 	EQU 	2
CWG3CON1 	EQU 	16197
CWG3CON1_IN 	EQU 	5
CWG3CON1_POLA 	EQU 	0
CWG3CON1_POLB 	EQU 	1
CWG3CON1_POLC 	EQU 	2
CWG3CON1_POLD 	EQU 	3
CWG3CS 	EQU 	0
CWG3DBF 	EQU 	16195
CWG3DBF0 	EQU 	0
CWG3DBF1 	EQU 	1
CWG3DBF2 	EQU 	2
CWG3DBF3 	EQU 	3
CWG3DBF4 	EQU 	4
CWG3DBF5 	EQU 	5
CWG3DBF_DBF0 	EQU 	0
CWG3DBF_DBF1 	EQU 	1
CWG3DBF_DBF2 	EQU 	2
CWG3DBF_DBF3 	EQU 	3
CWG3DBF_DBF4 	EQU 	4
CWG3DBF_DBF5 	EQU 	5
CWG3DBR 	EQU 	16194
CWG3DBR0 	EQU 	0
CWG3DBR1 	EQU 	1
CWG3DBR2 	EQU 	2
CWG3DBR3 	EQU 	3
CWG3DBR4 	EQU 	4
CWG3DBR5 	EQU 	5
CWG3DBR_DBR0 	EQU 	0
CWG3DBR_DBR1 	EQU 	1
CWG3DBR_DBR2 	EQU 	2
CWG3DBR_DBR3 	EQU 	3
CWG3DBR_DBR4 	EQU 	4
CWG3DBR_DBR5 	EQU 	5
CWG3EN 	EQU 	7
CWG3IE 	EQU 	2
CWG3IF 	EQU 	2
CWG3IN 	EQU 	5
CWG3INPPS 	EQU 	15061
CWG3IP 	EQU 	2
CWG3ISM 	EQU 	16193
CWG3ISM0 	EQU 	0
CWG3ISM1 	EQU 	1
CWG3ISM2 	EQU 	2
CWG3ISM3 	EQU 	3
CWG3LD 	EQU 	6
CWG3LSAC0 	EQU 	2
CWG3LSAC1 	EQU 	3
CWG3LSBD0 	EQU 	4
CWG3LSBD1 	EQU 	5
CWG3MD 	EQU 	7
CWG3MODE0 	EQU 	0
CWG3MODE1 	EQU 	1
CWG3MODE2 	EQU 	2
CWG3OVRA 	EQU 	4
CWG3OVRB 	EQU 	5
CWG3OVRC 	EQU 	6
CWG3OVRD 	EQU 	7
CWG3POLA 	EQU 	0
CWG3POLB 	EQU 	1
CWG3POLC 	EQU 	2
CWG3POLD 	EQU 	3
CWG3REN 	EQU 	6
CWG3SHUTDOWN 	EQU 	7
CWG3STR 	EQU 	16200
CWG3STRA 	EQU 	0
CWG3STRB 	EQU 	1
CWG3STRC 	EQU 	2
CWG3STRD 	EQU 	3
CWG3STR_OVRA 	EQU 	4
CWG3STR_OVRB 	EQU 	5
CWG3STR_OVRC 	EQU 	6
CWG3STR_OVRD 	EQU 	7
CWG3STR_STRA 	EQU 	0
CWG3STR_STRB 	EQU 	1
CWG3STR_STRC 	EQU 	2
CWG3STR_STRD 	EQU 	3
D 	EQU 	3
D1S0 	EQU 	0
D1S1 	EQU 	1
D1S2 	EQU 	2
D1S3 	EQU 	3
D1S4 	EQU 	4
D1S5 	EQU 	5
D1S6 	EQU 	6
D1S7 	EQU 	7
D2S0 	EQU 	0
D2S1 	EQU 	1
D2S2 	EQU 	2
D2S3 	EQU 	3
D2S4 	EQU 	4
D2S5 	EQU 	5
D2S6 	EQU 	6
D2S7 	EQU 	7
D3S0 	EQU 	0
D3S1 	EQU 	1
D3S2 	EQU 	2
D3S3 	EQU 	3
D3S4 	EQU 	4
D3S5 	EQU 	5
D3S6 	EQU 	6
D3S7 	EQU 	7
D4S0 	EQU 	0
D4S1 	EQU 	1
D4S2 	EQU 	2
D4S3 	EQU 	3
D4S4 	EQU 	4
D4S5 	EQU 	5
D4S6 	EQU 	6
D4S7 	EQU 	7
DAC1CON0 	EQU 	16030
DAC1CON0_EN 	EQU 	7
DAC1CON1 	EQU 	16028
DAC1EN 	EQU 	7
DAC1NSS 	EQU 	0
DAC1OE1 	EQU 	5
DAC1OE2 	EQU 	4
DAC1PSS0 	EQU 	2
DAC1PSS1 	EQU 	3
DAC1R0 	EQU 	0
DAC1R1 	EQU 	1
DAC1R2 	EQU 	2
DAC1R3 	EQU 	3
DAC1R4 	EQU 	4
DACMD 	EQU 	6
DAT0 	EQU 	0
DAT1 	EQU 	1
DAT2 	EQU 	2
DAT3 	EQU 	3
DAT4 	EQU 	4
DAT5 	EQU 	5
DAT6 	EQU 	6
DAT7 	EQU 	7
DATA0 	EQU 	0
DATA1 	EQU 	1
DATA10 	EQU 	2
DATA11 	EQU 	3
DATA12 	EQU 	4
DATA13 	EQU 	5
DATA14 	EQU 	6
DATA15 	EQU 	7
DATA2 	EQU 	2
DATA3 	EQU 	3
DATA4 	EQU 	4
DATA5 	EQU 	5
DATA6 	EQU 	6
DATA7 	EQU 	7
DATA8 	EQU 	0
DATA9 	EQU 	1
DATE 	EQU 	38
DBF0 	EQU 	0
DBF1 	EQU 	1
DBF2 	EQU 	2
DBF3 	EQU 	3
DBF4 	EQU 	4
DBF5 	EQU 	5
DBR0 	EQU 	0
DBR1 	EQU 	1
DBR2 	EQU 	2
DBR3 	EQU 	3
DBR4 	EQU 	4
DBR5 	EQU 	5
DC 	EQU 	1
DC0 	EQU 	6
DC1 	EQU 	7
DC2 	EQU 	0
DC3 	EQU 	1
DC4 	EQU 	2
DC5 	EQU 	3
DC6 	EQU 	4
DC7 	EQU 	5
DC8 	EQU 	6
DC9 	EQU 	7
DCNT0 	EQU 	0
DCNT1 	EQU 	1
DCNT10 	EQU 	2
DCNT11 	EQU 	3
DCNT2 	EQU 	2
DCNT3 	EQU 	3
DCNT4 	EQU 	4
DCNT5 	EQU 	5
DCNT6 	EQU 	6
DCNT7 	EQU 	7
DCNT8 	EQU 	0
DCNT9 	EQU 	1
DECTOBCD 	EQU 	39
DELAYTEMP 	EQU 	0
DELAYTEMP2 	EQU 	1
DELAYUS1 	EQU 	3264
DELAYUS10 	EQU 	3704
DELAYUS11 	EQU 	3506
DELAYUS12 	EQU 	3530
DELAYUS13 	EQU 	3546
DELAYUS14 	EQU 	3558
DELAYUS15 	EQU 	3570
DELAYUS16 	EQU 	3582
DELAYUS17 	EQU 	3614
DELAYUS18 	EQU 	3626
DELAYUS19 	EQU 	3404
DELAYUS2 	EQU 	3274
DELAYUS20 	EQU 	3426
DELAYUS21 	EQU 	3438
DELAYUS22 	EQU 	3464
DELAYUS23 	EQU 	3478
DELAYUS24 	EQU 	3490
DELAYUS3 	EQU 	3284
DELAYUS4 	EQU 	3150
DELAYUS5 	EQU 	3208
DELAYUS6 	EQU 	3650
DELAYUS7 	EQU 	3662
DELAYUS8 	EQU 	3684
DELAYUS9 	EQU 	3694
DELAY_MS 	EQU 	1514
DELAY_S 	EQU 	1542
DGO 	EQU 	5
DIV8NOTNEG 	EQU 	4246
DLEN0 	EQU 	4
DLEN1 	EQU 	5
DLEN2 	EQU 	6
DLEN3 	EQU 	7
DMA1AIE 	EQU 	3
DMA1AIF 	EQU 	3
DMA1AIP 	EQU 	3
DMA1AIRQ 	EQU 	15358
DMA1AIRQ0 	EQU 	0
DMA1AIRQ1 	EQU 	1
DMA1AIRQ2 	EQU 	2
DMA1AIRQ3 	EQU 	3
DMA1AIRQ4 	EQU 	4
DMA1AIRQ5 	EQU 	5
DMA1AIRQ6 	EQU 	6
DMA1AIRQEN 	EQU 	2
DMA1BUF 	EQU 	15337
DMA1BUF0 	EQU 	0
DMA1BUF1 	EQU 	1
DMA1BUF2 	EQU 	2
DMA1BUF3 	EQU 	3
DMA1BUF4 	EQU 	4
DMA1BUF5 	EQU 	5
DMA1BUF6 	EQU 	6
DMA1BUF7 	EQU 	7
DMA1CON0 	EQU 	15356
DMA1CON1 	EQU 	15357
DMA1DCNT 	EQU 	15338
DMA1DCNT0 	EQU 	0
DMA1DCNT1 	EQU 	1
DMA1DCNT10 	EQU 	2
DMA1DCNT11 	EQU 	3
DMA1DCNT2 	EQU 	2
DMA1DCNT3 	EQU 	3
DMA1DCNT4 	EQU 	4
DMA1DCNT5 	EQU 	5
DMA1DCNT6 	EQU 	6
DMA1DCNT7 	EQU 	7
DMA1DCNT8 	EQU 	0
DMA1DCNT9 	EQU 	1
DMA1DCNTH 	EQU 	15339
DMA1DCNTIE 	EQU 	1
DMA1DCNTIF 	EQU 	1
DMA1DCNTIP 	EQU 	1
DMA1DCNTL 	EQU 	15338
DMA1DGO 	EQU 	5
DMA1DPTR 	EQU 	15340
DMA1DPTR0 	EQU 	0
DMA1DPTR1 	EQU 	1
DMA1DPTR10 	EQU 	2
DMA1DPTR11 	EQU 	3
DMA1DPTR12 	EQU 	4
DMA1DPTR13 	EQU 	5
DMA1DPTR14 	EQU 	6
DMA1DPTR15 	EQU 	7
DMA1DPTR2 	EQU 	2
DMA1DPTR3 	EQU 	3
DMA1DPTR4 	EQU 	4
DMA1DPTR5 	EQU 	5
DMA1DPTR6 	EQU 	6
DMA1DPTR7 	EQU 	7
DMA1DPTR8 	EQU 	0
DMA1DPTR9 	EQU 	1
DMA1DPTRH 	EQU 	15341
DMA1DPTRL 	EQU 	15340
DMA1DSA 	EQU 	15344
DMA1DSA0 	EQU 	0
DMA1DSA1 	EQU 	1
DMA1DSA10 	EQU 	2
DMA1DSA11 	EQU 	3
DMA1DSA12 	EQU 	4
DMA1DSA13 	EQU 	5
DMA1DSA14 	EQU 	6
DMA1DSA15 	EQU 	7
DMA1DSA2 	EQU 	2
DMA1DSA3 	EQU 	3
DMA1DSA4 	EQU 	4
DMA1DSA5 	EQU 	5
DMA1DSA6 	EQU 	6
DMA1DSA7 	EQU 	7
DMA1DSA8 	EQU 	0
DMA1DSA9 	EQU 	1
DMA1DSAH 	EQU 	15345
DMA1DSAL 	EQU 	15344
DMA1DSZ 	EQU 	15342
DMA1DSZ0 	EQU 	0
DMA1DSZ1 	EQU 	1
DMA1DSZ10 	EQU 	2
DMA1DSZ11 	EQU 	3
DMA1DSZ2 	EQU 	2
DMA1DSZ3 	EQU 	3
DMA1DSZ4 	EQU 	4
DMA1DSZ5 	EQU 	5
DMA1DSZ6 	EQU 	6
DMA1DSZ7 	EQU 	7
DMA1DSZ8 	EQU 	0
DMA1DSZ9 	EQU 	1
DMA1DSZH 	EQU 	15343
DMA1DSZL 	EQU 	15342
DMA1EN 	EQU 	7
DMA1MD 	EQU 	0
DMA1ORIE 	EQU 	2
DMA1ORIF 	EQU 	2
DMA1ORIP 	EQU 	2
DMA1PR 	EQU 	14835
DMA1PR0 	EQU 	0
DMA1PR1 	EQU 	1
DMA1PR2 	EQU 	2
DMA1SCNT 	EQU 	15346
DMA1SCNT0 	EQU 	0
DMA1SCNT1 	EQU 	1
DMA1SCNT10 	EQU 	2
DMA1SCNT11 	EQU 	3
DMA1SCNT2 	EQU 	2
DMA1SCNT3 	EQU 	3
DMA1SCNT4 	EQU 	4
DMA1SCNT5 	EQU 	5
DMA1SCNT6 	EQU 	6
DMA1SCNT7 	EQU 	7
DMA1SCNT8 	EQU 	0
DMA1SCNT9 	EQU 	1
DMA1SCNTH 	EQU 	15347
DMA1SCNTIE 	EQU 	0
DMA1SCNTIF 	EQU 	0
DMA1SCNTIP 	EQU 	0
DMA1SCNTL 	EQU 	15346
DMA1SIRQ 	EQU 	15359
DMA1SIRQ0 	EQU 	0
DMA1SIRQ1 	EQU 	1
DMA1SIRQ2 	EQU 	2
DMA1SIRQ3 	EQU 	3
DMA1SIRQ4 	EQU 	4
DMA1SIRQ5 	EQU 	5
DMA1SIRQ6 	EQU 	6
DMA1SIRQEN 	EQU 	6
DMA1SPTR 	EQU 	15348
DMA1SPTR0 	EQU 	0
DMA1SPTR1 	EQU 	1
DMA1SPTR10 	EQU 	2
DMA1SPTR11 	EQU 	3
DMA1SPTR12 	EQU 	4
DMA1SPTR13 	EQU 	5
DMA1SPTR14 	EQU 	6
DMA1SPTR15 	EQU 	7
DMA1SPTR16 	EQU 	0
DMA1SPTR17 	EQU 	1
DMA1SPTR18 	EQU 	2
DMA1SPTR19 	EQU 	3
DMA1SPTR2 	EQU 	2
DMA1SPTR20 	EQU 	4
DMA1SPTR21 	EQU 	5
DMA1SPTR3 	EQU 	3
DMA1SPTR4 	EQU 	4
DMA1SPTR5 	EQU 	5
DMA1SPTR6 	EQU 	6
DMA1SPTR7 	EQU 	7
DMA1SPTR8 	EQU 	0
DMA1SPTR9 	EQU 	1
DMA1SPTRH 	EQU 	15349
DMA1SPTRL 	EQU 	15348
DMA1SPTRU 	EQU 	15350
DMA1SSA 	EQU 	15353
DMA1SSA0 	EQU 	0
DMA1SSA1 	EQU 	1
DMA1SSA10 	EQU 	2
DMA1SSA11 	EQU 	3
DMA1SSA12 	EQU 	4
DMA1SSA13 	EQU 	5
DMA1SSA14 	EQU 	6
DMA1SSA15 	EQU 	7
DMA1SSA16 	EQU 	0
DMA1SSA17 	EQU 	1
DMA1SSA18 	EQU 	2
DMA1SSA19 	EQU 	3
DMA1SSA2 	EQU 	2
DMA1SSA20 	EQU 	4
DMA1SSA21 	EQU 	5
DMA1SSA3 	EQU 	3
DMA1SSA4 	EQU 	4
DMA1SSA5 	EQU 	5
DMA1SSA6 	EQU 	6
DMA1SSA7 	EQU 	7
DMA1SSA8 	EQU 	0
DMA1SSA9 	EQU 	1
DMA1SSAH 	EQU 	15354
DMA1SSAL 	EQU 	15353
DMA1SSAL_SSA0 	EQU 	0
DMA1SSAL_SSA1 	EQU 	1
DMA1SSAL_SSA2 	EQU 	2
DMA1SSAL_SSA3 	EQU 	3
DMA1SSAL_SSA4 	EQU 	4
DMA1SSAL_SSA5 	EQU 	5
DMA1SSAL_SSA6 	EQU 	6
DMA1SSAL_SSA7 	EQU 	7
DMA1SSAU 	EQU 	15355
DMA1SSZ 	EQU 	15351
DMA1SSZ0 	EQU 	0
DMA1SSZ1 	EQU 	1
DMA1SSZ10 	EQU 	2
DMA1SSZ11 	EQU 	3
DMA1SSZ2 	EQU 	2
DMA1SSZ3 	EQU 	3
DMA1SSZ4 	EQU 	4
DMA1SSZ5 	EQU 	5
DMA1SSZ6 	EQU 	6
DMA1SSZ7 	EQU 	7
DMA1SSZ8 	EQU 	0
DMA1SSZ9 	EQU 	1
DMA1SSZH 	EQU 	15352
DMA1SSZL 	EQU 	15351
DMA1XIP 	EQU 	0
DMA2AIE 	EQU 	5
DMA2AIF 	EQU 	5
DMA2AIP 	EQU 	5
DMA2AIRQ 	EQU 	15326
DMA2AIRQ0 	EQU 	0
DMA2AIRQ1 	EQU 	1
DMA2AIRQ2 	EQU 	2
DMA2AIRQ3 	EQU 	3
DMA2AIRQ4 	EQU 	4
DMA2AIRQ5 	EQU 	5
DMA2AIRQ6 	EQU 	6
DMA2AIRQEN 	EQU 	2
DMA2AIRQ_AIRQ0 	EQU 	0
DMA2AIRQ_AIRQ1 	EQU 	1
DMA2AIRQ_AIRQ2 	EQU 	2
DMA2AIRQ_AIRQ3 	EQU 	3
DMA2AIRQ_AIRQ4 	EQU 	4
DMA2AIRQ_AIRQ5 	EQU 	5
DMA2AIRQ_AIRQ6 	EQU 	6
DMA2BUF 	EQU 	15305
DMA2BUF0 	EQU 	0
DMA2BUF1 	EQU 	1
DMA2BUF2 	EQU 	2
DMA2BUF3 	EQU 	3
DMA2BUF4 	EQU 	4
DMA2BUF5 	EQU 	5
DMA2BUF6 	EQU 	6
DMA2BUF7 	EQU 	7
DMA2BUF_BUF0 	EQU 	0
DMA2BUF_BUF1 	EQU 	1
DMA2BUF_BUF2 	EQU 	2
DMA2BUF_BUF3 	EQU 	3
DMA2BUF_BUF4 	EQU 	4
DMA2BUF_BUF5 	EQU 	5
DMA2BUF_BUF6 	EQU 	6
DMA2BUF_BUF7 	EQU 	7
DMA2CON0 	EQU 	15324
DMA2CON0_AIRQEN 	EQU 	2
DMA2CON0_DGO 	EQU 	5
DMA2CON0_EN 	EQU 	7
DMA2CON0_SIRQEN 	EQU 	6
DMA2CON0_XIP 	EQU 	0
DMA2CON1 	EQU 	15325
DMA2CON1_DSTP 	EQU 	5
DMA2CON1_SSTP 	EQU 	0
DMA2DCNT 	EQU 	15306
DMA2DCNT0 	EQU 	0
DMA2DCNT1 	EQU 	1
DMA2DCNT10 	EQU 	2
DMA2DCNT11 	EQU 	3
DMA2DCNT2 	EQU 	2
DMA2DCNT3 	EQU 	3
DMA2DCNT4 	EQU 	4
DMA2DCNT5 	EQU 	5
DMA2DCNT6 	EQU 	6
DMA2DCNT7 	EQU 	7
DMA2DCNT8 	EQU 	0
DMA2DCNT9 	EQU 	1
DMA2DCNTH 	EQU 	15307
DMA2DCNTH_DCNT10 	EQU 	2
DMA2DCNTH_DCNT11 	EQU 	3
DMA2DCNTH_DCNT8 	EQU 	0
DMA2DCNTH_DCNT9 	EQU 	1
DMA2DCNTIE 	EQU 	3
DMA2DCNTIF 	EQU 	3
DMA2DCNTIP 	EQU 	3
DMA2DCNTL 	EQU 	15306
DMA2DCNTL_DCNT0 	EQU 	0
DMA2DCNTL_DCNT1 	EQU 	1
DMA2DCNTL_DCNT2 	EQU 	2
DMA2DCNTL_DCNT3 	EQU 	3
DMA2DCNTL_DCNT4 	EQU 	4
DMA2DCNTL_DCNT5 	EQU 	5
DMA2DCNTL_DCNT6 	EQU 	6
DMA2DCNTL_DCNT7 	EQU 	7
DMA2DGO 	EQU 	5
DMA2DPTR 	EQU 	15308
DMA2DPTR0 	EQU 	0
DMA2DPTR1 	EQU 	1
DMA2DPTR10 	EQU 	2
DMA2DPTR11 	EQU 	3
DMA2DPTR12 	EQU 	4
DMA2DPTR13 	EQU 	5
DMA2DPTR14 	EQU 	6
DMA2DPTR15 	EQU 	7
DMA2DPTR2 	EQU 	2
DMA2DPTR3 	EQU 	3
DMA2DPTR4 	EQU 	4
DMA2DPTR5 	EQU 	5
DMA2DPTR6 	EQU 	6
DMA2DPTR7 	EQU 	7
DMA2DPTR8 	EQU 	0
DMA2DPTR9 	EQU 	1
DMA2DPTRH 	EQU 	15309
DMA2DPTRH_DPTR10 	EQU 	2
DMA2DPTRH_DPTR11 	EQU 	3
DMA2DPTRH_DPTR12 	EQU 	4
DMA2DPTRH_DPTR13 	EQU 	5
DMA2DPTRH_DPTR14 	EQU 	6
DMA2DPTRH_DPTR15 	EQU 	7
DMA2DPTRH_DPTR8 	EQU 	0
DMA2DPTRH_DPTR9 	EQU 	1
DMA2DPTRL 	EQU 	15308
DMA2DPTRL_DPTR0 	EQU 	0
DMA2DPTRL_DPTR1 	EQU 	1
DMA2DPTRL_DPTR2 	EQU 	2
DMA2DPTRL_DPTR3 	EQU 	3
DMA2DPTRL_DPTR4 	EQU 	4
DMA2DPTRL_DPTR5 	EQU 	5
DMA2DPTRL_DPTR6 	EQU 	6
DMA2DPTRL_DPTR7 	EQU 	7
DMA2DSA 	EQU 	15312
DMA2DSA0 	EQU 	0
DMA2DSA1 	EQU 	1
DMA2DSA10 	EQU 	2
DMA2DSA11 	EQU 	3
DMA2DSA12 	EQU 	4
DMA2DSA13 	EQU 	5
DMA2DSA14 	EQU 	6
DMA2DSA15 	EQU 	7
DMA2DSA2 	EQU 	2
DMA2DSA3 	EQU 	3
DMA2DSA4 	EQU 	4
DMA2DSA5 	EQU 	5
DMA2DSA6 	EQU 	6
DMA2DSA7 	EQU 	7
DMA2DSA8 	EQU 	0
DMA2DSA9 	EQU 	1
DMA2DSAH 	EQU 	15313
DMA2DSAH_DSA10 	EQU 	2
DMA2DSAH_DSA11 	EQU 	3
DMA2DSAH_DSA12 	EQU 	4
DMA2DSAH_DSA13 	EQU 	5
DMA2DSAH_DSA14 	EQU 	6
DMA2DSAH_DSA15 	EQU 	7
DMA2DSAH_DSA8 	EQU 	0
DMA2DSAH_DSA9 	EQU 	1
DMA2DSAL 	EQU 	15312
DMA2DSAL_SSA0 	EQU 	0
DMA2DSAL_SSA1 	EQU 	1
DMA2DSAL_SSA2 	EQU 	2
DMA2DSAL_SSA3 	EQU 	3
DMA2DSAL_SSA4 	EQU 	4
DMA2DSAL_SSA5 	EQU 	5
DMA2DSAL_SSA6 	EQU 	6
DMA2DSAL_SSA7 	EQU 	7
DMA2DSZ 	EQU 	15310
DMA2DSZ0 	EQU 	0
DMA2DSZ1 	EQU 	1
DMA2DSZ10 	EQU 	2
DMA2DSZ11 	EQU 	3
DMA2DSZ2 	EQU 	2
DMA2DSZ3 	EQU 	3
DMA2DSZ4 	EQU 	4
DMA2DSZ5 	EQU 	5
DMA2DSZ6 	EQU 	6
DMA2DSZ7 	EQU 	7
DMA2DSZ8 	EQU 	0
DMA2DSZ9 	EQU 	1
DMA2DSZH 	EQU 	15311
DMA2DSZH_DSZ10 	EQU 	2
DMA2DSZH_DSZ11 	EQU 	3
DMA2DSZH_DSZ8 	EQU 	0
DMA2DSZH_DSZ9 	EQU 	1
DMA2DSZL 	EQU 	15310
DMA2DSZL_DSZ0 	EQU 	0
DMA2DSZL_DSZ1 	EQU 	1
DMA2DSZL_DSZ2 	EQU 	2
DMA2DSZL_DSZ3 	EQU 	3
DMA2DSZL_DSZ4 	EQU 	4
DMA2DSZL_DSZ5 	EQU 	5
DMA2DSZL_DSZ6 	EQU 	6
DMA2DSZL_DSZ7 	EQU 	7
DMA2EN 	EQU 	7
DMA2MD 	EQU 	1
DMA2ORIE 	EQU 	4
DMA2ORIF 	EQU 	4
DMA2ORIP 	EQU 	4
DMA2PR 	EQU 	14836
DMA2PR0 	EQU 	0
DMA2PR1 	EQU 	1
DMA2PR2 	EQU 	2
DMA2PR_PR1 	EQU 	1
DMA2SCNT 	EQU 	15314
DMA2SCNT0 	EQU 	0
DMA2SCNT1 	EQU 	1
DMA2SCNT10 	EQU 	2
DMA2SCNT11 	EQU 	3
DMA2SCNT2 	EQU 	2
DMA2SCNT3 	EQU 	3
DMA2SCNT4 	EQU 	4
DMA2SCNT5 	EQU 	5
DMA2SCNT6 	EQU 	6
DMA2SCNT7 	EQU 	7
DMA2SCNT8 	EQU 	0
DMA2SCNT9 	EQU 	1
DMA2SCNTH 	EQU 	15315
DMA2SCNTH_SCNT10 	EQU 	2
DMA2SCNTH_SCNT11 	EQU 	3
DMA2SCNTH_SCNT8 	EQU 	0
DMA2SCNTH_SCNT9 	EQU 	1
DMA2SCNTIE 	EQU 	2
DMA2SCNTIF 	EQU 	2
DMA2SCNTIP 	EQU 	2
DMA2SCNTL 	EQU 	15314
DMA2SCNTL_SCNT0 	EQU 	0
DMA2SCNTL_SCNT1 	EQU 	1
DMA2SCNTL_SCNT2 	EQU 	2
DMA2SCNTL_SCNT3 	EQU 	3
DMA2SCNTL_SCNT4 	EQU 	4
DMA2SCNTL_SCNT5 	EQU 	5
DMA2SCNTL_SCNT6 	EQU 	6
DMA2SCNTL_SCNT7 	EQU 	7
DMA2SIRQ 	EQU 	15327
DMA2SIRQ0 	EQU 	0
DMA2SIRQ1 	EQU 	1
DMA2SIRQ2 	EQU 	2
DMA2SIRQ3 	EQU 	3
DMA2SIRQ4 	EQU 	4
DMA2SIRQ5 	EQU 	5
DMA2SIRQ6 	EQU 	6
DMA2SIRQEN 	EQU 	6
DMA2SIRQ_SIRQ0 	EQU 	0
DMA2SIRQ_SIRQ1 	EQU 	1
DMA2SIRQ_SIRQ2 	EQU 	2
DMA2SIRQ_SIRQ3 	EQU 	3
DMA2SIRQ_SIRQ4 	EQU 	4
DMA2SIRQ_SIRQ5 	EQU 	5
DMA2SIRQ_SIRQ6 	EQU 	6
DMA2SPTR 	EQU 	15316
DMA2SPTR0 	EQU 	0
DMA2SPTR1 	EQU 	1
DMA2SPTR10 	EQU 	2
DMA2SPTR11 	EQU 	3
DMA2SPTR12 	EQU 	4
DMA2SPTR13 	EQU 	5
DMA2SPTR14 	EQU 	6
DMA2SPTR15 	EQU 	7
DMA2SPTR16 	EQU 	0
DMA2SPTR17 	EQU 	1
DMA2SPTR18 	EQU 	2
DMA2SPTR19 	EQU 	3
DMA2SPTR2 	EQU 	2
DMA2SPTR20 	EQU 	4
DMA2SPTR21 	EQU 	5
DMA2SPTR3 	EQU 	3
DMA2SPTR4 	EQU 	4
DMA2SPTR5 	EQU 	5
DMA2SPTR6 	EQU 	6
DMA2SPTR7 	EQU 	7
DMA2SPTR8 	EQU 	0
DMA2SPTR9 	EQU 	1
DMA2SPTRH 	EQU 	15317
DMA2SPTRH_SPTR10 	EQU 	2
DMA2SPTRH_SPTR11 	EQU 	3
DMA2SPTRH_SPTR12 	EQU 	4
DMA2SPTRH_SPTR13 	EQU 	5
DMA2SPTRH_SPTR14 	EQU 	6
DMA2SPTRH_SPTR15 	EQU 	7
DMA2SPTRH_SPTR8 	EQU 	0
DMA2SPTRH_SPTR9 	EQU 	1
DMA2SPTRL 	EQU 	15316
DMA2SPTRL_SPTR0 	EQU 	0
DMA2SPTRL_SPTR1 	EQU 	1
DMA2SPTRL_SPTR2 	EQU 	2
DMA2SPTRL_SPTR3 	EQU 	3
DMA2SPTRL_SPTR4 	EQU 	4
DMA2SPTRL_SPTR5 	EQU 	5
DMA2SPTRL_SPTR6 	EQU 	6
DMA2SPTRL_SPTR7 	EQU 	7
DMA2SPTRU 	EQU 	15318
DMA2SPTRU_SPTR16 	EQU 	0
DMA2SPTRU_SPTR17 	EQU 	1
DMA2SPTRU_SPTR18 	EQU 	2
DMA2SPTRU_SPTR19 	EQU 	3
DMA2SPTRU_SPTR20 	EQU 	4
DMA2SPTRU_SPTR21 	EQU 	5
DMA2SSA 	EQU 	15321
DMA2SSA0 	EQU 	0
DMA2SSA1 	EQU 	1
DMA2SSA10 	EQU 	2
DMA2SSA11 	EQU 	3
DMA2SSA12 	EQU 	4
DMA2SSA13 	EQU 	5
DMA2SSA14 	EQU 	6
DMA2SSA15 	EQU 	7
DMA2SSA16 	EQU 	0
DMA2SSA17 	EQU 	1
DMA2SSA18 	EQU 	2
DMA2SSA19 	EQU 	3
DMA2SSA2 	EQU 	2
DMA2SSA20 	EQU 	4
DMA2SSA21 	EQU 	5
DMA2SSA3 	EQU 	3
DMA2SSA4 	EQU 	4
DMA2SSA5 	EQU 	5
DMA2SSA6 	EQU 	6
DMA2SSA7 	EQU 	7
DMA2SSA8 	EQU 	0
DMA2SSA9 	EQU 	1
DMA2SSAH 	EQU 	15322
DMA2SSAH_SSA10 	EQU 	2
DMA2SSAH_SSA11 	EQU 	3
DMA2SSAH_SSA12 	EQU 	4
DMA2SSAH_SSA13 	EQU 	5
DMA2SSAH_SSA14 	EQU 	6
DMA2SSAH_SSA15 	EQU 	7
DMA2SSAH_SSA8 	EQU 	0
DMA2SSAH_SSA9 	EQU 	1
DMA2SSAL 	EQU 	15321
DMA2SSAL_SSA0 	EQU 	0
DMA2SSAL_SSA1 	EQU 	1
DMA2SSAL_SSA2 	EQU 	2
DMA2SSAL_SSA3 	EQU 	3
DMA2SSAL_SSA4 	EQU 	4
DMA2SSAL_SSA5 	EQU 	5
DMA2SSAL_SSA6 	EQU 	6
DMA2SSAL_SSA7 	EQU 	7
DMA2SSAU 	EQU 	15323
DMA2SSAU_SSA16 	EQU 	0
DMA2SSAU_SSA17 	EQU 	1
DMA2SSAU_SSA18 	EQU 	2
DMA2SSAU_SSA19 	EQU 	3
DMA2SSAU_SSA20 	EQU 	4
DMA2SSAU_SSA21 	EQU 	5
DMA2SSZ 	EQU 	15319
DMA2SSZ0 	EQU 	0
DMA2SSZ1 	EQU 	1
DMA2SSZ10 	EQU 	2
DMA2SSZ11 	EQU 	3
DMA2SSZ2 	EQU 	2
DMA2SSZ3 	EQU 	3
DMA2SSZ4 	EQU 	4
DMA2SSZ5 	EQU 	5
DMA2SSZ6 	EQU 	6
DMA2SSZ7 	EQU 	7
DMA2SSZ8 	EQU 	0
DMA2SSZ9 	EQU 	1
DMA2SSZH 	EQU 	15320
DMA2SSZH_SSZ10 	EQU 	2
DMA2SSZH_SSZ11 	EQU 	3
DMA2SSZH_SSZ8 	EQU 	0
DMA2SSZH_SSZ9 	EQU 	1
DMA2SSZL 	EQU 	15319
DMA2SSZL_SSZ0 	EQU 	0
DMA2SSZL_SSZ1 	EQU 	1
DMA2SSZL_SSZ2 	EQU 	2
DMA2SSZL_SSZ3 	EQU 	3
DMA2SSZL_SSZ4 	EQU 	4
DMA2SSZL_SSZ5 	EQU 	5
DMA2SSZL_SSZ6 	EQU 	6
DMA2SSZL_SSZ7 	EQU 	7
DMA2XIP 	EQU 	0
DMS_INNER 	EQU 	1524
DMS_OUTER 	EQU 	1520
DMS_START 	EQU 	1516
DOE 	EQU 	4
DONE 	EQU 	0
DOW 	EQU 	40
DOZE0 	EQU 	0
DOZE1 	EQU 	1
DOZE2 	EQU 	2
DOZEN 	EQU 	6
DPTR0 	EQU 	0
DPTR1 	EQU 	1
DPTR10 	EQU 	2
DPTR11 	EQU 	3
DPTR12 	EQU 	4
DPTR13 	EQU 	5
DPTR14 	EQU 	6
DPTR15 	EQU 	7
DPTR2 	EQU 	2
DPTR3 	EQU 	3
DPTR4 	EQU 	4
DPTR5 	EQU 	5
DPTR6 	EQU 	6
DPTR7 	EQU 	7
DPTR8 	EQU 	0
DPTR9 	EQU 	1
DS1307_ENABLE 	EQU 	860
DS1307_READDATE 	EQU 	942
DS1307_READHOURMODE 	EQU 	1058
DS1307_SETHOURMODE 	EQU 	1120
DS3231_ENABLESQW 	EQU 	1298
DS3231_SETSQW 	EQU 	1384
DSA10 	EQU 	2
DSA11 	EQU 	3
DSA12 	EQU 	4
DSA13 	EQU 	5
DSA14 	EQU 	6
DSA15 	EQU 	7
DSA8 	EQU 	0
DSA9 	EQU 	1
DSEN 	EQU 	0
DSMMD 	EQU 	0
DSTP 	EQU 	5
DSZ0 	EQU 	0
DSZ1 	EQU 	1
DSZ10 	EQU 	2
DSZ11 	EQU 	3
DSZ2 	EQU 	2
DSZ3 	EQU 	3
DSZ4 	EQU 	4
DSZ5 	EQU 	5
DSZ6 	EQU 	6
DSZ7 	EQU 	7
DSZ8 	EQU 	0
DSZ9 	EQU 	1
DS_A_P 	EQU 	41
DS_DATE 	EQU 	42
DS_DOW 	EQU 	43
DS_HOUR 	EQU 	44
DS_MONTH 	EQU 	45
DS_SEC 	EQU 	46
DS_START 	EQU 	1542
DS_STATUS 	EQU 	47
DS_VALUE 	EQU 	48
DS_YEAR 	EQU 	49
ELSE11_1 	EQU 	1210
ELSE13_1 	EQU 	1114
ELSE23_1 	EQU 	2632
ELSE33_1 	EQU 	4082
ELSE34_1 	EQU 	4116
ELSE4_1 	EQU 	588
ELSE4_2 	EQU 	668
ELSE57_1 	EQU 	3522
ELSE58_1 	EQU 	3602
ELSE60_1 	EQU 	3458
ELSE7_1 	EQU 	910
ELSE8_1 	EQU 	1224
EN 	EQU 	7
ENDIF1 	EQU 	182
ENDIF10 	EQU 	1266
ENDIF11 	EQU 	1220
ENDIF12 	EQU 	1256
ENDIF13 	EQU 	1118
ENDIF19 	EQU 	2412
ENDIF2 	EQU 	466
ENDIF20 	EQU 	2466
ENDIF23 	EQU 	2666
ENDIF3 	EQU 	762
ENDIF31 	EQU 	4002
ENDIF32 	EQU 	4014
ENDIF33 	EQU 	4088
ENDIF34 	EQU 	4122
ENDIF35 	EQU 	4148
ENDIF4 	EQU 	746
ENDIF49 	EQU 	4332
ENDIF5 	EQU 	3956
ENDIF50 	EQU 	4394
ENDIF51 	EQU 	3354
ENDIF57 	EQU 	3526
ENDIF58 	EQU 	3606
ENDIF6 	EQU 	3990
ENDIF60 	EQU 	3460
ENDIF7 	EQU 	912
ENDIF8 	EQU 	1266
ENDIF9 	EQU 	1222
EOSIE 	EQU 	4
EOSIF 	EQU 	4
ERR0 	EQU 	0
ERR1 	EQU 	1
ERR10 	EQU 	2
ERR11 	EQU 	3
ERR12 	EQU 	4
ERR13 	EQU 	5
ERR14 	EQU 	6
ERR15 	EQU 	7
ERR2 	EQU 	2
ERR3 	EQU 	3
ERR4 	EQU 	4
ERR5 	EQU 	5
ERR6 	EQU 	6
ERR7 	EQU 	7
ERR8 	EQU 	0
ERR9 	EQU 	1
EXTOEN 	EQU 	7
EXTOR 	EQU 	7
F 	EQU 	1
FERIE 	EQU 	3
FERIF 	EQU 	3
FLO0 	EQU 	0
FLO1 	EQU 	1
FLTR0 	EQU 	0
FLTR1 	EQU 	1
FLTR10 	EQU 	2
FLTR11 	EQU 	3
FLTR12 	EQU 	4
FLTR13 	EQU 	5
FLTR14 	EQU 	6
FLTR15 	EQU 	7
FLTR2 	EQU 	2
FLTR3 	EQU 	3
FLTR4 	EQU 	4
FLTR5 	EQU 	5
FLTR6 	EQU 	6
FLTR7 	EQU 	7
FLTR8 	EQU 	0
FLTR9 	EQU 	1
FM0 	EQU 	2
FME 	EQU 	5
FMT 	EQU 	4
FN_BCDTODEC4 	EQU 	768
FN_DECTOBCD3 	EQU 	814
FN_GLCDREADBYTE_KS0108 	EQU 	3126
FREE 	EQU 	4
FRQ0 	EQU 	0
FRQ1 	EQU 	1
FRQ2 	EQU 	2
FRQ3 	EQU 	3
FSR0H 	EQU 	16362
FSR0H_SHAD 	EQU 	14474
FSR0L 	EQU 	16361
FSR0L_SHAD 	EQU 	14473
FSR0SH 	EQU 	14473
FSR1H 	EQU 	16354
FSR1H_SHAD 	EQU 	14476
FSR1L 	EQU 	16353
FSR1L_SHAD 	EQU 	14475
FSR1SH 	EQU 	14475
FSR2H 	EQU 	16346
FSR2H_SHAD 	EQU 	14478
FSR2L 	EQU 	16345
FSR2L_SHAD 	EQU 	14477
FSR2SH 	EQU 	14477
FST 	EQU 	4
FULL 	EQU 	0
FVRCON 	EQU 	16065
FVRCON_EN 	EQU 	7
FVREN 	EQU 	7
FVRMD 	EQU 	6
FVRRDY 	EQU 	6
G1D1N 	EQU 	0
G1D1T 	EQU 	1
G1D2N 	EQU 	2
G1D2T 	EQU 	3
G1D3N 	EQU 	4
G1D3T 	EQU 	5
G1D4N 	EQU 	6
G1D4T 	EQU 	7
G1EN 	EQU 	7
G1POL 	EQU 	0
G2D1N 	EQU 	0
G2D1T 	EQU 	1
G2D2N 	EQU 	2
G2D2T 	EQU 	3
G2D3N 	EQU 	4
G2D3T 	EQU 	5
G2D4N 	EQU 	6
G2D4T 	EQU 	7
G2EN 	EQU 	7
G2POL 	EQU 	1
G3D1N 	EQU 	0
G3D1T 	EQU 	1
G3D2N 	EQU 	2
G3D2T 	EQU 	3
G3D3N 	EQU 	4
G3D3T 	EQU 	5
G3D4N 	EQU 	6
G3D4T 	EQU 	7
G3EN 	EQU 	7
G3POL 	EQU 	2
G4D1N 	EQU 	0
G4D1T 	EQU 	1
G4D2N 	EQU 	2
G4D2T 	EQU 	3
G4D3N 	EQU 	4
G4D3T 	EQU 	5
G4D4N 	EQU 	6
G4D4T 	EQU 	7
G4POL 	EQU 	3
GCEN 	EQU 	6
GE 	EQU 	7
GGO 	EQU 	3
GIE 	EQU 	7
GIEH 	EQU 	7
GIEL 	EQU 	6
GLCDBACKGROUND 	EQU 	50
GLCDBACKGROUND_H 	EQU 	51
GLCDBITNO 	EQU 	52
GLCDCHANGE 	EQU 	53
GLCDCHARCOL3 	EQU 	1558
GLCDCHARCOL4 	EQU 	1706
GLCDCHARCOL5 	EQU 	1854
GLCDCHARCOL6 	EQU 	2002
GLCDCHARCOL7 	EQU 	2150
GLCDCLS_KS0108 	EQU 	2298
GLCDCOLOUR 	EQU 	54
GLCDCOLOUR_H 	EQU 	55
GLCDDATATEMP 	EQU 	56
GLCDDATATEMPCACHE 	EQU 	57
GLCDDRAWCHAR 	EQU 	2378
GLCDFNTDEFAULT 	EQU 	58
GLCDFNTDEFAULTHEIGHT 	EQU 	59
GLCDFNTDEFAULTSIZE 	EQU 	60
GLCDFONTWIDTH 	EQU 	61
GLCDFOREGROUND 	EQU 	62
GLCDFOREGROUND_H 	EQU 	63
GLCDPRINT65 	EQU 	2770
GLCDPRINT68 	EQU 	2910
GLCDPRINTLEN 	EQU 	64
GLCDPRINTLOC 	EQU 	65
GLCDPRINTLOC_H 	EQU 	66
GLCDPRINT_STRING_COUNTER 	EQU 	67
GLCDREADBYTE_KS0108 	EQU 	68
GLCDWRITEBYTE_KS0108 	EQU 	3214
GLCDX 	EQU 	69
GLCDY 	EQU 	70
GLCD_COUNT 	EQU 	71
GLCD_YORDINATE 	EQU 	72
GLCD_YORDINATE_H 	EQU 	73
GO_ADCON0 	EQU 	0
GO_DONE 	EQU 	0
GO_NOT_DONE 	EQU 	0
GO_SMT1CON1 	EQU 	7
GPOL_ADCON1 	EQU 	5
GPOL_T1GCON 	EQU 	6
GPOL_T3GCON 	EQU 	6
GPOL_T5GCON 	EQU 	6
GPOL_TMR1GCON 	EQU 	6
GPOL_TMR3GCON 	EQU 	6
GPOL_TMR5GCON 	EQU 	6
GSPM 	EQU 	4
GSS0 	EQU 	0
GSS1 	EQU 	1
GSS2 	EQU 	2
GSS3 	EQU 	3
GSS4 	EQU 	4
GTM 	EQU 	5
GVAL 	EQU 	2
HADR0 	EQU 	0
HADR1 	EQU 	1
HADR10 	EQU 	2
HADR11 	EQU 	3
HADR12 	EQU 	4
HADR13 	EQU 	5
HADR14 	EQU 	6
HADR15 	EQU 	7
HADR16 	EQU 	0
HADR17 	EQU 	1
HADR18 	EQU 	2
HADR19 	EQU 	3
HADR2 	EQU 	2
HADR20 	EQU 	4
HADR21 	EQU 	5
HADR3 	EQU 	3
HADR4 	EQU 	4
HADR5 	EQU 	5
HADR6 	EQU 	6
HADR7 	EQU 	7
HADR8 	EQU 	0
HADR9 	EQU 	1
HFFRQ0 	EQU 	0
HFFRQ1 	EQU 	1
HFFRQ2 	EQU 	2
HFFRQ3 	EQU 	3
HFOEN 	EQU 	6
HFOR 	EQU 	6
HFTUN0 	EQU 	0
HFTUN1 	EQU 	1
HFTUN2 	EQU 	2
HFTUN3 	EQU 	3
HFTUN4 	EQU 	4
HFTUN5 	EQU 	5
HLVDCON0 	EQU 	16073
HLVDCON0_EN 	EQU 	7
HLVDCON1 	EQU 	16074
HLVDEN 	EQU 	7
HLVDIE 	EQU 	1
HLVDIF 	EQU 	1
HLVDINTH 	EQU 	1
HLVDINTL 	EQU 	0
HLVDIP 	EQU 	1
HLVDMD 	EQU 	5
HLVDOUT 	EQU 	5
HLVDRDY 	EQU 	4
HLVDSEL0 	EQU 	0
HLVDSEL1 	EQU 	1
HLVDSEL2 	EQU 	2
HLVDSEL3 	EQU 	3
HSERPRINT483 	EQU 	3290
HSERSEND470 	EQU 	3356
HSERSEND471 	EQU 	3372
HSERSENDUSART1HANDLER 	EQU 	3372
HYS 	EQU 	1
I2C1ADB0 	EQU 	15725
I2C1ADB1 	EQU 	15726
I2C1ADR0 	EQU 	15727
I2C1ADR1 	EQU 	15728
I2C1ADR2 	EQU 	15729
I2C1ADR3 	EQU 	15730
I2C1BTO 	EQU 	15740
I2C1BTO_BTO0 	EQU 	0
I2C1BTO_BTO1 	EQU 	1
I2C1BTO_BTO2 	EQU 	2
I2C1BTO_I2CBTO0 	EQU 	0
I2C1BTO_I2CBTO1 	EQU 	1
I2C1BTO_I2CBTO2 	EQU 	2
I2C1CLK 	EQU 	15739
I2C1CLK_CLK0 	EQU 	0
I2C1CLK_CLK1 	EQU 	1
I2C1CLK_CLK2 	EQU 	2
I2C1CLK_CLK3 	EQU 	3
I2C1CLK_I2CCLK0 	EQU 	0
I2C1CLK_I2CCLK1 	EQU 	1
I2C1CLK_I2CCLK2 	EQU 	2
I2C1CLK_I2CCLK3 	EQU 	3
I2C1CNT 	EQU 	15724
I2C1CNT_CNT0 	EQU 	0
I2C1CNT_CNT1 	EQU 	1
I2C1CNT_CNT2 	EQU 	2
I2C1CNT_CNT3 	EQU 	3
I2C1CNT_CNT4 	EQU 	4
I2C1CNT_CNT5 	EQU 	5
I2C1CNT_CNT6 	EQU 	6
I2C1CNT_CNT7 	EQU 	7
I2C1CON0 	EQU 	15731
I2C1CON0_CSTR 	EQU 	4
I2C1CON0_EN 	EQU 	7
I2C1CON0_I2CEN 	EQU 	7
I2C1CON0_MDR 	EQU 	3
I2C1CON0_MODE0 	EQU 	0
I2C1CON0_MODE1 	EQU 	1
I2C1CON0_MODE2 	EQU 	2
I2C1CON0_RSEN 	EQU 	6
I2C1CON0_S 	EQU 	5
I2C1CON1 	EQU 	15732
I2C1CON1_ACKCNT 	EQU 	7
I2C1CON1_ACKDT 	EQU 	6
I2C1CON1_ACKSTAT 	EQU 	5
I2C1CON1_ACKT 	EQU 	4
I2C1CON1_CSD 	EQU 	0
I2C1CON1_RXO 	EQU 	2
I2C1CON1_TXU 	EQU 	1
I2C1CON2 	EQU 	15733
I2C1CON2_ABD 	EQU 	4
I2C1CON2_ACNT 	EQU 	7
I2C1CON2_BFRET0 	EQU 	0
I2C1CON2_BFRET1 	EQU 	1
I2C1CON2_FME 	EQU 	5
I2C1CON2_GCEN 	EQU 	6
I2C1CON2_SDAHT0 	EQU 	2
I2C1CON2_SDAHT1 	EQU 	3
I2C1EIE 	EQU 	2
I2C1EIF 	EQU 	2
I2C1EIP 	EQU 	2
I2C1ERR 	EQU 	15734
I2C1ERR_BCLIE 	EQU 	1
I2C1ERR_BCLIF 	EQU 	5
I2C1ERR_BTOIE 	EQU 	2
I2C1ERR_BTOIF 	EQU 	6
I2C1ERR_NACKIE 	EQU 	0
I2C1ERR_NACKIF 	EQU 	4
I2C1IE 	EQU 	1
I2C1IF 	EQU 	1
I2C1IP 	EQU 	1
I2C1MD 	EQU 	0
I2C1PIE 	EQU 	15738
I2C1PIE_ACKTIE 	EQU 	6
I2C1PIE_ADRIE 	EQU 	3
I2C1PIE_CNTIE 	EQU 	7
I2C1PIE_PCIE 	EQU 	2
I2C1PIE_RSCIE 	EQU 	1
I2C1PIE_SCIE 	EQU 	0
I2C1PIE_WRIE 	EQU 	4
I2C1PIR 	EQU 	15737
I2C1PIR_ACKTIF 	EQU 	6
I2C1PIR_ADRIF 	EQU 	3
I2C1PIR_CNTIF 	EQU 	7
I2C1PIR_PCIF 	EQU 	2
I2C1PIR_RSCIF 	EQU 	1
I2C1PIR_SCIF 	EQU 	0
I2C1PIR_WRIF 	EQU 	4
I2C1RXB 	EQU 	15722
I2C1RXIE 	EQU 	7
I2C1RXIF 	EQU 	7
I2C1RXIP 	EQU 	7
I2C1SCLPPS 	EQU 	15073
I2C1SDAPPS 	EQU 	15074
I2C1STAT0 	EQU 	15735
I2C1STAT0_BFRE 	EQU 	7
I2C1STAT0_D 	EQU 	3
I2C1STAT0_MMA 	EQU 	5
I2C1STAT0_NOT_A 	EQU 	3
I2C1STAT0_NOT_ADDRESS 	EQU 	3
I2C1STAT0_NOT_W 	EQU 	4
I2C1STAT0_NOT_WRITE 	EQU 	4
I2C1STAT0_R 	EQU 	4
I2C1STAT0_READ 	EQU 	4
I2C1STAT0_SMA 	EQU 	6
I2C1STAT1 	EQU 	15736
I2C1STAT1_CLRBF 	EQU 	2
I2C1STAT1_RXBF 	EQU 	0
I2C1STAT1_RXRE 	EQU 	3
I2C1STAT1_TXBE 	EQU 	5
I2C1STAT1_TXWE 	EQU 	7
I2C1TXB 	EQU 	15723
I2C1TXIE 	EQU 	0
I2C1TXIF 	EQU 	0
I2C1TXIP 	EQU 	0
I2C2ADB0 	EQU 	15703
I2C2ADB1 	EQU 	15704
I2C2ADR0 	EQU 	15705
I2C2ADR1 	EQU 	15706
I2C2ADR2 	EQU 	15707
I2C2ADR3 	EQU 	15708
I2C2BTO 	EQU 	15718
I2C2CLK 	EQU 	15717
I2C2CLK_CLK0 	EQU 	0
I2C2CLK_CLK1 	EQU 	1
I2C2CLK_CLK2 	EQU 	2
I2C2CLK_CLK3 	EQU 	3
I2C2CNT 	EQU 	15702
I2C2CON0 	EQU 	15709
I2C2CON0_EN 	EQU 	7
I2C2CON0_MODE0 	EQU 	0
I2C2CON0_MODE1 	EQU 	1
I2C2CON0_MODE2 	EQU 	2
I2C2CON1 	EQU 	15710
I2C2CON2 	EQU 	15711
I2C2EIE 	EQU 	1
I2C2EIF 	EQU 	1
I2C2EIP 	EQU 	1
I2C2ERR 	EQU 	15712
I2C2IE 	EQU 	0
I2C2IF 	EQU 	0
I2C2IP 	EQU 	0
I2C2MD 	EQU 	1
I2C2PIE 	EQU 	15716
I2C2PIR 	EQU 	15715
I2C2RXB 	EQU 	15700
I2C2RXIE 	EQU 	6
I2C2RXIF 	EQU 	6
I2C2RXIP 	EQU 	6
I2C2SCLPPS 	EQU 	15075
I2C2SDAPPS 	EQU 	15076
I2C2STAT0 	EQU 	15713
I2C2STAT1 	EQU 	15714
I2C2STAT1_CLRBF 	EQU 	2
I2C2STAT1_RXBF 	EQU 	0
I2C2STAT1_RXRE 	EQU 	3
I2C2STAT1_TXBE 	EQU 	5
I2C2STAT1_TXWE 	EQU 	7
I2C2TXB 	EQU 	15701
I2C2TXIE 	EQU 	7
I2C2TXIF 	EQU 	7
I2C2TXIP 	EQU 	7
I2CACK 	EQU 	74
I2CACKPOLLSTATE 	EQU 	75
I2CBTO0 	EQU 	0
I2CBTO1 	EQU 	1
I2CBTO2 	EQU 	2
I2CBYTE 	EQU 	76
I2CCLK0 	EQU 	0
I2CCLK1 	EQU 	1
I2CCLK2 	EQU 	2
I2CCLK3 	EQU 	3
I2CEN 	EQU 	7
I2CMATCH 	EQU 	77
I2CPU0 	EQU 	4
I2CPU1 	EQU 	5
I2CRECEIVE 	EQU 	3388
I2CRESTART 	EQU 	3496
I2CSEND 	EQU 	3498
I2CSLEW 	EQU 	6
I2CSTART 	EQU 	3634
I2CSTATE 	EQU 	78
I2CSTOP 	EQU 	3672
I2CTH0 	EQU 	0
I2CTH1 	EQU 	1
IDLEN 	EQU 	7
IN 	EQU 	5
INC0 	EQU 	0
INC1 	EQU 	1
INC10 	EQU 	2
INC11 	EQU 	3
INC12 	EQU 	4
INC13 	EQU 	5
INC14 	EQU 	6
INC15 	EQU 	7
INC16 	EQU 	0
INC17 	EQU 	1
INC18 	EQU 	2
INC19 	EQU 	3
INC2 	EQU 	2
INC20 	EQU 	4
INC21 	EQU 	5
INC22 	EQU 	6
INC23 	EQU 	7
INC3 	EQU 	3
INC4 	EQU 	4
INC5 	EQU 	5
INC6 	EQU 	6
INC7 	EQU 	7
INC8 	EQU 	0
INC9 	EQU 	1
INDF0 	EQU 	16367
INDF1 	EQU 	16359
INDF2 	EQU 	16351
INITGLCD_KS0108 	EQU 	3718
INITI2C 	EQU 	3802
INITPPS 	EQU 	3810
INITSYS 	EQU 	3822
INITUSART 	EQU 	3884
INLVLA 	EQU 	14916
INLVLA0 	EQU 	0
INLVLA1 	EQU 	1
INLVLA2 	EQU 	2
INLVLA3 	EQU 	3
INLVLA4 	EQU 	4
INLVLA5 	EQU 	5
INLVLA6 	EQU 	6
INLVLA7 	EQU 	7
INLVLB 	EQU 	14932
INLVLB0 	EQU 	0
INLVLB1 	EQU 	1
INLVLB2 	EQU 	2
INLVLB3 	EQU 	3
INLVLB4 	EQU 	4
INLVLB5 	EQU 	5
INLVLB6 	EQU 	6
INLVLB7 	EQU 	7
INLVLC 	EQU 	14948
INLVLC0 	EQU 	0
INLVLC1 	EQU 	1
INLVLC2 	EQU 	2
INLVLC3 	EQU 	3
INLVLC4 	EQU 	4
INLVLC5 	EQU 	5
INLVLC6 	EQU 	6
INLVLC7 	EQU 	7
INLVLD 	EQU 	14964
INLVLD0 	EQU 	0
INLVLD1 	EQU 	1
INLVLD2 	EQU 	2
INLVLD3 	EQU 	3
INLVLD4 	EQU 	4
INLVLD5 	EQU 	5
INLVLD6 	EQU 	6
INLVLD7 	EQU 	7
INLVLE 	EQU 	14980
INLVLE0 	EQU 	0
INLVLE1 	EQU 	1
INLVLE2 	EQU 	2
INLVLE3 	EQU 	3
INT0EDG 	EQU 	0
INT0IE 	EQU 	0
INT0IF 	EQU 	0
INT0IP 	EQU 	0
INT0PPS 	EQU 	15040
INT1EDG 	EQU 	1
INT1IE 	EQU 	0
INT1IF 	EQU 	0
INT1IP 	EQU 	0
INT1PPS 	EQU 	15041
INT2EDG 	EQU 	2
INT2IE 	EQU 	5
INT2IF 	EQU 	5
INT2IP 	EQU 	5
INT2PPS 	EQU 	15042
INTCON0 	EQU 	16338
INTCON1 	EQU 	16339
INTERRUPT 	EQU 	3910
INTERRUPTDONE 	EQU 	3930
INTH 	EQU 	1
INTL 	EQU 	0
INTN_CLC1CON 	EQU 	3
INTN_CLC2CON 	EQU 	3
INTN_CLC3CON 	EQU 	3
INTN_CLC4CON 	EQU 	3
INTN_CM1CON1 	EQU 	0
INTN_CM2CON1 	EQU 	0
INTN_ZCDCON 	EQU 	0
INTP_CLC1CON 	EQU 	4
INTP_CLC2CON 	EQU 	4
INTP_CLC3CON 	EQU 	4
INTP_CLC4CON 	EQU 	4
INTP_CM1CON1 	EQU 	1
INTP_CM2CON1 	EQU 	1
INTP_ZCDCON 	EQU 	1
IOCAF 	EQU 	14919
IOCAF0 	EQU 	0
IOCAF1 	EQU 	1
IOCAF2 	EQU 	2
IOCAF3 	EQU 	3
IOCAF4 	EQU 	4
IOCAF5 	EQU 	5
IOCAF6 	EQU 	6
IOCAF7 	EQU 	7
IOCAN 	EQU 	14918
IOCAN0 	EQU 	0
IOCAN1 	EQU 	1
IOCAN2 	EQU 	2
IOCAN3 	EQU 	3
IOCAN4 	EQU 	4
IOCAN5 	EQU 	5
IOCAN6 	EQU 	6
IOCAN7 	EQU 	7
IOCAP 	EQU 	14917
IOCAP0 	EQU 	0
IOCAP1 	EQU 	1
IOCAP2 	EQU 	2
IOCAP3 	EQU 	3
IOCAP4 	EQU 	4
IOCAP5 	EQU 	5
IOCAP6 	EQU 	6
IOCAP7 	EQU 	7
IOCBF 	EQU 	14935
IOCBF0 	EQU 	0
IOCBF1 	EQU 	1
IOCBF2 	EQU 	2
IOCBF3 	EQU 	3
IOCBF4 	EQU 	4
IOCBF5 	EQU 	5
IOCBF6 	EQU 	6
IOCBF7 	EQU 	7
IOCBN 	EQU 	14934
IOCBN0 	EQU 	0
IOCBN1 	EQU 	1
IOCBN2 	EQU 	2
IOCBN3 	EQU 	3
IOCBN4 	EQU 	4
IOCBN5 	EQU 	5
IOCBN6 	EQU 	6
IOCBN7 	EQU 	7
IOCBP 	EQU 	14933
IOCBP0 	EQU 	0
IOCBP1 	EQU 	1
IOCBP2 	EQU 	2
IOCBP3 	EQU 	3
IOCBP4 	EQU 	4
IOCBP5 	EQU 	5
IOCBP6 	EQU 	6
IOCBP7 	EQU 	7
IOCCF 	EQU 	14951
IOCCF0 	EQU 	0
IOCCF1 	EQU 	1
IOCCF2 	EQU 	2
IOCCF3 	EQU 	3
IOCCF4 	EQU 	4
IOCCF5 	EQU 	5
IOCCF6 	EQU 	6
IOCCF7 	EQU 	7
IOCCN 	EQU 	14950
IOCCN0 	EQU 	0
IOCCN1 	EQU 	1
IOCCN2 	EQU 	2
IOCCN3 	EQU 	3
IOCCN4 	EQU 	4
IOCCN5 	EQU 	5
IOCCN6 	EQU 	6
IOCCN7 	EQU 	7
IOCCP 	EQU 	14949
IOCCP0 	EQU 	0
IOCCP1 	EQU 	1
IOCCP2 	EQU 	2
IOCCP3 	EQU 	3
IOCCP4 	EQU 	4
IOCCP5 	EQU 	5
IOCCP6 	EQU 	6
IOCCP7 	EQU 	7
IOCEF 	EQU 	14983
IOCEF3 	EQU 	3
IOCEN 	EQU 	14982
IOCEN3 	EQU 	3
IOCEP 	EQU 	14981
IOCEP3 	EQU 	3
IOCIE 	EQU 	7
IOCIF 	EQU 	7
IOCIP 	EQU 	7
IOCMD 	EQU 	0
IPEN_ADCON1 	EQU 	6
IPEN_INTCON0 	EQU 	5
IPR0 	EQU 	14720
IPR1 	EQU 	14721
IPR10 	EQU 	14730
IPR2 	EQU 	14722
IPR3 	EQU 	14723
IPR4 	EQU 	14724
IPR5 	EQU 	14725
IPR6 	EQU 	14726
IPR7 	EQU 	14727
IPR8 	EQU 	14728
IPR9 	EQU 	14729
ISRHANDLER 	EQU 	3934
ISRPR 	EQU 	14833
ISRPR0 	EQU 	0
ISRPR1 	EQU 	1
ISRPR2 	EQU 	2
ISRPR_PR1 	EQU 	1
IVTADH 	EQU 	14494
IVTADL 	EQU 	14493
IVTADU 	EQU 	14495
IVTBASE 	EQU 	16341
IVTBASEH 	EQU 	16342
IVTBASEL 	EQU 	16341
IVTBASEU 	EQU 	16343
IVTLOCK 	EQU 	16340
IVTLOCKED 	EQU 	0
LADR0 	EQU 	0
LADR1 	EQU 	1
LADR10 	EQU 	2
LADR11 	EQU 	3
LADR12 	EQU 	4
LADR13 	EQU 	5
LADR14 	EQU 	6
LADR15 	EQU 	7
LADR16 	EQU 	0
LADR17 	EQU 	1
LADR18 	EQU 	2
LADR19 	EQU 	3
LADR2 	EQU 	2
LADR20 	EQU 	4
LADR21 	EQU 	5
LADR3 	EQU 	3
LADR4 	EQU 	4
LADR5 	EQU 	5
LADR6 	EQU 	6
LADR7 	EQU 	7
LADR8 	EQU 	0
LADR9 	EQU 	1
LASTUPDATEGLCDEVENT 	EQU 	79
LASTUPDATEGLCDEVENT_E 	EQU 	82
LASTUPDATEGLCDEVENT_H 	EQU 	80
LASTUPDATEGLCDEVENT_U 	EQU 	81
LATA 	EQU 	16314
LATA0 	EQU 	0
LATA1 	EQU 	1
LATA2 	EQU 	2
LATA3 	EQU 	3
LATA4 	EQU 	4
LATA5 	EQU 	5
LATA6 	EQU 	6
LATA7 	EQU 	7
LATB 	EQU 	16315
LATB0 	EQU 	0
LATB1 	EQU 	1
LATB2 	EQU 	2
LATB3 	EQU 	3
LATB4 	EQU 	4
LATB5 	EQU 	5
LATB6 	EQU 	6
LATB7 	EQU 	7
LATC 	EQU 	16316
LATC0 	EQU 	0
LATC1 	EQU 	1
LATC2 	EQU 	2
LATC3 	EQU 	3
LATC4 	EQU 	4
LATC5 	EQU 	5
LATC6 	EQU 	6
LATC7 	EQU 	7
LATD 	EQU 	16317
LATD0 	EQU 	0
LATD1 	EQU 	1
LATD2 	EQU 	2
LATD3 	EQU 	3
LATD4 	EQU 	4
LATD5 	EQU 	5
LATD6 	EQU 	6
LATD7 	EQU 	7
LATE 	EQU 	16318
LATE0 	EQU 	0
LATE1 	EQU 	1
LATE2 	EQU 	2
LC1D1S0 	EQU 	0
LC1D1S1 	EQU 	1
LC1D1S2 	EQU 	2
LC1D1S3 	EQU 	3
LC1D1S4 	EQU 	4
LC1D1S5 	EQU 	5
LC1D1S6 	EQU 	6
LC1D1S7 	EQU 	7
LC1D2S0 	EQU 	0
LC1D2S1 	EQU 	1
LC1D2S2 	EQU 	2
LC1D2S3 	EQU 	3
LC1D2S4 	EQU 	4
LC1D2S5 	EQU 	5
LC1D2S6 	EQU 	6
LC1D2S7 	EQU 	7
LC1D3S0 	EQU 	0
LC1D3S1 	EQU 	1
LC1D3S2 	EQU 	2
LC1D3S3 	EQU 	3
LC1D3S4 	EQU 	4
LC1D3S5 	EQU 	5
LC1D3S6 	EQU 	6
LC1D3S7 	EQU 	7
LC1D4S0 	EQU 	0
LC1D4S1 	EQU 	1
LC1D4S2 	EQU 	2
LC1D4S3 	EQU 	3
LC1D4S4 	EQU 	4
LC1D4S5 	EQU 	5
LC1D4S6 	EQU 	6
LC1D4S7 	EQU 	7
LC1EN 	EQU 	7
LC1G1D1N 	EQU 	0
LC1G1D1T 	EQU 	1
LC1G1D2N 	EQU 	2
LC1G1D2T 	EQU 	3
LC1G1D3N 	EQU 	4
LC1G1D3T 	EQU 	5
LC1G1D4N 	EQU 	6
LC1G1D4T 	EQU 	7
LC1G1POL 	EQU 	0
LC1G2D1N 	EQU 	0
LC1G2D1T 	EQU 	1
LC1G2D2N 	EQU 	2
LC1G2D2T 	EQU 	3
LC1G2D3N 	EQU 	4
LC1G2D3T 	EQU 	5
LC1G2D4N 	EQU 	6
LC1G2D4T 	EQU 	7
LC1G2POL 	EQU 	1
LC1G3D1N 	EQU 	0
LC1G3D1T 	EQU 	1
LC1G3D2N 	EQU 	2
LC1G3D2T 	EQU 	3
LC1G3D3N 	EQU 	4
LC1G3D3T 	EQU 	5
LC1G3D4N 	EQU 	6
LC1G3D4T 	EQU 	7
LC1G3POL 	EQU 	2
LC1G4D1N 	EQU 	0
LC1G4D1T 	EQU 	1
LC1G4D2N 	EQU 	2
LC1G4D2T 	EQU 	3
LC1G4D3N 	EQU 	4
LC1G4D3T 	EQU 	5
LC1G4D4N 	EQU 	6
LC1G4D4T 	EQU 	7
LC1G4POL 	EQU 	3
LC1INTN 	EQU 	3
LC1INTP 	EQU 	4
LC1MODE0 	EQU 	0
LC1MODE1 	EQU 	1
LC1MODE2 	EQU 	2
LC1OE 	EQU 	6
LC1OUT 	EQU 	5
LC1POL 	EQU 	7
LC2D1S0 	EQU 	0
LC2D1S1 	EQU 	1
LC2D1S2 	EQU 	2
LC2D1S3 	EQU 	3
LC2D1S4 	EQU 	4
LC2D1S5 	EQU 	5
LC2D1S6 	EQU 	6
LC2D1S7 	EQU 	7
LC2D2S0 	EQU 	0
LC2D2S1 	EQU 	1
LC2D2S2 	EQU 	2
LC2D2S3 	EQU 	3
LC2D2S4 	EQU 	4
LC2D2S5 	EQU 	5
LC2D2S6 	EQU 	6
LC2D2S7 	EQU 	7
LC2D3S0 	EQU 	0
LC2D3S1 	EQU 	1
LC2D3S2 	EQU 	2
LC2D3S3 	EQU 	3
LC2D3S4 	EQU 	4
LC2D3S5 	EQU 	5
LC2D3S6 	EQU 	6
LC2D3S7 	EQU 	7
LC2D4S0 	EQU 	0
LC2D4S1 	EQU 	1
LC2D4S2 	EQU 	2
LC2D4S3 	EQU 	3
LC2D4S4 	EQU 	4
LC2D4S5 	EQU 	5
LC2D4S6 	EQU 	6
LC2D4S7 	EQU 	7
LC2EN 	EQU 	7
LC2G1D1N 	EQU 	0
LC2G1D1T 	EQU 	1
LC2G1D2N 	EQU 	2
LC2G1D2T 	EQU 	3
LC2G1D3N 	EQU 	4
LC2G1D3T 	EQU 	5
LC2G1D4N 	EQU 	6
LC2G1D4T 	EQU 	7
LC2G1POL 	EQU 	0
LC2G2D1N 	EQU 	0
LC2G2D1T 	EQU 	1
LC2G2D2N 	EQU 	2
LC2G2D2T 	EQU 	3
LC2G2D3N 	EQU 	4
LC2G2D3T 	EQU 	5
LC2G2D4N 	EQU 	6
LC2G2D4T 	EQU 	7
LC2G2POL 	EQU 	1
LC2G3D1N 	EQU 	0
LC2G3D1T 	EQU 	1
LC2G3D2N 	EQU 	2
LC2G3D2T 	EQU 	3
LC2G3D3N 	EQU 	4
LC2G3D3T 	EQU 	5
LC2G3D4N 	EQU 	6
LC2G3D4T 	EQU 	7
LC2G3POL 	EQU 	2
LC2G4D1N 	EQU 	0
LC2G4D1T 	EQU 	1
LC2G4D2N 	EQU 	2
LC2G4D2T 	EQU 	3
LC2G4D3N 	EQU 	4
LC2G4D3T 	EQU 	5
LC2G4D4N 	EQU 	6
LC2G4D4T 	EQU 	7
LC2G4POL 	EQU 	3
LC2INTN 	EQU 	3
LC2INTP 	EQU 	4
LC2MODE0 	EQU 	0
LC2MODE1 	EQU 	1
LC2MODE2 	EQU 	2
LC2OE 	EQU 	6
LC2OUT 	EQU 	5
LC2POL 	EQU 	7
LC3D1S0 	EQU 	0
LC3D1S1 	EQU 	1
LC3D1S2 	EQU 	2
LC3D1S3 	EQU 	3
LC3D1S4 	EQU 	4
LC3D1S5 	EQU 	5
LC3D1S6 	EQU 	6
LC3D1S7 	EQU 	7
LC3D2S0 	EQU 	0
LC3D2S1 	EQU 	1
LC3D2S2 	EQU 	2
LC3D2S3 	EQU 	3
LC3D2S4 	EQU 	4
LC3D2S5 	EQU 	5
LC3D2S6 	EQU 	6
LC3D2S7 	EQU 	7
LC3D3S0 	EQU 	0
LC3D3S1 	EQU 	1
LC3D3S2 	EQU 	2
LC3D3S3 	EQU 	3
LC3D3S4 	EQU 	4
LC3D3S5 	EQU 	5
LC3D3S6 	EQU 	6
LC3D3S7 	EQU 	7
LC3D4S0 	EQU 	0
LC3D4S1 	EQU 	1
LC3D4S2 	EQU 	2
LC3D4S3 	EQU 	3
LC3D4S4 	EQU 	4
LC3D4S5 	EQU 	5
LC3D4S6 	EQU 	6
LC3D4S7 	EQU 	7
LC3EN 	EQU 	7
LC3G1D1N 	EQU 	0
LC3G1D1T 	EQU 	1
LC3G1D2N 	EQU 	2
LC3G1D2T 	EQU 	3
LC3G1D3N 	EQU 	4
LC3G1D3T 	EQU 	5
LC3G1D4N 	EQU 	6
LC3G1D4T 	EQU 	7
LC3G1POL 	EQU 	0
LC3G2D1N 	EQU 	0
LC3G2D1T 	EQU 	1
LC3G2D2N 	EQU 	2
LC3G2D2T 	EQU 	3
LC3G2D3N 	EQU 	4
LC3G2D3T 	EQU 	5
LC3G2D4N 	EQU 	6
LC3G2D4T 	EQU 	7
LC3G2POL 	EQU 	1
LC3G3D1N 	EQU 	0
LC3G3D1T 	EQU 	1
LC3G3D2N 	EQU 	2
LC3G3D2T 	EQU 	3
LC3G3D3N 	EQU 	4
LC3G3D3T 	EQU 	5
LC3G3D4N 	EQU 	6
LC3G3D4T 	EQU 	7
LC3G3POL 	EQU 	2
LC3G4D1N 	EQU 	0
LC3G4D1T 	EQU 	1
LC3G4D2N 	EQU 	2
LC3G4D2T 	EQU 	3
LC3G4D3N 	EQU 	4
LC3G4D3T 	EQU 	5
LC3G4D4N 	EQU 	6
LC3G4D4T 	EQU 	7
LC3G4POL 	EQU 	3
LC3INTN 	EQU 	3
LC3INTP 	EQU 	4
LC3MODE0 	EQU 	0
LC3MODE1 	EQU 	1
LC3MODE2 	EQU 	2
LC3OE 	EQU 	6
LC3OUT 	EQU 	5
LC3POL 	EQU 	7
LC4D1S0 	EQU 	0
LC4D1S1 	EQU 	1
LC4D1S2 	EQU 	2
LC4D1S3 	EQU 	3
LC4D1S4 	EQU 	4
LC4D1S5 	EQU 	5
LC4D1S6 	EQU 	6
LC4D1S7 	EQU 	7
LC4D2S0 	EQU 	0
LC4D2S1 	EQU 	1
LC4D2S2 	EQU 	2
LC4D2S3 	EQU 	3
LC4D2S4 	EQU 	4
LC4D2S5 	EQU 	5
LC4D2S6 	EQU 	6
LC4D2S7 	EQU 	7
LC4D3S0 	EQU 	0
LC4D3S1 	EQU 	1
LC4D3S2 	EQU 	2
LC4D3S3 	EQU 	3
LC4D3S4 	EQU 	4
LC4D3S5 	EQU 	5
LC4D3S6 	EQU 	6
LC4D3S7 	EQU 	7
LC4D4S0 	EQU 	0
LC4D4S1 	EQU 	1
LC4D4S2 	EQU 	2
LC4D4S3 	EQU 	3
LC4D4S4 	EQU 	4
LC4D4S5 	EQU 	5
LC4D4S6 	EQU 	6
LC4D4S7 	EQU 	7
LC4EN 	EQU 	7
LC4G1D1N 	EQU 	0
LC4G1D1T 	EQU 	1
LC4G1D2N 	EQU 	2
LC4G1D2T 	EQU 	3
LC4G1D3N 	EQU 	4
LC4G1D3T 	EQU 	5
LC4G1D4N 	EQU 	6
LC4G1D4T 	EQU 	7
LC4G1POL 	EQU 	0
LC4G2D1N 	EQU 	0
LC4G2D1T 	EQU 	1
LC4G2D2N 	EQU 	2
LC4G2D2T 	EQU 	3
LC4G2D3N 	EQU 	4
LC4G2D3T 	EQU 	5
LC4G2D4N 	EQU 	6
LC4G2D4T 	EQU 	7
LC4G2POL 	EQU 	1
LC4G3D1N 	EQU 	0
LC4G3D1T 	EQU 	1
LC4G3D2N 	EQU 	2
LC4G3D2T 	EQU 	3
LC4G3D3N 	EQU 	4
LC4G3D3T 	EQU 	5
LC4G3D4N 	EQU 	6
LC4G3D4T 	EQU 	7
LC4G3POL 	EQU 	2
LC4G4D1N 	EQU 	0
LC4G4D1T 	EQU 	1
LC4G4D2N 	EQU 	2
LC4G4D2T 	EQU 	3
LC4G4D3N 	EQU 	4
LC4G4D3T 	EQU 	5
LC4G4D4N 	EQU 	6
LC4G4D4T 	EQU 	7
LC4G4POL 	EQU 	3
LC4INTN 	EQU 	3
LC4INTP 	EQU 	4
LC4MODE0 	EQU 	0
LC4MODE1 	EQU 	1
LC4MODE2 	EQU 	2
LC4OE 	EQU 	6
LC4OUT 	EQU 	5
LC4POL 	EQU 	7
LCDBYTE 	EQU 	83
LCDVALUE 	EQU 	84
LCDVALUE_E 	EQU 	87
LCDVALUE_H 	EQU 	85
LCDVALUE_U 	EQU 	86
LD 	EQU 	6
LFOEN 	EQU 	4
LFOR 	EQU 	4
LINECOLOUR 	EQU 	88
LINECOLOUR_H 	EQU 	89
LSAC0 	EQU 	2
LSAC1 	EQU 	3
LSBD0 	EQU 	4
LSBD1 	EQU 	5
LSBF 	EQU 	2
LTH0 	EQU 	0
LTH1 	EQU 	1
LTH10 	EQU 	2
LTH11 	EQU 	3
LTH12 	EQU 	4
LTH13 	EQU 	5
LTH14 	EQU 	6
LTH15 	EQU 	7
LTH2 	EQU 	2
LTH3 	EQU 	3
LTH4 	EQU 	4
LTH5 	EQU 	5
LTH6 	EQU 	6
LTH7 	EQU 	7
LTH8 	EQU 	0
LTH9 	EQU 	1
LTHR 	EQU 	5
MAINPR 	EQU 	14834
MAINPR0 	EQU 	0
MAINPR1 	EQU 	1
MAINPR2 	EQU 	2
MAINPR_PR1 	EQU 	1
MATH 	EQU 	4
MD0 	EQU 	0
MD1 	EQU 	1
MD16 	EQU 	4
MD1BIT 	EQU 	0
MD1CARH 	EQU 	15614
MD1CARHPPS 	EQU 	15063
MD1CARL 	EQU 	15613
MD1CARLPPS 	EQU 	15062
MD1CH0 	EQU 	0
MD1CH1 	EQU 	1
MD1CH2 	EQU 	2
MD1CH3 	EQU 	3
MD1CH4 	EQU 	4
MD1CHPOL 	EQU 	5
MD1CHSYNC 	EQU 	4
MD1CL0 	EQU 	0
MD1CL1 	EQU 	1
MD1CL2 	EQU 	2
MD1CL3 	EQU 	3
MD1CL4 	EQU 	4
MD1CLPOL 	EQU 	1
MD1CLSYNC 	EQU 	0
MD1CON0 	EQU 	15610
MD1CON0_EN 	EQU 	7
MD1CON1 	EQU 	15611
MD1EN 	EQU 	7
MD1MS0 	EQU 	0
MD1MS1 	EQU 	1
MD1MS2 	EQU 	2
MD1MS3 	EQU 	3
MD1MS4 	EQU 	4
MD1OPOL 	EQU 	4
MD1OUT 	EQU 	5
MD1SRC 	EQU 	15612
MD1SRCPPS 	EQU 	15064
MD2 	EQU 	2
MDR 	EQU 	3
MEMV 	EQU 	1
MFOEN 	EQU 	5
MFOR 	EQU 	5
MMA 	EQU 	5
MODE 	EQU 	90
MODE0 	EQU 	0
MODE1 	EQU 	1
MODE2 	EQU 	2
MODE3 	EQU 	3
MODE4 	EQU 	4
MONTH 	EQU 	91
MREG 	EQU 	2
MS0 	EQU 	0
MS1 	EQU 	1
MS2 	EQU 	2
MS3 	EQU 	3
MS4 	EQU 	4
MST 	EQU 	1
N 	EQU 	4
NACK1IE 	EQU 	0
NACK1IF 	EQU 	4
NACK2IE 	EQU 	0
NACK2IF 	EQU 	4
NACKIE 	EQU 	0
NACKIF 	EQU 	4
NCH0 	EQU 	0
NCH1 	EQU 	1
NCH2 	EQU 	2
NCO1ACC 	EQU 	16184
NCO1ACC0 	EQU 	0
NCO1ACC1 	EQU 	1
NCO1ACC10 	EQU 	2
NCO1ACC11 	EQU 	3
NCO1ACC12 	EQU 	4
NCO1ACC13 	EQU 	5
NCO1ACC14 	EQU 	6
NCO1ACC15 	EQU 	7
NCO1ACC16 	EQU 	0
NCO1ACC17 	EQU 	1
NCO1ACC18 	EQU 	2
NCO1ACC19 	EQU 	3
NCO1ACC2 	EQU 	2
NCO1ACC20 	EQU 	4
NCO1ACC21 	EQU 	5
NCO1ACC22 	EQU 	6
NCO1ACC23 	EQU 	7
NCO1ACC3 	EQU 	3
NCO1ACC4 	EQU 	4
NCO1ACC5 	EQU 	5
NCO1ACC6 	EQU 	6
NCO1ACC7 	EQU 	7
NCO1ACC8 	EQU 	0
NCO1ACC9 	EQU 	1
NCO1ACCH 	EQU 	16185
NCO1ACCH_ACC10 	EQU 	2
NCO1ACCH_ACC11 	EQU 	3
NCO1ACCH_ACC12 	EQU 	4
NCO1ACCH_ACC13 	EQU 	5
NCO1ACCH_ACC14 	EQU 	6
NCO1ACCH_ACC15 	EQU 	7
NCO1ACCH_ACC8 	EQU 	0
NCO1ACCH_ACC9 	EQU 	1
NCO1ACCL 	EQU 	16184
NCO1ACCL_ACC0 	EQU 	0
NCO1ACCL_ACC1 	EQU 	1
NCO1ACCL_ACC2 	EQU 	2
NCO1ACCL_ACC3 	EQU 	3
NCO1ACCL_ACC4 	EQU 	4
NCO1ACCL_ACC5 	EQU 	5
NCO1ACCL_ACC6 	EQU 	6
NCO1ACCL_ACC7 	EQU 	7
NCO1ACCU 	EQU 	16186
NCO1ACCU_ACC16 	EQU 	0
NCO1ACCU_ACC17 	EQU 	1
NCO1ACCU_ACC18 	EQU 	2
NCO1ACCU_ACC19 	EQU 	3
NCO1ACCU_ACC20 	EQU 	4
NCO1ACCU_ACC21 	EQU 	5
NCO1ACCU_ACC22 	EQU 	6
NCO1ACCU_ACC23 	EQU 	7
NCO1CKS0 	EQU 	0
NCO1CKS1 	EQU 	1
NCO1CKS2 	EQU 	2
NCO1CKS3 	EQU 	3
NCO1CLK 	EQU 	16191
NCO1CON 	EQU 	16190
NCO1CON_EN 	EQU 	7
NCO1EN 	EQU 	7
NCO1IE 	EQU 	5
NCO1IF 	EQU 	5
NCO1INC 	EQU 	16187
NCO1INC0 	EQU 	0
NCO1INC1 	EQU 	1
NCO1INC10 	EQU 	2
NCO1INC11 	EQU 	3
NCO1INC12 	EQU 	4
NCO1INC13 	EQU 	5
NCO1INC14 	EQU 	6
NCO1INC15 	EQU 	7
NCO1INC16 	EQU 	0
NCO1INC17 	EQU 	1
NCO1INC18 	EQU 	2
NCO1INC19 	EQU 	3
NCO1INC2 	EQU 	2
NCO1INC20 	EQU 	4
NCO1INC21 	EQU 	5
NCO1INC22 	EQU 	6
NCO1INC23 	EQU 	7
NCO1INC3 	EQU 	3
NCO1INC4 	EQU 	4
NCO1INC5 	EQU 	5
NCO1INC6 	EQU 	6
NCO1INC7 	EQU 	7
NCO1INC8 	EQU 	0
NCO1INC9 	EQU 	1
NCO1INCH 	EQU 	16188
NCO1INCL 	EQU 	16187
NCO1INCU 	EQU 	16189
NCO1IP 	EQU 	5
NCO1MD 	EQU 	7
NCO1OUT 	EQU 	5
NCO1PFM 	EQU 	0
NCO1POL 	EQU 	4
NCO1PWS0 	EQU 	5
NCO1PWS1 	EQU 	6
NCO1PWS2 	EQU 	7
NDIV0 	EQU 	0
NDIV1 	EQU 	1
NDIV2 	EQU 	2
NDIV3 	EQU 	3
NOSC0 	EQU 	4
NOSC1 	EQU 	5
NOSC2 	EQU 	6
NOSCR 	EQU 	3
NOTIOCIF 	EQU 	3930
NOT_A 	EQU 	3
NOT_ADDRESS 	EQU 	3
NOT_BOR 	EQU 	0
NOT_DONE 	EQU 	3
NOT_MEMV 	EQU 	1
NOT_PD 	EQU 	5
NOT_POR 	EQU 	1
NOT_RI 	EQU 	2
NOT_RMCLR 	EQU 	3
NOT_RWDT 	EQU 	4
NOT_SYNC 	EQU 	2
NOT_T1DONE 	EQU 	3
NOT_T1SYNC 	EQU 	2
NOT_T3DONE 	EQU 	3
NOT_T3SYNC 	EQU 	2
NOT_T5DONE 	EQU 	3
NOT_T5SYNC 	EQU 	2
NOT_TO 	EQU 	6
NOT_W 	EQU 	4
NOT_WDTWV 	EQU 	5
NOT_WRITE 	EQU 	4
NREF0 	EQU 	4
NSS 	EQU 	0
NVMADR0 	EQU 	0
NVMADR1 	EQU 	1
NVMADR2 	EQU 	2
NVMADR3 	EQU 	3
NVMADR4 	EQU 	4
NVMADR5 	EQU 	5
NVMADR6 	EQU 	6
NVMADR7 	EQU 	7
NVMADR8 	EQU 	0
NVMADR9 	EQU 	1
NVMADRH 	EQU 	14817
NVMADRL 	EQU 	14816
NVMCON1 	EQU 	14821
NVMCON2 	EQU 	14822
NVMDAT 	EQU 	14819
NVMDAT0 	EQU 	0
NVMDAT1 	EQU 	1
NVMDAT2 	EQU 	2
NVMDAT3 	EQU 	3
NVMDAT4 	EQU 	4
NVMDAT5 	EQU 	5
NVMDAT6 	EQU 	6
NVMDAT7 	EQU 	7
NVMIE 	EQU 	4
NVMIF 	EQU 	4
NVMIP 	EQU 	4
NVMMD 	EQU 	2
NVMREG0 	EQU 	6
NVMREG1 	EQU 	7
ODCA0 	EQU 	0
ODCA1 	EQU 	1
ODCA2 	EQU 	2
ODCA3 	EQU 	3
ODCA4 	EQU 	4
ODCA5 	EQU 	5
ODCA6 	EQU 	6
ODCA7 	EQU 	7
ODCB0 	EQU 	0
ODCB1 	EQU 	1
ODCB2 	EQU 	2
ODCB3 	EQU 	3
ODCB4 	EQU 	4
ODCB5 	EQU 	5
ODCB6 	EQU 	6
ODCB7 	EQU 	7
ODCC0 	EQU 	0
ODCC1 	EQU 	1
ODCC2 	EQU 	2
ODCC3 	EQU 	3
ODCC4 	EQU 	4
ODCC5 	EQU 	5
ODCC6 	EQU 	6
ODCC7 	EQU 	7
ODCD0 	EQU 	0
ODCD1 	EQU 	1
ODCD2 	EQU 	2
ODCD3 	EQU 	3
ODCD4 	EQU 	4
ODCD5 	EQU 	5
ODCD6 	EQU 	6
ODCD7 	EQU 	7
ODCE0 	EQU 	0
ODCE1 	EQU 	1
ODCE2 	EQU 	2
ODCONA 	EQU 	14914
ODCONB 	EQU 	14930
ODCONC 	EQU 	14946
ODCOND 	EQU 	14962
ODCONE 	EQU 	14978
OE 	EQU 	6
OE1 	EQU 	5
OE2 	EQU 	4
ON_ADCON0 	EQU 	7
ON_ADCP 	EQU 	7
ON_T1CON 	EQU 	0
ON_T2CON 	EQU 	7
ON_T3CON 	EQU 	0
ON_T4CON 	EQU 	7
ON_T5CON 	EQU 	0
ON_T6CON 	EQU 	7
ON_TMR1CON 	EQU 	0
ON_TMR3CON 	EQU 	0
ON_TMR5CON 	EQU 	0
ON_U1CON1 	EQU 	7
ON_U2CON1 	EQU 	7
OPOL 	EQU 	4
ORDY 	EQU 	4
OSCCON1 	EQU 	14809
OSCCON2 	EQU 	14810
OSCCON3 	EQU 	14811
OSCEN 	EQU 	14813
OSCFRQ 	EQU 	14815
OSCSTAT 	EQU 	14812
OSCSTAT1 	EQU 	14812
OSCSTAT1_ADOR 	EQU 	2
OSCSTAT1_EXTOR 	EQU 	7
OSCSTAT1_HFOR 	EQU 	6
OSCSTAT1_LFOR 	EQU 	4
OSCSTAT1_MFOR 	EQU 	5
OSCSTAT1_PLLR 	EQU 	0
OSCSTAT1_SOR 	EQU 	3
OSCTUNE 	EQU 	14814
OSFIE 	EQU 	2
OSFIF 	EQU 	2
OSFIP 	EQU 	2
OUTPS0 	EQU 	0
OUTPS1 	EQU 	1
OUTPS2 	EQU 	2
OUTPS3 	EQU 	3
OUT_CCP1CON 	EQU 	5
OUT_CCP2CON 	EQU 	5
OUT_CCP3CON 	EQU 	5
OUT_CCP4CON 	EQU 	5
OUT_CLC1CON 	EQU 	5
OUT_CLC2CON 	EQU 	5
OUT_CLC3CON 	EQU 	5
OUT_CLC4CON 	EQU 	5
OUT_CM1CON0 	EQU 	6
OUT_CM2CON0 	EQU 	6
OUT_HLVDCON0 	EQU 	5
OUT_MD1CON0 	EQU 	5
OUT_NCO1CON 	EQU 	5
OUT_PWM5CON 	EQU 	5
OUT_PWM6CON 	EQU 	5
OUT_PWM7CON 	EQU 	5
OUT_PWM8CON 	EQU 	5
OUT_T0CON0 	EQU 	5
OUT_ZCDCON 	EQU 	5
OVRA 	EQU 	4
OVRB 	EQU 	5
OVRC 	EQU 	6
OVRD 	EQU 	7
OV_ADSTAT 	EQU 	7
OV_STATUS 	EQU 	3
OV_STATUS_CSHAD 	EQU 	3
OV_STATUS_SHAD 	EQU 	3
P1H 	EQU 	0
P2H 	EQU 	0
P3H 	EQU 	0
P5TSEL0 	EQU 	0
P5TSEL1 	EQU 	1
P6TSEL0 	EQU 	2
P6TSEL1 	EQU 	3
P7TSEL0 	EQU 	4
P7TSEL1 	EQU 	5
P8TSEL0 	EQU 	6
P8TSEL1 	EQU 	7
PC 	EQU 	16377
PC1IE 	EQU 	2
PC1IF 	EQU 	2
PC2IE 	EQU 	2
PC2IF 	EQU 	2
PCH0 	EQU 	0
PCH1 	EQU 	1
PCH2 	EQU 	2
PCH3 	EQU 	3
PCH4 	EQU 	4
PCH5 	EQU 	5
PCIE 	EQU 	2
PCIF 	EQU 	2
PCL 	EQU 	16377
PCLATH 	EQU 	16378
PCLATH_SHAD 	EQU 	14471
PCLATU 	EQU 	16379
PCLATU_SHAD 	EQU 	14472
PCON0 	EQU 	16368
PCON1 	EQU 	16369
PD 	EQU 	5
PERIE 	EQU 	6
PERIF 	EQU 	6
PFM 	EQU 	0
PIE0 	EQU 	14736
PIE1 	EQU 	14737
PIE10 	EQU 	14746
PIE2 	EQU 	14738
PIE3 	EQU 	14739
PIE4 	EQU 	14740
PIE5 	EQU 	14741
PIE6 	EQU 	14742
PIE7 	EQU 	14743
PIE8 	EQU 	14744
PIE9 	EQU 	14745
PIR0 	EQU 	14752
PIR1 	EQU 	14753
PIR10 	EQU 	14762
PIR2 	EQU 	14754
PIR3 	EQU 	14755
PIR4 	EQU 	14756
PIR5 	EQU 	14757
PIR6 	EQU 	14758
PIR7 	EQU 	14759
PIR8 	EQU 	14760
PIR9 	EQU 	14761
PLEN0 	EQU 	0
PLEN1 	EQU 	1
PLEN2 	EQU 	2
PLEN3 	EQU 	3
PLLR 	EQU 	0
PLUSW0 	EQU 	16363
PLUSW1 	EQU 	16355
PLUSW2 	EQU 	16347
PMD0 	EQU 	14784
PMD1 	EQU 	14785
PMD2 	EQU 	14786
PMD3 	EQU 	14787
PMD4 	EQU 	14788
PMD5 	EQU 	14789
PMD6 	EQU 	14790
PMD7 	EQU 	14791
POLA 	EQU 	0
POLB 	EQU 	1
POLC 	EQU 	2
POLD 	EQU 	3
POL_CLC1POL 	EQU 	7
POL_CLC2POL 	EQU 	7
POL_CLC3POL 	EQU 	7
POL_CLC4POL 	EQU 	7
POL_CM1CON0 	EQU 	4
POL_CM2CON0 	EQU 	4
POL_NCO1CON 	EQU 	4
POL_PWM5CON 	EQU 	4
POL_PWM6CON 	EQU 	4
POL_PWM7CON 	EQU 	4
POL_PWM8CON 	EQU 	4
POL_ZCDCON 	EQU 	4
POR 	EQU 	1
PORTA 	EQU 	16330
PORTB 	EQU 	16331
PORTC 	EQU 	16332
PORTD 	EQU 	16333
PORTE 	EQU 	16334
POSTDEC0 	EQU 	16365
POSTDEC1 	EQU 	16357
POSTDEC2 	EQU 	16349
POSTINC0 	EQU 	16366
POSTINC1 	EQU 	16358
POSTINC2 	EQU 	16350
PPOL 	EQU 	7
PPSLOCK 	EQU 	15039
PPSLOCKED 	EQU 	0
PR0 	EQU 	16311
PR1 	EQU 	1
PR10 	EQU 	2
PR11 	EQU 	3
PR12 	EQU 	4
PR13 	EQU 	5
PR14 	EQU 	6
PR15 	EQU 	7
PR16 	EQU 	0
PR17 	EQU 	1
PR18 	EQU 	2
PR19 	EQU 	3
PR2 	EQU 	16299
PR20 	EQU 	4
PR21 	EQU 	5
PR22 	EQU 	6
PR23 	EQU 	7
PR3 	EQU 	3
PR4 	EQU 	16287
PR5 	EQU 	5
PR6 	EQU 	16275
PR7 	EQU 	7
PR8 	EQU 	0
PR9 	EQU 	1
PRE0 	EQU 	0
PRE1 	EQU 	1
PRE10 	EQU 	2
PRE11 	EQU 	3
PRE12 	EQU 	4
PRE2 	EQU 	2
PRE3 	EQU 	3
PRE4 	EQU 	4
PRE5 	EQU 	5
PRE6 	EQU 	6
PRE7 	EQU 	7
PRE8 	EQU 	0
PRE9 	EQU 	1
PREF0 	EQU 	0
PREF1 	EQU 	1
PREINC0 	EQU 	16364
PREINC1 	EQU 	16356
PREINC2 	EQU 	16348
PREV0 	EQU 	0
PREV1 	EQU 	1
PREV10 	EQU 	2
PREV11 	EQU 	3
PREV12 	EQU 	4
PREV13 	EQU 	5
PREV14 	EQU 	6
PREV15 	EQU 	7
PREV2 	EQU 	2
PREV3 	EQU 	3
PREV4 	EQU 	4
PREV5 	EQU 	5
PREV6 	EQU 	6
PREV7 	EQU 	7
PREV8 	EQU 	0
PREV9 	EQU 	1
PRINTLEN 	EQU 	92
PRINTLOCX 	EQU 	93
PRINTLOCX_H 	EQU 	94
PRINTLOCY 	EQU 	95
PRINTLOCY_H 	EQU 	96
PRLOCK 	EQU 	14831
PRLOCKED 	EQU 	0
PROD 	EQU 	16371
PRODH 	EQU 	16372
PRODH_SHAD 	EQU 	14480
PRODL 	EQU 	16371
PRODL_SHAD 	EQU 	14479
PRODSH 	EQU 	14479
PS0 	EQU 	0
PS1 	EQU 	1
PSCNT0 	EQU 	0
PSCNT1 	EQU 	1
PSCNT10 	EQU 	2
PSCNT11 	EQU 	3
PSCNT12 	EQU 	4
PSCNT13 	EQU 	5
PSCNT14 	EQU 	6
PSCNT15 	EQU 	7
PSCNT16 	EQU 	0
PSCNT17 	EQU 	1
PSCNT2 	EQU 	2
PSCNT3 	EQU 	3
PSCNT4 	EQU 	4
PSCNT5 	EQU 	5
PSCNT6 	EQU 	6
PSCNT7 	EQU 	7
PSCNT8 	EQU 	0
PSCNT9 	EQU 	1
PSET_KS0108 	EQU 	3994
PSIS 	EQU 	7
PSS0 	EQU 	2
PSS1 	EQU 	3
PSYNC 	EQU 	7
PU0 	EQU 	4
PU1 	EQU 	5
PWM5CON 	EQU 	16238
PWM5CON_EN 	EQU 	7
PWM5DC 	EQU 	16236
PWM5DC0 	EQU 	6
PWM5DC1 	EQU 	7
PWM5DC2 	EQU 	0
PWM5DC3 	EQU 	1
PWM5DC4 	EQU 	2
PWM5DC5 	EQU 	3
PWM5DC6 	EQU 	4
PWM5DC7 	EQU 	5
PWM5DC8 	EQU 	6
PWM5DC9 	EQU 	7
PWM5DCH 	EQU 	16237
PWM5DCH_DC2 	EQU 	0
PWM5DCH_DC3 	EQU 	1
PWM5DCH_DC4 	EQU 	2
PWM5DCH_DC5 	EQU 	3
PWM5DCH_DC6 	EQU 	4
PWM5DCH_DC7 	EQU 	5
PWM5DCH_DC8 	EQU 	6
PWM5DCH_DC9 	EQU 	7
PWM5DCH_PWMPW2 	EQU 	0
PWM5DCH_PWMPW3 	EQU 	1
PWM5DCH_PWMPW4 	EQU 	2
PWM5DCH_PWMPW5 	EQU 	3
PWM5DCH_PWMPW6 	EQU 	4
PWM5DCH_PWMPW7 	EQU 	5
PWM5DCH_PWMPW8 	EQU 	6
PWM5DCH_PWMPW9 	EQU 	7
PWM5DCL 	EQU 	16236
PWM5DCL_DC0 	EQU 	6
PWM5DCL_DC1 	EQU 	7
PWM5DCL_PWMPW0 	EQU 	6
PWM5DCL_PWMPW1 	EQU 	7
PWM5EN 	EQU 	7
PWM5MD 	EQU 	4
PWM5OUT 	EQU 	5
PWM5POL 	EQU 	4
PWM6CON 	EQU 	16234
PWM6CON_EN 	EQU 	7
PWM6DC 	EQU 	16232
PWM6DC0 	EQU 	6
PWM6DC1 	EQU 	7
PWM6DC2 	EQU 	0
PWM6DC3 	EQU 	1
PWM6DC4 	EQU 	2
PWM6DC5 	EQU 	3
PWM6DC6 	EQU 	4
PWM6DC7 	EQU 	5
PWM6DC8 	EQU 	6
PWM6DC9 	EQU 	7
PWM6DCH 	EQU 	16233
PWM6DCH_DC2 	EQU 	0
PWM6DCH_DC3 	EQU 	1
PWM6DCH_DC4 	EQU 	2
PWM6DCH_DC5 	EQU 	3
PWM6DCH_DC6 	EQU 	4
PWM6DCH_DC7 	EQU 	5
PWM6DCH_DC8 	EQU 	6
PWM6DCH_DC9 	EQU 	7
PWM6DCH_PWMPW2 	EQU 	0
PWM6DCH_PWMPW3 	EQU 	1
PWM6DCH_PWMPW4 	EQU 	2
PWM6DCH_PWMPW5 	EQU 	3
PWM6DCH_PWMPW6 	EQU 	4
PWM6DCH_PWMPW7 	EQU 	5
PWM6DCH_PWMPW8 	EQU 	6
PWM6DCH_PWMPW9 	EQU 	7
PWM6DCL 	EQU 	16232
PWM6DCL_DC0 	EQU 	6
PWM6DCL_DC1 	EQU 	7
PWM6DCL_PWMPW0 	EQU 	6
PWM6DCL_PWMPW1 	EQU 	7
PWM6EN 	EQU 	7
PWM6MD 	EQU 	5
PWM6OUT 	EQU 	5
PWM6POL 	EQU 	4
PWM7CON 	EQU 	16230
PWM7CON_EN 	EQU 	7
PWM7DC 	EQU 	16228
PWM7DC0 	EQU 	6
PWM7DC1 	EQU 	7
PWM7DC2 	EQU 	0
PWM7DC3 	EQU 	1
PWM7DC4 	EQU 	2
PWM7DC5 	EQU 	3
PWM7DC6 	EQU 	4
PWM7DC7 	EQU 	5
PWM7DC8 	EQU 	6
PWM7DC9 	EQU 	7
PWM7DCH 	EQU 	16229
PWM7DCH_DC2 	EQU 	0
PWM7DCH_DC3 	EQU 	1
PWM7DCH_DC4 	EQU 	2
PWM7DCH_DC5 	EQU 	3
PWM7DCH_DC6 	EQU 	4
PWM7DCH_DC7 	EQU 	5
PWM7DCH_DC8 	EQU 	6
PWM7DCH_DC9 	EQU 	7
PWM7DCH_PWMPW2 	EQU 	0
PWM7DCH_PWMPW3 	EQU 	1
PWM7DCH_PWMPW4 	EQU 	2
PWM7DCH_PWMPW5 	EQU 	3
PWM7DCH_PWMPW6 	EQU 	4
PWM7DCH_PWMPW7 	EQU 	5
PWM7DCH_PWMPW8 	EQU 	6
PWM7DCH_PWMPW9 	EQU 	7
PWM7DCL 	EQU 	16228
PWM7DCL_DC0 	EQU 	6
PWM7DCL_DC1 	EQU 	7
PWM7DCL_PWMPW0 	EQU 	6
PWM7DCL_PWMPW1 	EQU 	7
PWM7EN 	EQU 	7
PWM7MD 	EQU 	6
PWM7OUT 	EQU 	5
PWM7POL 	EQU 	4
PWM8CON 	EQU 	16226
PWM8CON_EN 	EQU 	7
PWM8DC 	EQU 	16224
PWM8DC0 	EQU 	6
PWM8DC1 	EQU 	7
PWM8DC2 	EQU 	0
PWM8DC3 	EQU 	1
PWM8DC4 	EQU 	2
PWM8DC5 	EQU 	3
PWM8DC6 	EQU 	4
PWM8DC7 	EQU 	5
PWM8DC8 	EQU 	6
PWM8DC9 	EQU 	7
PWM8DCH 	EQU 	16225
PWM8DCL 	EQU 	16224
PWM8EN 	EQU 	7
PWM8MD 	EQU 	7
PWM8OUT 	EQU 	5
PWM8POL 	EQU 	4
PWMPW0 	EQU 	6
PWMPW1 	EQU 	7
PWMPW2 	EQU 	0
PWMPW3 	EQU 	1
PWMPW4 	EQU 	2
PWMPW5 	EQU 	3
PWMPW6 	EQU 	4
PWMPW7 	EQU 	5
PWMPW8 	EQU 	6
PWMPW9 	EQU 	7
PWS0 	EQU 	5
PWS1 	EQU 	6
PWS2 	EQU 	7
R 	EQU 	4
RA0 	EQU 	0
RA0PPS 	EQU 	14848
RA0PPS0 	EQU 	0
RA0PPS1 	EQU 	1
RA0PPS2 	EQU 	2
RA0PPS3 	EQU 	3
RA0PPS4 	EQU 	4
RA0PPS5 	EQU 	5
RA1 	EQU 	1
RA1PPS 	EQU 	14849
RA1PPS0 	EQU 	0
RA1PPS1 	EQU 	1
RA1PPS2 	EQU 	2
RA1PPS3 	EQU 	3
RA1PPS4 	EQU 	4
RA1PPS5 	EQU 	5
RA2 	EQU 	2
RA2PPS 	EQU 	14850
RA2PPS0 	EQU 	0
RA2PPS1 	EQU 	1
RA2PPS2 	EQU 	2
RA2PPS3 	EQU 	3
RA2PPS4 	EQU 	4
RA2PPS5 	EQU 	5
RA3 	EQU 	3
RA3PPS 	EQU 	14851
RA3PPS0 	EQU 	0
RA3PPS1 	EQU 	1
RA3PPS2 	EQU 	2
RA3PPS3 	EQU 	3
RA3PPS4 	EQU 	4
RA3PPS5 	EQU 	5
RA4 	EQU 	4
RA4PPS 	EQU 	14852
RA4PPS0 	EQU 	0
RA4PPS1 	EQU 	1
RA4PPS2 	EQU 	2
RA4PPS3 	EQU 	3
RA4PPS4 	EQU 	4
RA4PPS5 	EQU 	5
RA5 	EQU 	5
RA5PPS 	EQU 	14853
RA5PPS0 	EQU 	0
RA5PPS1 	EQU 	1
RA5PPS2 	EQU 	2
RA5PPS3 	EQU 	3
RA5PPS4 	EQU 	4
RA5PPS5 	EQU 	5
RA6 	EQU 	6
RA6PPS 	EQU 	14854
RA6PPS0 	EQU 	0
RA6PPS1 	EQU 	1
RA6PPS2 	EQU 	2
RA6PPS3 	EQU 	3
RA6PPS4 	EQU 	4
RA6PPS5 	EQU 	5
RA7 	EQU 	7
RA7PPS 	EQU 	14855
RA7PPS0 	EQU 	0
RA7PPS1 	EQU 	1
RA7PPS2 	EQU 	2
RA7PPS3 	EQU 	3
RA7PPS4 	EQU 	4
RA7PPS5 	EQU 	5
RB0 	EQU 	0
RB0PPS 	EQU 	14856
RB0PPS0 	EQU 	0
RB0PPS1 	EQU 	1
RB0PPS2 	EQU 	2
RB0PPS3 	EQU 	3
RB0PPS4 	EQU 	4
RB0PPS5 	EQU 	5
RB1 	EQU 	1
RB1I2C 	EQU 	14938
RB1I2C_I2CPU0 	EQU 	4
RB1I2C_I2CPU1 	EQU 	5
RB1I2C_I2CSLEW 	EQU 	6
RB1I2C_I2CTH0 	EQU 	0
RB1I2C_I2CTH1 	EQU 	1
RB1I2C_PU0 	EQU 	4
RB1I2C_PU1 	EQU 	5
RB1I2C_SLEW 	EQU 	6
RB1I2C_TH0 	EQU 	0
RB1I2C_TH1 	EQU 	1
RB1PPS 	EQU 	14857
RB1PPS0 	EQU 	0
RB1PPS1 	EQU 	1
RB1PPS2 	EQU 	2
RB1PPS3 	EQU 	3
RB1PPS4 	EQU 	4
RB1PPS5 	EQU 	5
RB2 	EQU 	2
RB2I2C 	EQU 	14939
RB2I2C_I2CPU0 	EQU 	4
RB2I2C_I2CPU1 	EQU 	5
RB2I2C_I2CSLEW 	EQU 	6
RB2I2C_I2CTH0 	EQU 	0
RB2I2C_I2CTH1 	EQU 	1
RB2I2C_PU0 	EQU 	4
RB2I2C_PU1 	EQU 	5
RB2I2C_SLEW 	EQU 	6
RB2I2C_TH0 	EQU 	0
RB2I2C_TH1 	EQU 	1
RB2PPS 	EQU 	14858
RB2PPS0 	EQU 	0
RB2PPS1 	EQU 	1
RB2PPS2 	EQU 	2
RB2PPS3 	EQU 	3
RB2PPS4 	EQU 	4
RB2PPS5 	EQU 	5
RB3 	EQU 	3
RB3PPS 	EQU 	14859
RB3PPS0 	EQU 	0
RB3PPS1 	EQU 	1
RB3PPS2 	EQU 	2
RB3PPS3 	EQU 	3
RB3PPS4 	EQU 	4
RB3PPS5 	EQU 	5
RB4 	EQU 	4
RB4PPS 	EQU 	14860
RB4PPS0 	EQU 	0
RB4PPS1 	EQU 	1
RB4PPS2 	EQU 	2
RB4PPS3 	EQU 	3
RB4PPS4 	EQU 	4
RB4PPS5 	EQU 	5
RB5 	EQU 	5
RB5PPS 	EQU 	14861
RB5PPS0 	EQU 	0
RB5PPS1 	EQU 	1
RB5PPS2 	EQU 	2
RB5PPS3 	EQU 	3
RB5PPS4 	EQU 	4
RB5PPS5 	EQU 	5
RB6 	EQU 	6
RB6PPS 	EQU 	14862
RB6PPS0 	EQU 	0
RB6PPS1 	EQU 	1
RB6PPS2 	EQU 	2
RB6PPS3 	EQU 	3
RB6PPS4 	EQU 	4
RB6PPS5 	EQU 	5
RB7 	EQU 	7
RB7PPS 	EQU 	14863
RB7PPS0 	EQU 	0
RB7PPS1 	EQU 	1
RB7PPS2 	EQU 	2
RB7PPS3 	EQU 	3
RB7PPS4 	EQU 	4
RB7PPS5 	EQU 	5
RC0 	EQU 	0
RC0PPS 	EQU 	14864
RC0PPS0 	EQU 	0
RC0PPS1 	EQU 	1
RC0PPS2 	EQU 	2
RC0PPS3 	EQU 	3
RC0PPS4 	EQU 	4
RC0PPS5 	EQU 	5
RC1 	EQU 	1
RC1PPS 	EQU 	14865
RC1PPS0 	EQU 	0
RC1PPS1 	EQU 	1
RC1PPS2 	EQU 	2
RC1PPS3 	EQU 	3
RC1PPS4 	EQU 	4
RC1PPS5 	EQU 	5
RC2 	EQU 	2
RC2PPS 	EQU 	14866
RC2PPS0 	EQU 	0
RC2PPS1 	EQU 	1
RC2PPS2 	EQU 	2
RC2PPS3 	EQU 	3
RC2PPS4 	EQU 	4
RC2PPS5 	EQU 	5
RC3 	EQU 	3
RC3I2C 	EQU 	14954
RC3I2C_I2CPU0 	EQU 	4
RC3I2C_I2CPU1 	EQU 	5
RC3I2C_I2CSLEW 	EQU 	6
RC3I2C_I2CTH0 	EQU 	0
RC3I2C_I2CTH1 	EQU 	1
RC3I2C_PU0 	EQU 	4
RC3I2C_PU1 	EQU 	5
RC3I2C_SLEW 	EQU 	6
RC3I2C_TH0 	EQU 	0
RC3I2C_TH1 	EQU 	1
RC3PPS 	EQU 	14867
RC3PPS0 	EQU 	0
RC3PPS1 	EQU 	1
RC3PPS2 	EQU 	2
RC3PPS3 	EQU 	3
RC3PPS4 	EQU 	4
RC3PPS5 	EQU 	5
RC4 	EQU 	4
RC4I2C 	EQU 	14955
RC4I2C_I2CPU0 	EQU 	4
RC4I2C_I2CPU1 	EQU 	5
RC4I2C_I2CSLEW 	EQU 	6
RC4I2C_I2CTH0 	EQU 	0
RC4I2C_I2CTH1 	EQU 	1
RC4I2C_PU0 	EQU 	4
RC4I2C_PU1 	EQU 	5
RC4I2C_SLEW 	EQU 	6
RC4I2C_TH0 	EQU 	0
RC4I2C_TH1 	EQU 	1
RC4PPS 	EQU 	14868
RC4PPS0 	EQU 	0
RC4PPS1 	EQU 	1
RC4PPS2 	EQU 	2
RC4PPS3 	EQU 	3
RC4PPS4 	EQU 	4
RC4PPS5 	EQU 	5
RC5 	EQU 	5
RC5PPS 	EQU 	14869
RC5PPS0 	EQU 	0
RC5PPS1 	EQU 	1
RC5PPS2 	EQU 	2
RC5PPS3 	EQU 	3
RC5PPS4 	EQU 	4
RC5PPS5 	EQU 	5
RC6 	EQU 	6
RC6PPS 	EQU 	14870
RC6PPS0 	EQU 	0
RC6PPS1 	EQU 	1
RC6PPS2 	EQU 	2
RC6PPS3 	EQU 	3
RC6PPS4 	EQU 	4
RC6PPS5 	EQU 	5
RC7 	EQU 	7
RC7PPS 	EQU 	14871
RC7PPS0 	EQU 	0
RC7PPS1 	EQU 	1
RC7PPS2 	EQU 	2
RC7PPS3 	EQU 	3
RC7PPS4 	EQU 	4
RC7PPS5 	EQU 	5
RCIDL 	EQU 	3
RD 	EQU 	0
RD0 	EQU 	0
RD0I2C 	EQU 	14970
RD0I2C_I2CPU0 	EQU 	4
RD0I2C_I2CPU1 	EQU 	5
RD0I2C_I2CSLEW 	EQU 	6
RD0I2C_I2CTH0 	EQU 	0
RD0I2C_I2CTH1 	EQU 	1
RD0I2C_PU0 	EQU 	4
RD0I2C_PU1 	EQU 	5
RD0I2C_SLEW 	EQU 	6
RD0I2C_TH0 	EQU 	0
RD0I2C_TH1 	EQU 	1
RD0PPS 	EQU 	14872
RD0PPS0 	EQU 	0
RD0PPS1 	EQU 	1
RD0PPS2 	EQU 	2
RD0PPS3 	EQU 	3
RD0PPS4 	EQU 	4
RD0PPS5 	EQU 	5
RD1 	EQU 	1
RD16 	EQU 	1
RD1I2C 	EQU 	14971
RD1I2C_I2CPU0 	EQU 	4
RD1I2C_I2CPU1 	EQU 	5
RD1I2C_I2CSLEW 	EQU 	6
RD1I2C_I2CTH0 	EQU 	0
RD1I2C_I2CTH1 	EQU 	1
RD1I2C_PU0 	EQU 	4
RD1I2C_PU1 	EQU 	5
RD1I2C_SLEW 	EQU 	6
RD1I2C_TH0 	EQU 	0
RD1I2C_TH1 	EQU 	1
RD1PPS 	EQU 	14873
RD1PPS0 	EQU 	0
RD1PPS1 	EQU 	1
RD1PPS2 	EQU 	2
RD1PPS3 	EQU 	3
RD1PPS4 	EQU 	4
RD1PPS5 	EQU 	5
RD2 	EQU 	2
RD2PPS 	EQU 	14874
RD2PPS0 	EQU 	0
RD2PPS1 	EQU 	1
RD2PPS2 	EQU 	2
RD2PPS3 	EQU 	3
RD2PPS4 	EQU 	4
RD2PPS5 	EQU 	5
RD3 	EQU 	3
RD3PPS 	EQU 	14875
RD3PPS0 	EQU 	0
RD3PPS1 	EQU 	1
RD3PPS2 	EQU 	2
RD3PPS3 	EQU 	3
RD3PPS4 	EQU 	4
RD3PPS5 	EQU 	5
RD4 	EQU 	4
RD4PPS 	EQU 	14876
RD4PPS0 	EQU 	0
RD4PPS1 	EQU 	1
RD4PPS2 	EQU 	2
RD4PPS3 	EQU 	3
RD4PPS4 	EQU 	4
RD4PPS5 	EQU 	5
RD5 	EQU 	5
RD5PPS 	EQU 	14877
RD5PPS0 	EQU 	0
RD5PPS1 	EQU 	1
RD5PPS2 	EQU 	2
RD5PPS3 	EQU 	3
RD5PPS4 	EQU 	4
RD5PPS5 	EQU 	5
RD6 	EQU 	6
RD6PPS 	EQU 	14878
RD6PPS0 	EQU 	0
RD6PPS1 	EQU 	1
RD6PPS2 	EQU 	2
RD6PPS3 	EQU 	3
RD6PPS4 	EQU 	4
RD6PPS5 	EQU 	5
RD7 	EQU 	7
RD7PPS 	EQU 	14879
RD7PPS0 	EQU 	0
RD7PPS1 	EQU 	1
RD7PPS2 	EQU 	2
RD7PPS3 	EQU 	3
RD7PPS4 	EQU 	4
RD7PPS5 	EQU 	5
RDY_FVRCON 	EQU 	6
RDY_HLVDCON0 	EQU 	4
RE0 	EQU 	0
RE0PPS 	EQU 	14880
RE0PPS0 	EQU 	0
RE0PPS1 	EQU 	1
RE0PPS2 	EQU 	2
RE0PPS3 	EQU 	3
RE0PPS4 	EQU 	4
RE0PPS5 	EQU 	5
RE1 	EQU 	1
RE1PPS 	EQU 	14881
RE1PPS0 	EQU 	0
RE1PPS1 	EQU 	1
RE1PPS2 	EQU 	2
RE1PPS3 	EQU 	3
RE1PPS4 	EQU 	4
RE1PPS5 	EQU 	5
RE2 	EQU 	2
RE2PPS 	EQU 	14882
RE2PPS0 	EQU 	0
RE2PPS1 	EQU 	1
RE2PPS2 	EQU 	2
RE2PPS3 	EQU 	3
RE2PPS4 	EQU 	4
RE2PPS5 	EQU 	5
RE3 	EQU 	3
READ 	EQU 	4
REG0 	EQU 	6
REG1 	EQU 	7
REN 	EQU 	6
REPEAT 	EQU 	6
RES0 	EQU 	0
RES1 	EQU 	1
RES10 	EQU 	2
RES11 	EQU 	3
RES12 	EQU 	4
RES13 	EQU 	5
RES14 	EQU 	6
RES15 	EQU 	7
RES2 	EQU 	2
RES3 	EQU 	3
RES4 	EQU 	4
RES5 	EQU 	5
RES6 	EQU 	6
RES7 	EQU 	7
RES8 	EQU 	0
RES9 	EQU 	1
RI 	EQU 	2
RMCLR 	EQU 	3
ROI 	EQU 	5
ROW 	EQU 	97
RPT0 	EQU 	0
RPT1 	EQU 	1
RPT2 	EQU 	2
RPT3 	EQU 	3
RPT4 	EQU 	4
RPT5 	EQU 	5
RPT6 	EQU 	6
RPT7 	EQU 	7
RSC1IE 	EQU 	1
RSC1IF 	EQU 	1
RSC2IE 	EQU 	1
RSC2IF 	EQU 	1
RSCIE 	EQU 	1
RSCIF 	EQU 	1
RSEL0 	EQU 	0
RSEL1 	EQU 	1
RSEL2 	EQU 	2
RSEL3 	EQU 	3
RSEL4 	EQU 	4
RSEN 	EQU 	6
RST 	EQU 	5
RUNOVF 	EQU 	7
RWDT 	EQU 	4
RXB0 	EQU 	0
RXB1 	EQU 	1
RXB2 	EQU 	2
RXB3 	EQU 	3
RXB4 	EQU 	4
RXB5 	EQU 	5
RXB6 	EQU 	6
RXB7 	EQU 	7
RXBE 	EQU 	1
RXBF 	EQU 	0
RXBIMD 	EQU 	3
RXBKIE 	EQU 	2
RXBKIF 	EQU 	2
RXEN 	EQU 	4
RXFOIE 	EQU 	1
RXFOIF 	EQU 	1
RXIDL 	EQU 	3
RXO 	EQU 	2
RXOIE 	EQU 	2
RXOIF 	EQU 	2
RXPOL 	EQU 	6
RXR 	EQU 	0
RXRE 	EQU 	3
S 	EQU 	5
SBOREN 	EQU 	7
SC1IE 	EQU 	0
SC1IF 	EQU 	0
SC2IE 	EQU 	0
SC2IF 	EQU 	0
SCANCON0 	EQU 	14716
SCANCON0_EN 	EQU 	7
SCANHADR 	EQU 	14713
SCANHADR0 	EQU 	0
SCANHADR1 	EQU 	1
SCANHADR10 	EQU 	2
SCANHADR11 	EQU 	3
SCANHADR12 	EQU 	4
SCANHADR13 	EQU 	5
SCANHADR14 	EQU 	6
SCANHADR15 	EQU 	7
SCANHADR16 	EQU 	0
SCANHADR17 	EQU 	1
SCANHADR18 	EQU 	2
SCANHADR19 	EQU 	3
SCANHADR2 	EQU 	2
SCANHADR20 	EQU 	4
SCANHADR21 	EQU 	5
SCANHADR3 	EQU 	3
SCANHADR4 	EQU 	4
SCANHADR5 	EQU 	5
SCANHADR6 	EQU 	6
SCANHADR7 	EQU 	7
SCANHADR8 	EQU 	0
SCANHADR9 	EQU 	1
SCANHADRH 	EQU 	14714
SCANHADRL 	EQU 	14713
SCANHADRU 	EQU 	14715
SCANIE 	EQU 	5
SCANIF 	EQU 	5
SCANIP 	EQU 	5
SCANLADR 	EQU 	14710
SCANLADR0 	EQU 	0
SCANLADR1 	EQU 	1
SCANLADR10 	EQU 	2
SCANLADR11 	EQU 	3
SCANLADR12 	EQU 	4
SCANLADR13 	EQU 	5
SCANLADR14 	EQU 	6
SCANLADR15 	EQU 	7
SCANLADR16 	EQU 	0
SCANLADR17 	EQU 	1
SCANLADR18 	EQU 	2
SCANLADR19 	EQU 	3
SCANLADR2 	EQU 	2
SCANLADR20 	EQU 	4
SCANLADR21 	EQU 	5
SCANLADR3 	EQU 	3
SCANLADR4 	EQU 	4
SCANLADR5 	EQU 	5
SCANLADR6 	EQU 	6
SCANLADR7 	EQU 	7
SCANLADR8 	EQU 	0
SCANLADR9 	EQU 	1
SCANLADRH 	EQU 	14711
SCANLADRL 	EQU 	14710
SCANLADRU 	EQU 	14712
SCANMD 	EQU 	3
SCANPR 	EQU 	14839
SCANPR0 	EQU 	0
SCANPR1 	EQU 	1
SCANPR2 	EQU 	2
SCANPR_PR1 	EQU 	1
SCANTRIG 	EQU 	14717
SCIE 	EQU 	0
SCIF 	EQU 	0
SCNT0 	EQU 	0
SCNT1 	EQU 	1
SCNT10 	EQU 	2
SCNT11 	EQU 	3
SCNT2 	EQU 	2
SCNT3 	EQU 	3
SCNT4 	EQU 	4
SCNT5 	EQU 	5
SCNT6 	EQU 	6
SCNT7 	EQU 	7
SCNT8 	EQU 	0
SCNT9 	EQU 	1
SDAHT0 	EQU 	2
SDAHT1 	EQU 	3
SDIP 	EQU 	1
SDOP 	EQU 	0
SEL0 	EQU 	0
SEL1 	EQU 	1
SEL2 	EQU 	2
SEL3 	EQU 	3
SENDB 	EQU 	0
SEN_WDTCON0 	EQU 	0
SEN_ZCDCON 	EQU 	7
SERDATA 	EQU 	98
SGO 	EQU 	5
SHADCON 	EQU 	14467
SHADLO 	EQU 	0
SHFT0 	EQU 	0
SHFT1 	EQU 	1
SHFT10 	EQU 	2
SHFT11 	EQU 	3
SHFT12 	EQU 	4
SHFT13 	EQU 	5
SHFT14 	EQU 	6
SHFT15 	EQU 	7
SHFT2 	EQU 	2
SHFT3 	EQU 	3
SHFT4 	EQU 	4
SHFT5 	EQU 	5
SHFT6 	EQU 	6
SHFT7 	EQU 	7
SHFT8 	EQU 	0
SHFT9 	EQU 	1
SHIFTM 	EQU 	1
SHUTDOWN 	EQU 	7
SIRQ0 	EQU 	0
SIRQ1 	EQU 	1
SIRQ2 	EQU 	2
SIRQ3 	EQU 	3
SIRQ4 	EQU 	4
SIRQ5 	EQU 	5
SIRQ6 	EQU 	6
SIRQEN 	EQU 	6
SLEW 	EQU 	6
SLRA0 	EQU 	0
SLRA1 	EQU 	1
SLRA2 	EQU 	2
SLRA3 	EQU 	3
SLRA4 	EQU 	4
SLRA5 	EQU 	5
SLRA6 	EQU 	6
SLRA7 	EQU 	7
SLRB0 	EQU 	0
SLRB1 	EQU 	1
SLRB2 	EQU 	2
SLRB3 	EQU 	3
SLRB4 	EQU 	4
SLRB5 	EQU 	5
SLRB6 	EQU 	6
SLRB7 	EQU 	7
SLRC0 	EQU 	0
SLRC1 	EQU 	1
SLRC2 	EQU 	2
SLRC3 	EQU 	3
SLRC4 	EQU 	4
SLRC5 	EQU 	5
SLRC6 	EQU 	6
SLRC7 	EQU 	7
SLRCONA 	EQU 	14915
SLRCONB 	EQU 	14931
SLRCONC 	EQU 	14947
SLRCOND 	EQU 	14963
SLRCONE 	EQU 	14979
SLRD0 	EQU 	0
SLRD1 	EQU 	1
SLRD2 	EQU 	2
SLRD3 	EQU 	3
SLRD4 	EQU 	4
SLRD5 	EQU 	5
SLRD6 	EQU 	6
SLRD7 	EQU 	7
SLRE0 	EQU 	0
SLRE1 	EQU 	1
SLRE2 	EQU 	2
SMA 	EQU 	6
SMP 	EQU 	7
SMT1AS 	EQU 	0
SMT1CLK 	EQU 	16161
SMT1CON0 	EQU 	16158
SMT1CON0_EN 	EQU 	7
SMT1CON1 	EQU 	16159
SMT1CON1_MODE0 	EQU 	0
SMT1CON1_MODE1 	EQU 	1
SMT1CON1_MODE2 	EQU 	2
SMT1CON1_MODE3 	EQU 	3
SMT1CPOL 	EQU 	2
SMT1CPR 	EQU 	16149
SMT1CPR0 	EQU 	0
SMT1CPR1 	EQU 	1
SMT1CPR10 	EQU 	2
SMT1CPR11 	EQU 	3
SMT1CPR12 	EQU 	4
SMT1CPR13 	EQU 	5
SMT1CPR14 	EQU 	6
SMT1CPR15 	EQU 	7
SMT1CPR16 	EQU 	0
SMT1CPR17 	EQU 	1
SMT1CPR18 	EQU 	2
SMT1CPR19 	EQU 	3
SMT1CPR2 	EQU 	2
SMT1CPR20 	EQU 	4
SMT1CPR21 	EQU 	5
SMT1CPR22 	EQU 	6
SMT1CPR23 	EQU 	7
SMT1CPR3 	EQU 	3
SMT1CPR4 	EQU 	4
SMT1CPR5 	EQU 	5
SMT1CPR6 	EQU 	6
SMT1CPR7 	EQU 	7
SMT1CPR8 	EQU 	0
SMT1CPR9 	EQU 	1
SMT1CPRH 	EQU 	16150
SMT1CPRL 	EQU 	16149
SMT1CPRU 	EQU 	16151
SMT1CPRUP 	EQU 	7
SMT1CPW 	EQU 	16152
SMT1CPW0 	EQU 	0
SMT1CPW1 	EQU 	1
SMT1CPW10 	EQU 	2
SMT1CPW11 	EQU 	3
SMT1CPW12 	EQU 	4
SMT1CPW13 	EQU 	5
SMT1CPW14 	EQU 	6
SMT1CPW15 	EQU 	7
SMT1CPW16 	EQU 	0
SMT1CPW17 	EQU 	1
SMT1CPW18 	EQU 	2
SMT1CPW19 	EQU 	3
SMT1CPW2 	EQU 	2
SMT1CPW20 	EQU 	4
SMT1CPW21 	EQU 	5
SMT1CPW22 	EQU 	6
SMT1CPW23 	EQU 	7
SMT1CPW3 	EQU 	3
SMT1CPW4 	EQU 	4
SMT1CPW5 	EQU 	5
SMT1CPW6 	EQU 	6
SMT1CPW7 	EQU 	7
SMT1CPW8 	EQU 	0
SMT1CPW9 	EQU 	1
SMT1CPWH 	EQU 	16153
SMT1CPWL 	EQU 	16152
SMT1CPWU 	EQU 	16154
SMT1CPWUP 	EQU 	6
SMT1CSEL0 	EQU 	0
SMT1CSEL1 	EQU 	1
SMT1CSEL2 	EQU 	2
SMT1EN 	EQU 	7
SMT1GO 	EQU 	7
SMT1IE 	EQU 	5
SMT1IF 	EQU 	5
SMT1IP 	EQU 	5
SMT1MD 	EQU 	5
SMT1PR 	EQU 	16155
SMT1PR0 	EQU 	0
SMT1PR1 	EQU 	1
SMT1PR10 	EQU 	2
SMT1PR11 	EQU 	3
SMT1PR12 	EQU 	4
SMT1PR13 	EQU 	5
SMT1PR14 	EQU 	6
SMT1PR15 	EQU 	7
SMT1PR16 	EQU 	0
SMT1PR17 	EQU 	1
SMT1PR18 	EQU 	2
SMT1PR19 	EQU 	3
SMT1PR2 	EQU 	2
SMT1PR20 	EQU 	4
SMT1PR21 	EQU 	5
SMT1PR22 	EQU 	6
SMT1PR23 	EQU 	7
SMT1PR3 	EQU 	3
SMT1PR4 	EQU 	4
SMT1PR5 	EQU 	5
SMT1PR6 	EQU 	6
SMT1PR7 	EQU 	7
SMT1PR8 	EQU 	0
SMT1PR9 	EQU 	1
SMT1PRAIE 	EQU 	6
SMT1PRAIF 	EQU 	6
SMT1PRAIP 	EQU 	6
SMT1PRH 	EQU 	16156
SMT1PRL 	EQU 	16155
SMT1PRL_PR1 	EQU 	1
SMT1PRU 	EQU 	16157
SMT1PS0 	EQU 	0
SMT1PS1 	EQU 	1
SMT1PWAIE 	EQU 	7
SMT1PWAIF 	EQU 	7
SMT1PWAIP 	EQU 	7
SMT1REPEAT 	EQU 	6
SMT1RESET 	EQU 	5
SMT1RST 	EQU 	5
SMT1SIG 	EQU 	16162
SMT1SIGPPS 	EQU 	15058
SMT1SPOL 	EQU 	3
SMT1SSEL0 	EQU 	0
SMT1SSEL1 	EQU 	1
SMT1SSEL2 	EQU 	2
SMT1SSEL3 	EQU 	3
SMT1SSEL4 	EQU 	4
SMT1STAT 	EQU 	16160
SMT1STP 	EQU 	5
SMT1TMR 	EQU 	16146
SMT1TMR0 	EQU 	0
SMT1TMR1 	EQU 	1
SMT1TMR10 	EQU 	2
SMT1TMR11 	EQU 	3
SMT1TMR12 	EQU 	4
SMT1TMR13 	EQU 	5
SMT1TMR14 	EQU 	6
SMT1TMR15 	EQU 	7
SMT1TMR16 	EQU 	0
SMT1TMR17 	EQU 	1
SMT1TMR18 	EQU 	2
SMT1TMR19 	EQU 	3
SMT1TMR2 	EQU 	2
SMT1TMR20 	EQU 	4
SMT1TMR21 	EQU 	5
SMT1TMR22 	EQU 	6
SMT1TMR23 	EQU 	7
SMT1TMR3 	EQU 	3
SMT1TMR4 	EQU 	4
SMT1TMR5 	EQU 	5
SMT1TMR6 	EQU 	6
SMT1TMR7 	EQU 	7
SMT1TMR8 	EQU 	0
SMT1TMR9 	EQU 	1
SMT1TMRH 	EQU 	16147
SMT1TMRL 	EQU 	16146
SMT1TMRU 	EQU 	16148
SMT1TS 	EQU 	2
SMT1WIN 	EQU 	16163
SMT1WINPPS 	EQU 	15057
SMT1WOL 	EQU 	4
SMT1WS 	EQU 	1
SMT1WSEL0 	EQU 	0
SMT1WSEL1 	EQU 	1
SMT1WSEL2 	EQU 	2
SMT1WSEL3 	EQU 	3
SMT1WSEL4 	EQU 	4
SOI 	EQU 	3
SOR 	EQU 	3
SOSCEN 	EQU 	3
SOSCPWR 	EQU 	6
SOSIE 	EQU 	5
SOSIF 	EQU 	5
SP0 	EQU 	0
SP1 	EQU 	1
SP2 	EQU 	2
SP3 	EQU 	3
SP4 	EQU 	4
SPI1BAUD 	EQU 	15641
SPI1BMODE 	EQU 	0
SPI1BUSY 	EQU 	7
SPI1CKE 	EQU 	6
SPI1CKP 	EQU 	5
SPI1CLK 	EQU 	15644
SPI1CLKSEL0 	EQU 	0
SPI1CLKSEL1 	EQU 	1
SPI1CLKSEL2 	EQU 	2
SPI1CLRBF 	EQU 	2
SPI1CON0 	EQU 	15636
SPI1CON0_EN 	EQU 	7
SPI1CON1 	EQU 	15637
SPI1CON2 	EQU 	15638
SPI1EOSIE 	EQU 	4
SPI1EOSIF 	EQU 	4
SPI1FST 	EQU 	4
SPI1IE 	EQU 	6
SPI1IF 	EQU 	6
SPI1INTE 	EQU 	15643
SPI1INTF 	EQU 	15642
SPI1IP 	EQU 	6
SPI1LSBF 	EQU 	2
SPI1MD 	EQU 	2
SPI1MST 	EQU 	1
SPI1RXB 	EQU 	15632
SPI1RXBF 	EQU 	0
SPI1RXIE 	EQU 	4
SPI1RXIF 	EQU 	4
SPI1RXIP 	EQU 	4
SPI1RXOIE 	EQU 	2
SPI1RXOIF 	EQU 	2
SPI1RXR 	EQU 	0
SPI1RXRE 	EQU 	3
SPI1SCKPPS 	EQU 	15070
SPI1SDIP 	EQU 	1
SPI1SDIPPS 	EQU 	15071
SPI1SDOP 	EQU 	0
SPI1SMP 	EQU 	7
SPI1SOSIE 	EQU 	5
SPI1SOSIF 	EQU 	5
SPI1SPIEN 	EQU 	7
SPI1SRMTIE 	EQU 	7
SPI1SRMTIF 	EQU 	7
SPI1SSET 	EQU 	2
SPI1SSFLT 	EQU 	6
SPI1SSP 	EQU 	2
SPI1SSPPS 	EQU 	15072
SPI1STATUS 	EQU 	15639
SPI1STATUS_RXBF 	EQU 	0
SPI1STATUS_TXBE 	EQU 	5
SPI1TCNT 	EQU 	15634
SPI1TCNTH 	EQU 	15635
SPI1TCNTL 	EQU 	15634
SPI1TCZIE 	EQU 	6
SPI1TCZIF 	EQU 	6
SPI1TWIDTH 	EQU 	15640
SPI1TXB 	EQU 	15633
SPI1TXBE 	EQU 	5
SPI1TXIE 	EQU 	5
SPI1TXIF 	EQU 	5
SPI1TXIP 	EQU 	5
SPI1TXR 	EQU 	1
SPI1TXUIE 	EQU 	1
SPI1TXUIF 	EQU 	1
SPI1TXWE 	EQU 	7
SPOL 	EQU 	3
SPTR0 	EQU 	0
SPTR1 	EQU 	1
SPTR10 	EQU 	2
SPTR11 	EQU 	3
SPTR12 	EQU 	4
SPTR13 	EQU 	5
SPTR14 	EQU 	6
SPTR15 	EQU 	7
SPTR16 	EQU 	0
SPTR17 	EQU 	1
SPTR18 	EQU 	2
SPTR19 	EQU 	3
SPTR2 	EQU 	2
SPTR20 	EQU 	4
SPTR21 	EQU 	5
SPTR3 	EQU 	3
SPTR4 	EQU 	4
SPTR5 	EQU 	5
SPTR6 	EQU 	6
SPTR7 	EQU 	7
SPTR8 	EQU 	0
SPTR9 	EQU 	1
SRMTIE 	EQU 	7
SRMTIF 	EQU 	7
SSA0 	EQU 	0
SSA1 	EQU 	1
SSA10 	EQU 	2
SSA11 	EQU 	3
SSA12 	EQU 	4
SSA13 	EQU 	5
SSA14 	EQU 	6
SSA15 	EQU 	7
SSA16 	EQU 	0
SSA17 	EQU 	1
SSA18 	EQU 	2
SSA19 	EQU 	3
SSA2 	EQU 	2
SSA20 	EQU 	4
SSA21 	EQU 	5
SSA3 	EQU 	3
SSA4 	EQU 	4
SSA5 	EQU 	5
SSA6 	EQU 	6
SSA7 	EQU 	7
SSA8 	EQU 	0
SSA9 	EQU 	1
SSEL0 	EQU 	0
SSEL1 	EQU 	1
SSEL2 	EQU 	2
SSEL3 	EQU 	3
SSEL4 	EQU 	4
SSET 	EQU 	2
SSFLT 	EQU 	6
SSP 	EQU 	2
SSTP 	EQU 	0
SSZ0 	EQU 	0
SSZ1 	EQU 	1
SSZ10 	EQU 	2
SSZ11 	EQU 	3
SSZ2 	EQU 	2
SSZ3 	EQU 	3
SSZ4 	EQU 	4
SSZ5 	EQU 	5
SSZ6 	EQU 	6
SSZ7 	EQU 	7
SSZ8 	EQU 	0
SSZ9 	EQU 	1
STAT0_ADSTAT 	EQU 	0
STAT0_INTCON1 	EQU 	6
STAT1_ADSTAT 	EQU 	1
STAT1_INTCON1 	EQU 	7
STAT2 	EQU 	2
STATE 	EQU 	2
STATUS 	EQU 	16344
STATUS_CSHAD 	EQU 	14464
STATUS_CSHAD_C 	EQU 	0
STATUS_CSHAD_DC 	EQU 	1
STATUS_CSHAD_N 	EQU 	4
STATUS_CSHAD_NOT_PD 	EQU 	5
STATUS_CSHAD_NOT_TO 	EQU 	6
STATUS_CSHAD_PD 	EQU 	5
STATUS_CSHAD_TO 	EQU 	6
STATUS_CSHAD_Z 	EQU 	2
STATUS_SHAD 	EQU 	14468
STATUS_SHAD_C 	EQU 	0
STATUS_SHAD_DC 	EQU 	1
STATUS_SHAD_N 	EQU 	4
STATUS_SHAD_NOT_PD 	EQU 	5
STATUS_SHAD_NOT_TO 	EQU 	6
STATUS_SHAD_PD 	EQU 	5
STATUS_SHAD_TO 	EQU 	6
STATUS_SHAD_Z 	EQU 	2
STKOVF 	EQU 	7
STKPTR 	EQU 	16380
STKPTR0 	EQU 	0
STKPTR1 	EQU 	1
STKPTR2 	EQU 	2
STKPTR3 	EQU 	3
STKPTR4 	EQU 	4
STKUNF 	EQU 	6
STP 	EQU 	5
STP0 	EQU 	4
STP1 	EQU 	5
STPMD 	EQU 	6
STPT0 	EQU 	0
STPT1 	EQU 	1
STPT10 	EQU 	2
STPT11 	EQU 	3
STPT12 	EQU 	4
STPT13 	EQU 	5
STPT15 	EQU 	6
STPT16 	EQU 	7
STPT2 	EQU 	2
STPT3 	EQU 	3
STPT4 	EQU 	4
STPT5 	EQU 	5
STPT6 	EQU 	6
STPT7 	EQU 	7
STPT8 	EQU 	0
STPT9 	EQU 	1
STRA 	EQU 	0
STRB 	EQU 	1
STRC 	EQU 	2
STRD 	EQU 	3
STRINGPOINTER 	EQU 	99
STRINGTABLE1 	EQU 	4476
STRINGTABLE10 	EQU 	4562
STRINGTABLE2 	EQU 	4494
STRINGTABLE3 	EQU 	4504
STRINGTABLE4 	EQU 	4512
STRINGTABLE5 	EQU 	4520
STRINGTABLE6 	EQU 	4530
STRINGTABLE7 	EQU 	4540
STRINGTABLE8 	EQU 	4550
STRINGTABLE9 	EQU 	4560
SWDTEN 	EQU 	0
SWIE 	EQU 	0
SWIF 	EQU 	0
SWIP 	EQU 	0
SYNC 	EQU 	0
SYSBCDTODECBYTE 	EQU 	13
SYSBITVAR0 	EQU 	100
SYSBITVAR3 	EQU 	101
SYSBSR 	EQU 	102
SYSBYTETEMPA 	EQU 	5
SYSBYTETEMPB 	EQU 	9
SYSBYTETEMPX 	EQU 	0
SYSCALCTEMPA 	EQU 	5
SYSCALCTEMPA_E 	EQU 	8
SYSCALCTEMPA_H 	EQU 	6
SYSCALCTEMPA_U 	EQU 	7
SYSCMD 	EQU 	7
SYSCOMPEQUAL16 	EQU 	4154
SYSCOMPEQUAL32 	EQU 	4172
SYSCOMPLESSTHAN 	EQU 	4202
SYSDECTOBCDBYTE 	EQU 	39
SYSDIV32START 	EQU 	4336
SYSDIV8START 	EQU 	4224
SYSDIVLOOP 	EQU 	4
SYSDIVSUB 	EQU 	4212
SYSDIVSUB32 	EQU 	4252
SYSDOLOOP_E1 	EQU 	764
SYSDOLOOP_E2 	EQU 	3008
SYSDOLOOP_S1 	EQU 	370
SYSDOLOOP_S2 	EQU 	2912
SYSFORLOOP1 	EQU 	2812
SYSFORLOOP10 	EQU 	3324
SYSFORLOOP2 	EQU 	3028
SYSFORLOOP3 	EQU 	2468
SYSFORLOOP4 	EQU 	2562
SYSFORLOOP5 	EQU 	2576
SYSFORLOOP6 	EQU 	2590
SYSFORLOOP7 	EQU 	2308
SYSFORLOOP8 	EQU 	2312
SYSFORLOOP9 	EQU 	2326
SYSFORLOOPEND1 	EQU 	2900
SYSFORLOOPEND10 	EQU 	3354
SYSFORLOOPEND2 	EQU 	3116
SYSFORLOOPEND3 	EQU 	2758
SYSFORLOOPEND4 	EQU 	2742
SYSFORLOOPEND5 	EQU 	2724
SYSFORLOOPEND6 	EQU 	2714
SYSFORLOOPEND7 	EQU 	2372
SYSFORLOOPEND8 	EQU 	2360
SYSFORLOOPEND9 	EQU 	2352
SYSINTSTATESAVE0 	EQU 	103
SYSLCDPRINTDATAHANDLER 	EQU 	104
SYSLCDPRINTDATAHANDLER_H 	EQU 	105
SYSLONGDIVMULTA 	EQU 	106
SYSLONGDIVMULTA_E 	EQU 	109
SYSLONGDIVMULTA_H 	EQU 	107
SYSLONGDIVMULTA_U 	EQU 	108
SYSLONGDIVMULTB 	EQU 	110
SYSLONGDIVMULTB_E 	EQU 	113
SYSLONGDIVMULTB_H 	EQU 	111
SYSLONGDIVMULTB_U 	EQU 	112
SYSLONGDIVMULTX 	EQU 	114
SYSLONGDIVMULTX_E 	EQU 	117
SYSLONGDIVMULTX_H 	EQU 	115
SYSLONGDIVMULTX_U 	EQU 	116
SYSLONGTEMPA 	EQU 	5
SYSLONGTEMPA_E 	EQU 	8
SYSLONGTEMPA_H 	EQU 	6
SYSLONGTEMPA_U 	EQU 	7
SYSLONGTEMPB 	EQU 	9
SYSLONGTEMPB_E 	EQU 	12
SYSLONGTEMPB_H 	EQU 	10
SYSLONGTEMPB_U 	EQU 	11
SYSLONGTEMPX 	EQU 	0
SYSLONGTEMPX_E 	EQU 	3
SYSLONGTEMPX_H 	EQU 	1
SYSLONGTEMPX_U 	EQU 	2
SYSPRINTBUFFER 	EQU 	8163
SYSPRINTBUFFLEN 	EQU 	118
SYSPRINTDATAHANDLER 	EQU 	119
SYSPRINTDATAHANDLER_H 	EQU 	120
SYSPRINTTEMP 	EQU 	121
SYSREADSTRING 	EQU 	4432
SYSREADSTRINGPART 	EQU 	4448
SYSREPEATLOOP1 	EQU 	4098
SYSREPEATLOOP2 	EQU 	3514
SYSREPEATLOOP3 	EQU 	3400
SYSREPEATLOOPEND1 	EQU 	4104
SYSREPEATLOOPEND2 	EQU 	3566
SYSREPEATLOOPEND3 	EQU 	3446
SYSREPEATTEMP1 	EQU 	122
SYSREPEATTEMP2 	EQU 	123
SYSREPEATTEMP3 	EQU 	124
SYSSELECT1CASE1 	EQU 	1448
SYSSELECT1CASE2 	EQU 	1460
SYSSELECT1CASE3 	EQU 	1472
SYSSELECT1CASE4 	EQU 	1486
SYSSELECT1CASE5 	EQU 	1500
SYSSELECT2CASE1 	EQU 	2470
SYSSELECT2CASE2 	EQU 	2486
SYSSELECT2CASE3 	EQU 	2504
SYSSELECT2CASE4 	EQU 	2522
SYSSELECT2CASE5 	EQU 	2540
SYSSELECTEND1 	EQU 	1504
SYSSELECTEND2 	EQU 	2556
SYSSTATUS 	EQU 	15
SYSSTRINGA 	EQU 	7
SYSSTRINGA_H 	EQU 	8
SYSSTRINGLENGTH 	EQU 	6
SYSSTRINGPARAM1 	EQU 	8174
SYSSTRINGREAD 	EQU 	4462
SYSSTRINGREADCHECK 	EQU 	4456
SYSSTRINGTABLES 	EQU 	4476
SYSTEMP1 	EQU 	125
SYSTEMP1_E 	EQU 	128
SYSTEMP1_H 	EQU 	126
SYSTEMP1_U 	EQU 	127
SYSTEMP2 	EQU 	129
SYSTEMP2_H 	EQU 	130
SYSW 	EQU 	14
SYSWAITLOOP1 	EQU 	3232
SYSWAITLOOP2 	EQU 	3356
SYSWAITLOOP3 	EQU 	3538
SYSWAITLOOP4 	EQU 	3588
SYSWAITLOOP5 	EQU 	3410
SYSWAITLOOP6 	EQU 	3470
SYSWAITLOOP7 	EQU 	3372
SYSWAITTEMPMS 	EQU 	2
SYSWAITTEMPMS_H 	EQU 	3
SYSWAITTEMPS 	EQU 	4
SYSWAITTEMPUS 	EQU 	5
SYSWAITTEMPUS_H 	EQU 	6
SYSWORDTEMPA 	EQU 	5
SYSWORDTEMPA_H 	EQU 	6
SYSWORDTEMPB 	EQU 	9
SYSWORDTEMPB_H 	EQU 	10
T016BIT 	EQU 	4
T0ASYNC 	EQU 	4
T0CKIPPS 	EQU 	15043
T0CKPS0 	EQU 	0
T0CKPS1 	EQU 	1
T0CKPS2 	EQU 	2
T0CKPS3 	EQU 	3
T0CON0 	EQU 	16312
T0CON0_EN 	EQU 	7
T0CON0_OUTPS0 	EQU 	0
T0CON0_OUTPS1 	EQU 	1
T0CON0_OUTPS2 	EQU 	2
T0CON0_OUTPS3 	EQU 	3
T0CON1 	EQU 	16313
T0CS0 	EQU 	5
T0CS1 	EQU 	6
T0CS2 	EQU 	7
T0EN 	EQU 	7
T0MD16 	EQU 	4
T0OUT 	EQU 	5
T0PR0 	EQU 	0
T0PR1 	EQU 	1
T0PR2 	EQU 	2
T0PR3 	EQU 	3
T0PR4 	EQU 	4
T0PR5 	EQU 	5
T0PR6 	EQU 	6
T0PR7 	EQU 	7
T1CKIPPS 	EQU 	15044
T1CKPS0 	EQU 	4
T1CKPS1 	EQU 	5
T1CLK 	EQU 	16309
T1CON 	EQU 	16306
T1CS0 	EQU 	0
T1CS1 	EQU 	1
T1CS2 	EQU 	2
T1CS3 	EQU 	3
T1CS4 	EQU 	4
T1GATE 	EQU 	16308
T1GCON 	EQU 	16307
T1GE 	EQU 	7
T1GGO 	EQU 	3
T1GPOL 	EQU 	6
T1GPPS 	EQU 	15045
T1GSPM 	EQU 	4
T1GSS0 	EQU 	0
T1GSS1 	EQU 	1
T1GSS2 	EQU 	2
T1GSS3 	EQU 	3
T1GSS4 	EQU 	4
T1GTM 	EQU 	5
T1GVAL 	EQU 	2
T1RD16 	EQU 	1
T2CKPOL 	EQU 	6
T2CKPS0 	EQU 	4
T2CKPS1 	EQU 	5
T2CKPS2 	EQU 	6
T2CKSYNC 	EQU 	5
T2CLK 	EQU 	16302
T2CLKCON 	EQU 	16302
T2CLKCON_CS3 	EQU 	3
T2CLKCON_T2CS0 	EQU 	0
T2CLKCON_T2CS1 	EQU 	1
T2CLKCON_T2CS2 	EQU 	2
T2CLKCON_T2CS3 	EQU 	3
T2CLK_CS3 	EQU 	3
T2CON 	EQU 	16300
T2CON_OUTPS0 	EQU 	0
T2CON_OUTPS1 	EQU 	1
T2CON_OUTPS2 	EQU 	2
T2CON_OUTPS3 	EQU 	3
T2CS0 	EQU 	0
T2CS1 	EQU 	1
T2CS2 	EQU 	2
T2CS3 	EQU 	3
T2HLT 	EQU 	16301
T2HLT_CKPOL 	EQU 	6
T2HLT_CKSYNC 	EQU 	5
T2HLT_MODE0 	EQU 	0
T2HLT_MODE1 	EQU 	1
T2HLT_MODE2 	EQU 	2
T2HLT_MODE3 	EQU 	3
T2HLT_MODE4 	EQU 	4
T2HLT_PSYNC 	EQU 	7
T2INPPS 	EQU 	15050
T2MODE0 	EQU 	0
T2MODE1 	EQU 	1
T2MODE2 	EQU 	2
T2MODE3 	EQU 	3
T2MODE4 	EQU 	4
T2ON 	EQU 	7
T2OUTPS0 	EQU 	0
T2OUTPS1 	EQU 	1
T2OUTPS2 	EQU 	2
T2OUTPS3 	EQU 	3
T2PR 	EQU 	16299
T2PSYNC 	EQU 	7
T2RSEL0 	EQU 	0
T2RSEL1 	EQU 	1
T2RSEL2 	EQU 	2
T2RSEL3 	EQU 	3
T2RSEL4 	EQU 	4
T2RST 	EQU 	16303
T2RST_RSEL0 	EQU 	0
T2RST_RSEL1 	EQU 	1
T2RST_RSEL2 	EQU 	2
T2RST_RSEL3 	EQU 	3
T2RST_RSEL4 	EQU 	4
T2TMR 	EQU 	16298
T3CKIPPS 	EQU 	15046
T3CKPS0 	EQU 	4
T3CKPS1 	EQU 	5
T3CLK 	EQU 	16297
T3CLK_CS3 	EQU 	3
T3CLK_CS4 	EQU 	4
T3CON 	EQU 	16294
T3CON_NOT_SYNC 	EQU 	2
T3CON_RD16 	EQU 	1
T3CS0 	EQU 	0
T3CS1 	EQU 	1
T3CS2 	EQU 	2
T3CS3 	EQU 	3
T3CS4 	EQU 	4
T3GATE 	EQU 	16296
T3GATE_GSS0 	EQU 	0
T3GATE_GSS1 	EQU 	1
T3GATE_GSS2 	EQU 	2
T3GATE_GSS3 	EQU 	3
T3GATE_GSS4 	EQU 	4
T3GCON 	EQU 	16295
T3GCON_GE 	EQU 	7
T3GCON_GGO 	EQU 	3
T3GCON_GSPM 	EQU 	4
T3GCON_GTM 	EQU 	5
T3GCON_GVAL 	EQU 	2
T3GCON_NOT_DONE 	EQU 	3
T3GE 	EQU 	7
T3GGO 	EQU 	3
T3GPOL 	EQU 	6
T3GPPS 	EQU 	15047
T3GSPM 	EQU 	4
T3GSS0 	EQU 	0
T3GSS1 	EQU 	1
T3GSS2 	EQU 	2
T3GSS3 	EQU 	3
T3GSS4 	EQU 	4
T3GTM 	EQU 	5
T3GVAL 	EQU 	2
T3RD16 	EQU 	1
T4CKPOL 	EQU 	6
T4CKPS0 	EQU 	4
T4CKPS1 	EQU 	5
T4CKPS2 	EQU 	6
T4CKSYNC 	EQU 	5
T4CLK 	EQU 	16290
T4CLKCON 	EQU 	16290
T4CLKCON_CS3 	EQU 	3
T4CLKCON_T4CS0 	EQU 	0
T4CLKCON_T4CS1 	EQU 	1
T4CLKCON_T4CS2 	EQU 	2
T4CLKCON_T4CS3 	EQU 	3
T4CLK_CS3 	EQU 	3
T4CON 	EQU 	16288
T4CON_OUTPS0 	EQU 	0
T4CON_OUTPS1 	EQU 	1
T4CON_OUTPS2 	EQU 	2
T4CON_OUTPS3 	EQU 	3
T4CS0 	EQU 	0
T4CS1 	EQU 	1
T4CS2 	EQU 	2
T4CS3 	EQU 	3
T4HLT 	EQU 	16289
T4HLT_CKPOL 	EQU 	6
T4HLT_CKSYNC 	EQU 	5
T4HLT_MODE0 	EQU 	0
T4HLT_MODE1 	EQU 	1
T4HLT_MODE2 	EQU 	2
T4HLT_MODE3 	EQU 	3
T4HLT_MODE4 	EQU 	4
T4HLT_PSYNC 	EQU 	7
T4INPPS 	EQU 	15051
T4MODE0 	EQU 	0
T4MODE1 	EQU 	1
T4MODE2 	EQU 	2
T4MODE3 	EQU 	3
T4MODE4 	EQU 	4
T4ON 	EQU 	7
T4OUTPS0 	EQU 	0
T4OUTPS1 	EQU 	1
T4OUTPS2 	EQU 	2
T4OUTPS3 	EQU 	3
T4PR 	EQU 	16287
T4PSYNC 	EQU 	7
T4RSEL0 	EQU 	0
T4RSEL1 	EQU 	1
T4RSEL2 	EQU 	2
T4RSEL3 	EQU 	3
T4RSEL4 	EQU 	4
T4RST 	EQU 	16291
T4RST_RSEL0 	EQU 	0
T4RST_RSEL1 	EQU 	1
T4RST_RSEL2 	EQU 	2
T4RST_RSEL3 	EQU 	3
T4RST_RSEL4 	EQU 	4
T4TMR 	EQU 	16286
T5CKIPPS 	EQU 	15048
T5CKPS0 	EQU 	4
T5CKPS1 	EQU 	5
T5CLK 	EQU 	16285
T5CLK_CS3 	EQU 	3
T5CLK_CS4 	EQU 	4
T5CON 	EQU 	16282
T5CON_NOT_SYNC 	EQU 	2
T5CON_RD16 	EQU 	1
T5CS0 	EQU 	0
T5CS1 	EQU 	1
T5CS2 	EQU 	2
T5CS3 	EQU 	3
T5CS4 	EQU 	4
T5GATE 	EQU 	16284
T5GATE_GSS0 	EQU 	0
T5GATE_GSS1 	EQU 	1
T5GATE_GSS2 	EQU 	2
T5GATE_GSS3 	EQU 	3
T5GATE_GSS4 	EQU 	4
T5GCON 	EQU 	16283
T5GCON_GE 	EQU 	7
T5GCON_GGO 	EQU 	3
T5GCON_GSPM 	EQU 	4
T5GCON_GTM 	EQU 	5
T5GCON_GVAL 	EQU 	2
T5GCON_NOT_DONE 	EQU 	3
T5GE 	EQU 	7
T5GGO 	EQU 	3
T5GPOL 	EQU 	6
T5GPPS 	EQU 	15049
T5GSPM 	EQU 	4
T5GSS0 	EQU 	0
T5GSS1 	EQU 	1
T5GSS2 	EQU 	2
T5GSS3 	EQU 	3
T5GSS4 	EQU 	4
T5GTM 	EQU 	5
T5GVAL 	EQU 	2
T5RD16 	EQU 	1
T6CKPOL 	EQU 	6
T6CKPS0 	EQU 	4
T6CKPS1 	EQU 	5
T6CKPS2 	EQU 	6
T6CKSYNC 	EQU 	5
T6CLK 	EQU 	16278
T6CLKCON 	EQU 	16278
T6CLKCON_CS3 	EQU 	3
T6CLKCON_T6CS0 	EQU 	0
T6CLKCON_T6CS1 	EQU 	1
T6CLKCON_T6CS2 	EQU 	2
T6CLKCON_T6CS3 	EQU 	3
T6CLK_CS3 	EQU 	3
T6CON 	EQU 	16276
T6CS0 	EQU 	0
T6CS1 	EQU 	1
T6CS2 	EQU 	2
T6CS3 	EQU 	3
T6HLT 	EQU 	16277
T6HLT_MODE0 	EQU 	0
T6HLT_MODE1 	EQU 	1
T6HLT_MODE2 	EQU 	2
T6HLT_MODE3 	EQU 	3
T6INPPS 	EQU 	15052
T6MODE0 	EQU 	0
T6MODE1 	EQU 	1
T6MODE2 	EQU 	2
T6MODE3 	EQU 	3
T6MODE4 	EQU 	4
T6ON 	EQU 	7
T6OUTPS0 	EQU 	0
T6OUTPS1 	EQU 	1
T6OUTPS2 	EQU 	2
T6OUTPS3 	EQU 	3
T6PR 	EQU 	16275
T6PSYNC 	EQU 	7
T6RSEL0 	EQU 	0
T6RSEL1 	EQU 	1
T6RSEL2 	EQU 	2
T6RSEL3 	EQU 	3
T6RSEL4 	EQU 	4
T6RST 	EQU 	16279
T6TMR 	EQU 	16274
TABLAT 	EQU 	16373
TABLEGLCDCHARCOL3 	EQU 	1592
TABLEGLCDCHARCOL4 	EQU 	1740
TABLEGLCDCHARCOL5 	EQU 	1888
TABLEGLCDCHARCOL6 	EQU 	2036
TABLEGLCDCHARCOL7 	EQU 	2184
TBLPTR 	EQU 	16374
TBLPTRH 	EQU 	16375
TBLPTRL 	EQU 	16374
TBLPTRU 	EQU 	16376
TCZIE 	EQU 	6
TCZIF 	EQU 	6
TH0 	EQU 	0
TH1 	EQU 	1
TMD0 	EQU 	0
TMD1 	EQU 	1
TMD2 	EQU 	2
TMR0 	EQU 	16310
TMR0H 	EQU 	16311
TMR0H0 	EQU 	0
TMR0H1 	EQU 	1
TMR0H2 	EQU 	2
TMR0H3 	EQU 	3
TMR0H4 	EQU 	4
TMR0H5 	EQU 	5
TMR0H6 	EQU 	6
TMR0H7 	EQU 	7
TMR0H_T0PR0 	EQU 	0
TMR0H_T0PR1 	EQU 	1
TMR0H_T0PR2 	EQU 	2
TMR0H_T0PR3 	EQU 	3
TMR0H_T0PR4 	EQU 	4
TMR0H_T0PR5 	EQU 	5
TMR0H_T0PR6 	EQU 	6
TMR0H_T0PR7 	EQU 	7
TMR0H_TMR0H0 	EQU 	0
TMR0H_TMR0H1 	EQU 	1
TMR0H_TMR0H2 	EQU 	2
TMR0H_TMR0H3 	EQU 	3
TMR0H_TMR0H4 	EQU 	4
TMR0H_TMR0H5 	EQU 	5
TMR0H_TMR0H6 	EQU 	6
TMR0H_TMR0H7 	EQU 	7
TMR0IE 	EQU 	7
TMR0IF 	EQU 	7
TMR0IP 	EQU 	7
TMR0L 	EQU 	16310
TMR0L0 	EQU 	0
TMR0L1 	EQU 	1
TMR0L2 	EQU 	2
TMR0L3 	EQU 	3
TMR0L4 	EQU 	4
TMR0L5 	EQU 	5
TMR0L6 	EQU 	6
TMR0L7 	EQU 	7
TMR0L_TMR0L0 	EQU 	0
TMR0L_TMR0L1 	EQU 	1
TMR0L_TMR0L2 	EQU 	2
TMR0L_TMR0L3 	EQU 	3
TMR0L_TMR0L4 	EQU 	4
TMR0L_TMR0L5 	EQU 	5
TMR0L_TMR0L6 	EQU 	6
TMR0L_TMR0L7 	EQU 	7
TMR0MD 	EQU 	0
TMR1 	EQU 	1
TMR10 	EQU 	2
TMR11 	EQU 	3
TMR12 	EQU 	4
TMR13 	EQU 	5
TMR14 	EQU 	6
TMR15 	EQU 	7
TMR16 	EQU 	0
TMR17 	EQU 	1
TMR18 	EQU 	2
TMR19 	EQU 	3
TMR1CLK 	EQU 	16309
TMR1CLK_CS3 	EQU 	3
TMR1CLK_CS4 	EQU 	4
TMR1CLK_T1CS0 	EQU 	0
TMR1CLK_T1CS1 	EQU 	1
TMR1CLK_T1CS2 	EQU 	2
TMR1CLK_T1CS3 	EQU 	3
TMR1CLK_T1CS4 	EQU 	4
TMR1CON 	EQU 	16306
TMR1CON_NOT_SYNC 	EQU 	2
TMR1CON_NOT_T1SYNC 	EQU 	2
TMR1CON_RD16 	EQU 	1
TMR1CON_T1CKPS0 	EQU 	4
TMR1CON_T1CKPS1 	EQU 	5
TMR1CON_T1RD16 	EQU 	1
TMR1CON_TMR1ON 	EQU 	0
TMR1GATE 	EQU 	16308
TMR1GATE_GSS0 	EQU 	0
TMR1GATE_GSS1 	EQU 	1
TMR1GATE_GSS2 	EQU 	2
TMR1GATE_GSS3 	EQU 	3
TMR1GATE_GSS4 	EQU 	4
TMR1GATE_T1GSS0 	EQU 	0
TMR1GATE_T1GSS1 	EQU 	1
TMR1GATE_T1GSS2 	EQU 	2
TMR1GATE_T1GSS3 	EQU 	3
TMR1GATE_T1GSS4 	EQU 	4
TMR1GCON 	EQU 	16307
TMR1GCON_GE 	EQU 	7
TMR1GCON_GGO 	EQU 	3
TMR1GCON_GSPM 	EQU 	4
TMR1GCON_GTM 	EQU 	5
TMR1GCON_GVAL 	EQU 	2
TMR1GCON_NOT_DONE 	EQU 	3
TMR1GCON_NOT_T1DONE 	EQU 	3
TMR1GCON_T1GE 	EQU 	7
TMR1GCON_T1GGO 	EQU 	3
TMR1GCON_T1GPOL 	EQU 	6
TMR1GCON_T1GSPM 	EQU 	4
TMR1GCON_T1GTM 	EQU 	5
TMR1GCON_T1GVAL 	EQU 	2
TMR1GIE 	EQU 	1
TMR1GIF 	EQU 	1
TMR1GIP 	EQU 	1
TMR1H 	EQU 	16305
TMR1H0 	EQU 	0
TMR1H1 	EQU 	1
TMR1H2 	EQU 	2
TMR1H3 	EQU 	3
TMR1H4 	EQU 	4
TMR1H5 	EQU 	5
TMR1H6 	EQU 	6
TMR1H7 	EQU 	7
TMR1IE 	EQU 	0
TMR1IF 	EQU 	0
TMR1IP 	EQU 	0
TMR1L 	EQU 	16304
TMR1L0 	EQU 	0
TMR1L1 	EQU 	1
TMR1L2 	EQU 	2
TMR1L3 	EQU 	3
TMR1L4 	EQU 	4
TMR1L5 	EQU 	5
TMR1L6 	EQU 	6
TMR1L7 	EQU 	7
TMR1MD 	EQU 	1
TMR1ON 	EQU 	0
TMR2 	EQU 	16298
TMR20 	EQU 	4
TMR21 	EQU 	5
TMR22 	EQU 	6
TMR23 	EQU 	7
TMR2IE 	EQU 	2
TMR2IF 	EQU 	2
TMR2IP 	EQU 	2
TMR2MD 	EQU 	2
TMR2ON 	EQU 	7
TMR3 	EQU 	3
TMR3CLK 	EQU 	16297
TMR3CLK_CS3 	EQU 	3
TMR3CLK_CS4 	EQU 	4
TMR3CLK_T3CS0 	EQU 	0
TMR3CLK_T3CS1 	EQU 	1
TMR3CLK_T3CS2 	EQU 	2
TMR3CLK_T3CS3 	EQU 	3
TMR3CLK_T3CS4 	EQU 	4
TMR3CON 	EQU 	16294
TMR3CON_NOT_SYNC 	EQU 	2
TMR3CON_NOT_T3SYNC 	EQU 	2
TMR3CON_RD16 	EQU 	1
TMR3CON_T3CKPS0 	EQU 	4
TMR3CON_T3CKPS1 	EQU 	5
TMR3CON_T3RD16 	EQU 	1
TMR3CON_TMR3ON 	EQU 	0
TMR3GATE 	EQU 	16296
TMR3GATE_GSS0 	EQU 	0
TMR3GATE_GSS1 	EQU 	1
TMR3GATE_GSS2 	EQU 	2
TMR3GATE_GSS3 	EQU 	3
TMR3GATE_GSS4 	EQU 	4
TMR3GATE_T3GSS0 	EQU 	0
TMR3GATE_T3GSS1 	EQU 	1
TMR3GATE_T3GSS2 	EQU 	2
TMR3GATE_T3GSS3 	EQU 	3
TMR3GATE_T3GSS4 	EQU 	4
TMR3GCON 	EQU 	16295
TMR3GCON_GE 	EQU 	7
TMR3GCON_GGO 	EQU 	3
TMR3GCON_GSPM 	EQU 	4
TMR3GCON_GTM 	EQU 	5
TMR3GCON_GVAL 	EQU 	2
TMR3GCON_NOT_DONE 	EQU 	3
TMR3GCON_NOT_T3DONE 	EQU 	3
TMR3GCON_T3GE 	EQU 	7
TMR3GCON_T3GGO 	EQU 	3
TMR3GCON_T3GPOL 	EQU 	6
TMR3GCON_T3GSPM 	EQU 	4
TMR3GCON_T3GTM 	EQU 	5
TMR3GCON_T3GVAL 	EQU 	2
TMR3GIE 	EQU 	7
TMR3GIF 	EQU 	7
TMR3GIP 	EQU 	7
TMR3H 	EQU 	16293
TMR3H0 	EQU 	0
TMR3H1 	EQU 	1
TMR3H2 	EQU 	2
TMR3H3 	EQU 	3
TMR3H4 	EQU 	4
TMR3H5 	EQU 	5
TMR3H6 	EQU 	6
TMR3H7 	EQU 	7
TMR3IE 	EQU 	6
TMR3IF 	EQU 	6
TMR3IP 	EQU 	6
TMR3L 	EQU 	16292
TMR3L0 	EQU 	0
TMR3L1 	EQU 	1
TMR3L2 	EQU 	2
TMR3L3 	EQU 	3
TMR3L4 	EQU 	4
TMR3L5 	EQU 	5
TMR3L6 	EQU 	6
TMR3L7 	EQU 	7
TMR3MD 	EQU 	3
TMR3ON 	EQU 	0
TMR4 	EQU 	16286
TMR4IE 	EQU 	0
TMR4IF 	EQU 	0
TMR4IP 	EQU 	0
TMR4MD 	EQU 	4
TMR4ON 	EQU 	7
TMR5 	EQU 	5
TMR5CLK 	EQU 	16285
TMR5CLK_CS3 	EQU 	3
TMR5CLK_CS4 	EQU 	4
TMR5CLK_T5CS0 	EQU 	0
TMR5CLK_T5CS1 	EQU 	1
TMR5CLK_T5CS2 	EQU 	2
TMR5CLK_T5CS3 	EQU 	3
TMR5CLK_T5CS4 	EQU 	4
TMR5CON 	EQU 	16282
TMR5CON_NOT_SYNC 	EQU 	2
TMR5CON_NOT_T5SYNC 	EQU 	2
TMR5CON_RD16 	EQU 	1
TMR5CON_T5CKPS0 	EQU 	4
TMR5CON_T5CKPS1 	EQU 	5
TMR5CON_T5RD16 	EQU 	1
TMR5CON_TMR5ON 	EQU 	0
TMR5GATE 	EQU 	16284
TMR5GATE_GSS0 	EQU 	0
TMR5GATE_GSS1 	EQU 	1
TMR5GATE_GSS2 	EQU 	2
TMR5GATE_GSS3 	EQU 	3
TMR5GATE_GSS4 	EQU 	4
TMR5GATE_T5GSS0 	EQU 	0
TMR5GATE_T5GSS1 	EQU 	1
TMR5GATE_T5GSS2 	EQU 	2
TMR5GATE_T5GSS3 	EQU 	3
TMR5GATE_T5GSS4 	EQU 	4
TMR5GCON 	EQU 	16283
TMR5GCON_GE 	EQU 	7
TMR5GCON_GGO 	EQU 	3
TMR5GCON_GSPM 	EQU 	4
TMR5GCON_GTM 	EQU 	5
TMR5GCON_GVAL 	EQU 	2
TMR5GCON_NOT_DONE 	EQU 	3
TMR5GCON_NOT_T5DONE 	EQU 	3
TMR5GCON_T5GE 	EQU 	7
TMR5GCON_T5GGO 	EQU 	3
TMR5GCON_T5GPOL 	EQU 	6
TMR5GCON_T5GSPM 	EQU 	4
TMR5GCON_T5GTM 	EQU 	5
TMR5GCON_T5GVAL 	EQU 	2
TMR5GIE 	EQU 	7
TMR5GIF 	EQU 	7
TMR5GIP 	EQU 	7
TMR5H 	EQU 	16281
TMR5H0 	EQU 	0
TMR5H1 	EQU 	1
TMR5H2 	EQU 	2
TMR5H3 	EQU 	3
TMR5H4 	EQU 	4
TMR5H5 	EQU 	5
TMR5H6 	EQU 	6
TMR5H7 	EQU 	7
TMR5IE 	EQU 	6
TMR5IF 	EQU 	6
TMR5IP 	EQU 	6
TMR5L 	EQU 	16280
TMR5L0 	EQU 	0
TMR5L1 	EQU 	1
TMR5L2 	EQU 	2
TMR5L3 	EQU 	3
TMR5L4 	EQU 	4
TMR5L5 	EQU 	5
TMR5L6 	EQU 	6
TMR5L7 	EQU 	7
TMR5MD 	EQU 	5
TMR5ON 	EQU 	0
TMR6 	EQU 	16274
TMR6IE 	EQU 	0
TMR6IF 	EQU 	0
TMR6IP 	EQU 	0
TMR6MD 	EQU 	6
TMR6ON 	EQU 	7
TMR7 	EQU 	7
TMR8 	EQU 	0
TMR9 	EQU 	1
TO 	EQU 	6
TOS 	EQU 	16381
TOSH 	EQU 	16382
TOSL 	EQU 	16381
TOSU 	EQU 	16383
TRIGEN 	EQU 	6
TRISA 	EQU 	16322
TRISA0 	EQU 	0
TRISA1 	EQU 	1
TRISA2 	EQU 	2
TRISA3 	EQU 	3
TRISA4 	EQU 	4
TRISA5 	EQU 	5
TRISA6 	EQU 	6
TRISA7 	EQU 	7
TRISB 	EQU 	16323
TRISB0 	EQU 	0
TRISB1 	EQU 	1
TRISB2 	EQU 	2
TRISB3 	EQU 	3
TRISB4 	EQU 	4
TRISB5 	EQU 	5
TRISB6 	EQU 	6
TRISB7 	EQU 	7
TRISC 	EQU 	16324
TRISC0 	EQU 	0
TRISC1 	EQU 	1
TRISC2 	EQU 	2
TRISC3 	EQU 	3
TRISC4 	EQU 	4
TRISC5 	EQU 	5
TRISC6 	EQU 	6
TRISC7 	EQU 	7
TRISD 	EQU 	16325
TRISD0 	EQU 	0
TRISD1 	EQU 	1
TRISD2 	EQU 	2
TRISD3 	EQU 	3
TRISD4 	EQU 	4
TRISD5 	EQU 	5
TRISD6 	EQU 	6
TRISD7 	EQU 	7
TRISE 	EQU 	16326
TRISE0 	EQU 	0
TRISE1 	EQU 	1
TRISE2 	EQU 	2
TS 	EQU 	2
TSEN 	EQU 	5
TSRNG 	EQU 	4
TUN0 	EQU 	0
TUN1 	EQU 	1
TUN2 	EQU 	2
TUN3 	EQU 	3
TUN4 	EQU 	4
TUN5 	EQU 	5
TWIDTH0 	EQU 	0
TWIDTH1 	EQU 	1
TWIDTH2 	EQU 	2
TXB0 	EQU 	0
TXB1 	EQU 	1
TXB2 	EQU 	2
TXB3 	EQU 	3
TXB4 	EQU 	4
TXB5 	EQU 	5
TXB6 	EQU 	6
TXB7 	EQU 	7
TXBE 	EQU 	5
TXBF 	EQU 	4
TXCIE 	EQU 	0
TXCIF 	EQU 	0
TXEN 	EQU 	5
TXMTIE 	EQU 	7
TXMTIF 	EQU 	7
TXPOL 	EQU 	2
TXR 	EQU 	1
TXU 	EQU 	1
TXUIE 	EQU 	1
TXUIF 	EQU 	1
TXWE 	EQU 	7
TXWRE 	EQU 	7
U1ABDEN 	EQU 	6
U1ABDIE 	EQU 	2
U1ABDIF 	EQU 	6
U1ABDOVE 	EQU 	5
U1ABDOVF 	EQU 	5
U1BRG 	EQU 	15861
U1BRGH 	EQU 	15862
U1BRGL 	EQU 	15861
U1BRGS 	EQU 	7
U1BRKOVR 	EQU 	1
U1C0EN 	EQU 	3
U1CERIE 	EQU 	4
U1CERIF 	EQU 	4
U1CON0 	EQU 	15858
U1CON0_MODE0 	EQU 	0
U1CON0_MODE1 	EQU 	1
U1CON0_MODE2 	EQU 	2
U1CON1 	EQU 	15859
U1CON2 	EQU 	15860
U1CTSPPS 	EQU 	15078
U1EIE 	EQU 	5
U1EIF 	EQU 	5
U1EIP 	EQU 	5
U1ERRIE 	EQU 	15866
U1ERRIR 	EQU 	15865
U1FERIE 	EQU 	3
U1FERIF 	EQU 	3
U1FIFO 	EQU 	15863
U1FLO0 	EQU 	0
U1FLO1 	EQU 	1
U1IE 	EQU 	6
U1IF 	EQU 	6
U1IP 	EQU 	6
U1MD 	EQU 	4
U1MODE0 	EQU 	0
U1MODE1 	EQU 	1
U1MODE2 	EQU 	2
U1ON 	EQU 	7
U1P1 	EQU 	15852
U1P1H 	EQU 	15853
U1P1L 	EQU 	15852
U1P2 	EQU 	15854
U1P2H 	EQU 	15855
U1P2L 	EQU 	15854
U1P3 	EQU 	15856
U1P3H 	EQU 	15857
U1P3L 	EQU 	15856
U1PERIE 	EQU 	6
U1PERIF 	EQU 	6
U1RCIDL 	EQU 	3
U1RUNOVF 	EQU 	7
U1RXB 	EQU 	15848
U1RXBE 	EQU 	1
U1RXBF 	EQU 	0
U1RXBIMD 	EQU 	3
U1RXBKIE 	EQU 	2
U1RXBKIF 	EQU 	2
U1RXBL 	EQU 	15848
U1RXCHK 	EQU 	15849
U1RXEN 	EQU 	4
U1RXFOIE 	EQU 	1
U1RXFOIF 	EQU 	1
U1RXIDL 	EQU 	3
U1RXIE 	EQU 	3
U1RXIF 	EQU 	3
U1RXIP 	EQU 	3
U1RXPOL 	EQU 	6
U1RXPPS 	EQU 	15077
U1SENDB 	EQU 	0
U1STP0 	EQU 	4
U1STP1 	EQU 	5
U1STPMD 	EQU 	6
U1TXB 	EQU 	15850
U1TXBE 	EQU 	5
U1TXBF 	EQU 	4
U1TXBL 	EQU 	15850
U1TXCHK 	EQU 	15851
U1TXCIE 	EQU 	0
U1TXCIF 	EQU 	0
U1TXEN 	EQU 	5
U1TXIE 	EQU 	4
U1TXIF 	EQU 	4
U1TXIP 	EQU 	4
U1TXMTIE 	EQU 	7
U1TXMTIF 	EQU 	7
U1TXPOL 	EQU 	2
U1TXWRE 	EQU 	7
U1UIR 	EQU 	15864
U1WUE 	EQU 	4
U1WUIF 	EQU 	7
U1XON 	EQU 	2
U2ABDEN 	EQU 	6
U2ABDIE 	EQU 	2
U2ABDIF 	EQU 	6
U2ABDOVE 	EQU 	5
U2ABDOVF 	EQU 	5
U2BRG 	EQU 	15837
U2BRGH 	EQU 	15838
U2BRGL 	EQU 	15837
U2BRGS 	EQU 	7
U2BRKOVR 	EQU 	1
U2CERIE 	EQU 	4
U2CERIF 	EQU 	4
U2CON0 	EQU 	15834
U2CON0_ABDEN 	EQU 	6
U2CON0_BRGS 	EQU 	7
U2CON0_MODE0 	EQU 	0
U2CON0_MODE1 	EQU 	1
U2CON0_MODE2 	EQU 	2
U2CON0_RXEN 	EQU 	4
U2CON0_TXEN 	EQU 	5
U2CON1 	EQU 	15835
U2CON1_BRKOVR 	EQU 	1
U2CON1_RXBIMD 	EQU 	3
U2CON1_SENDB 	EQU 	0
U2CON1_WUE 	EQU 	4
U2CON2 	EQU 	15836
U2CON2_FLO0 	EQU 	0
U2CON2_FLO1 	EQU 	1
U2CON2_RUNOVF 	EQU 	7
U2CON2_RXPOL 	EQU 	6
U2CON2_STP0 	EQU 	4
U2CON2_STP1 	EQU 	5
U2CON2_TXPOL 	EQU 	2
U2CTSPPS 	EQU 	15081
U2EIE 	EQU 	4
U2EIF 	EQU 	4
U2EIP 	EQU 	4
U2ERRIE 	EQU 	15842
U2ERRIE_ABDOVE 	EQU 	5
U2ERRIE_CERIE 	EQU 	4
U2ERRIE_FERIE 	EQU 	3
U2ERRIE_PERIE 	EQU 	6
U2ERRIE_RXBKIE 	EQU 	2
U2ERRIE_RXFOIE 	EQU 	1
U2ERRIE_TXCIE 	EQU 	0
U2ERRIE_TXMTIE 	EQU 	7
U2ERRIR 	EQU 	15841
U2ERRIR_ABDOVF 	EQU 	5
U2ERRIR_CERIF 	EQU 	4
U2ERRIR_FERIF 	EQU 	3
U2ERRIR_PERIF 	EQU 	6
U2ERRIR_RXBKIF 	EQU 	2
U2ERRIR_RXFOIF 	EQU 	1
U2ERRIR_TXCIF 	EQU 	0
U2ERRIR_TXMTIF 	EQU 	7
U2FERIE 	EQU 	3
U2FERIF 	EQU 	3
U2FIFO 	EQU 	15839
U2FIFO_RCIDL 	EQU 	3
U2FIFO_RXBE 	EQU 	1
U2FIFO_RXBF 	EQU 	0
U2FIFO_RXIDL 	EQU 	3
U2FIFO_STPMD 	EQU 	6
U2FIFO_TXBE 	EQU 	5
U2FIFO_TXBF 	EQU 	4
U2FIFO_TXWRE 	EQU 	7
U2FIFO_XON 	EQU 	2
U2FLO0 	EQU 	0
U2FLO1 	EQU 	1
U2IE 	EQU 	5
U2IF 	EQU 	5
U2IP 	EQU 	5
U2MD 	EQU 	5
U2MODE0 	EQU 	0
U2MODE1 	EQU 	1
U2MODE2 	EQU 	2
U2ON 	EQU 	7
U2P1 	EQU 	15828
U2P1L 	EQU 	15828
U2P2 	EQU 	15830
U2P2L 	EQU 	15830
U2P3 	EQU 	15832
U2P3L 	EQU 	15832
U2PERIE 	EQU 	6
U2PERIF 	EQU 	6
U2RCIDL 	EQU 	3
U2RUNOVF 	EQU 	7
U2RXB 	EQU 	15824
U2RXBE 	EQU 	1
U2RXBF 	EQU 	0
U2RXBIMD 	EQU 	3
U2RXBKIE 	EQU 	2
U2RXBKIF 	EQU 	2
U2RXBL 	EQU 	15824
U2RXEN 	EQU 	4
U2RXFOIE 	EQU 	1
U2RXFOIF 	EQU 	1
U2RXIDL 	EQU 	3
U2RXIE 	EQU 	2
U2RXIF 	EQU 	2
U2RXIP 	EQU 	2
U2RXPOL 	EQU 	6
U2RXPPS 	EQU 	15080
U2SENDB 	EQU 	0
U2STP0 	EQU 	4
U2STP1 	EQU 	5
U2STPMD 	EQU 	6
U2TXB 	EQU 	15826
U2TXBE 	EQU 	5
U2TXBF 	EQU 	4
U2TXBL 	EQU 	15826
U2TXCIE 	EQU 	0
U2TXCIF 	EQU 	0
U2TXEN 	EQU 	5
U2TXIE 	EQU 	3
U2TXIF 	EQU 	3
U2TXIP 	EQU 	3
U2TXMTIE 	EQU 	7
U2TXMTIF 	EQU 	7
U2TXPOL 	EQU 	2
U2TXWRE 	EQU 	7
U2UIR 	EQU 	15840
U2UIR_ABDIE 	EQU 	2
U2UIR_ABDIF 	EQU 	6
U2UIR_WUIF 	EQU 	7
U2WUE 	EQU 	4
U2WUIF 	EQU 	7
U2XON 	EQU 	2
UPDATEGLCDEVENT 	EQU 	131
UPDATEGLCDEVENT_E 	EQU 	134
UPDATEGLCDEVENT_H 	EQU 	132
UPDATEGLCDEVENT_U 	EQU 	133
UTH0 	EQU 	0
UTH1 	EQU 	1
UTH10 	EQU 	2
UTH11 	EQU 	3
UTH12 	EQU 	4
UTH13 	EQU 	5
UTH14 	EQU 	6
UTH15 	EQU 	7
UTH2 	EQU 	2
UTH3 	EQU 	3
UTH4 	EQU 	4
UTH5 	EQU 	5
UTH6 	EQU 	6
UTH7 	EQU 	7
UTH8 	EQU 	0
UTH9 	EQU 	1
UTHR 	EQU 	6
VA 	EQU 	135
VREGCON 	EQU 	14801
VREGPM 	EQU 	1
W 	EQU 	0
WDTCON0 	EQU 	14683
WDTCON1 	EQU 	14684
WDTCS0 	EQU 	4
WDTCS1 	EQU 	5
WDTCS2 	EQU 	6
WDTPS0 	EQU 	1
WDTPS1 	EQU 	2
WDTPS2 	EQU 	3
WDTPS3 	EQU 	4
WDTPS4 	EQU 	5
WDTPSCNT0 	EQU 	0
WDTPSCNT1 	EQU 	1
WDTPSCNT10 	EQU 	2
WDTPSCNT11 	EQU 	3
WDTPSCNT12 	EQU 	4
WDTPSCNT13 	EQU 	5
WDTPSCNT14 	EQU 	6
WDTPSCNT15 	EQU 	7
WDTPSCNT16 	EQU 	0
WDTPSCNT17 	EQU 	1
WDTPSCNT2 	EQU 	2
WDTPSCNT3 	EQU 	3
WDTPSCNT4 	EQU 	4
WDTPSCNT5 	EQU 	5
WDTPSCNT6 	EQU 	6
WDTPSCNT7 	EQU 	7
WDTPSCNT8 	EQU 	0
WDTPSCNT9 	EQU 	1
WDTPSH 	EQU 	14686
WDTPSL 	EQU 	14685
WDTSEN 	EQU 	0
WDTSTATE 	EQU 	2
WDTTMR 	EQU 	14687
WDTTMR0 	EQU 	3
WDTTMR1 	EQU 	4
WDTTMR2 	EQU 	5
WDTTMR3 	EQU 	6
WDTTMR4 	EQU 	7
WDTWINDOW0 	EQU 	0
WDTWINDOW1 	EQU 	1
WDTWINDOW2 	EQU 	2
WDTWV 	EQU 	5
WINDOW0 	EQU 	0
WINDOW1 	EQU 	1
WINDOW2 	EQU 	2
WPOL 	EQU 	4
WPUA 	EQU 	14913
WPUA0 	EQU 	0
WPUA1 	EQU 	1
WPUA2 	EQU 	2
WPUA3 	EQU 	3
WPUA4 	EQU 	4
WPUA5 	EQU 	5
WPUA6 	EQU 	6
WPUA7 	EQU 	7
WPUB 	EQU 	14929
WPUB0 	EQU 	0
WPUB1 	EQU 	1
WPUB2 	EQU 	2
WPUB3 	EQU 	3
WPUB4 	EQU 	4
WPUB5 	EQU 	5
WPUB6 	EQU 	6
WPUB7 	EQU 	7
WPUC 	EQU 	14945
WPUC0 	EQU 	0
WPUC1 	EQU 	1
WPUC2 	EQU 	2
WPUC3 	EQU 	3
WPUC4 	EQU 	4
WPUC5 	EQU 	5
WPUC6 	EQU 	6
WPUC7 	EQU 	7
WPUD 	EQU 	14961
WPUD0 	EQU 	0
WPUD1 	EQU 	1
WPUD2 	EQU 	2
WPUD3 	EQU 	3
WPUD4 	EQU 	4
WPUD5 	EQU 	5
WPUD6 	EQU 	6
WPUD7 	EQU 	7
WPUE 	EQU 	14977
WPUE0 	EQU 	0
WPUE1 	EQU 	1
WPUE2 	EQU 	2
WPUE3 	EQU 	3
WR 	EQU 	1
WR1IE 	EQU 	4
WR1IF 	EQU 	4
WR2IE 	EQU 	4
WR2IF 	EQU 	4
WREG 	EQU 	16360
WREG_CSHAD 	EQU 	14465
WREG_SHAD 	EQU 	14469
WREN 	EQU 	2
WRERR 	EQU 	3
WRIE 	EQU 	4
WRIF 	EQU 	4
WS 	EQU 	1
WSEL0 	EQU 	0
WSEL1 	EQU 	1
WSEL2 	EQU 	2
WSEL3 	EQU 	3
WSEL4 	EQU 	4
WUE 	EQU 	4
WUIF 	EQU 	7
X1 	EQU 	1
X10 	EQU 	2
X11 	EQU 	3
X12 	EQU 	4
X13 	EQU 	5
X14 	EQU 	6
X15 	EQU 	7
X2 	EQU 	2
X3 	EQU 	3
X4 	EQU 	4
X5 	EQU 	5
X6 	EQU 	6
X7 	EQU 	7
X8 	EQU 	0
X9 	EQU 	1
XIP 	EQU 	0
XON 	EQU 	2
YEAR 	EQU 	136
Z 	EQU 	2
ZCDCON 	EQU 	16067
ZCDIE 	EQU 	1
ZCDIF 	EQU 	1
ZCDINTN 	EQU 	0
ZCDINTP 	EQU 	1
ZCDIP 	EQU 	1
ZCDMD 	EQU 	0
ZCDOUT 	EQU 	5
ZCDPOL 	EQU 	4
ZCDSEN 	EQU 	7

Code:
Loc	Obj Code	Original Assembly





































































































































































	K	1111 KKKK KKKK KKKK:1110 1111 KKKK KKKK	12
000000	EF06 F000	GOTO BASPROGRAMSTART

	K	1111 KKKK KKKK KKKK:1110 1111 KKKK KKKK	3910
000008	EFA3 F007	GOTO INTERRUPT



		BASPROGRAMSTART
	K	1111 KKKK KKKK KKKK:1110 110S KKKK KKKK	3822
	S	1111 0000 0000 0111:1110 110S 0111 0111	0
00000C	EC77 F007	CALL INITSYS
	K	1111 KKKK KKKK KKKK:1110 110S KKKK KKKK	3810
	S	1111 0000 0000 0111:1110 110S 0111 0001	0
000010	EC71 F007	CALL INITPPS
	K	1111 KKKK KKKK KKKK:1110 110S KKKK KKKK	3884
	S	1111 0000 0000 0111:1110 110S 1001 0110	0
000014	EC96 F007	CALL INITUSART
	K	1111 KKKK KKKK KKKK:1110 110S KKKK KKKK	3802
	S	1111 0000 0000 0111:1110 110S 0110 1101	0
000018	EC6D F007	CALL INITI2C
	K	1111 KKKK KKKK KKKK:1110 110S KKKK KKKK	3718
	S	1111 0000 0000 0111:1110 110S 0100 0011	0
00001C	EC43 F007	CALL INITGLCD_KS0108
	F	 1000 BBBA FFFF FFFF	16338
	B	 1000 BBBA 1101 0010	7
	A	 1000 111A 1101 0010	0
000020	8ED2	BSF INTCON0,GIE,ACCESS
	F	 1000 BBBA FFFF FFFF	103
	B	 1000 BBBA 0110 0111	0
	A	 1000 000A 0110 0111	1
000022	8167	BSF SYSINTSTATESAVE0,0,BANKED

	F	 0110 101A FFFF FFFF	93
	A	 0110 101A 0101 1101	0
000024	6A5D	CLRF PRINTLOCX,ACCESS
	F	 0110 101A FFFF FFFF	94
	A	 0110 101A 0101 1110	0
000026	6A5E	CLRF PRINTLOCX_H,ACCESS
	F	 0110 101A FFFF FFFF	95
	A	 0110 101A 0101 1111	0
000028	6A5F	CLRF PRINTLOCY,ACCESS
	F	 0110 101A FFFF FFFF	96
	A	 0110 101A 0110 0000	1
00002A	6B60	CLRF PRINTLOCY_H,BANKED
	F	1110 1110 00FF KKKK:1111 00KK KKKK KKKK	1
	K	1110 1110 0001 KKKK:1111 00KK KKKK KKKK	8174
00002C	EE17 F3EE	LFSR 1,SYSSTRINGPARAM1
	K	 0000 1110 KKKK KKKK	124
000030	0E7C	MOVLW LOW STRINGTABLE1
	F	 0110 111A FFFF FFFF	16374
	A	 0110 111A 1111 0110	0
000032	6EF6	MOVWF TBLPTRL,ACCESS
	K	 0000 1110 KKKK KKKK	17
000034	0E11	MOVLW HIGH STRINGTABLE1
	F	 0110 111A FFFF FFFF	16375
	A	 0110 111A 1111 0111	0
000036	6EF7	MOVWF TBLPTRH,ACCESS
	K	 0000 1110 KKKK KKKK	0
000038	0E00	MOVLW UPPER STRINGTABLE1
	F	 0110 111A FFFF FFFF	16376
	A	 0110 111A 1111 1000	0
00003A	6EF8	MOVWF TBLPTRU,ACCESS
	K	1111 KKKK KKKK KKKK:1110 110S KKKK KKKK	4432
	S	1111 0000 0000 1000:1110 110S 1010 1000	0
00003C	ECA8 F008	CALL SYSREADSTRING
	K	 0000 1110 KKKK KKKK	238
000040	0EEE	MOVLW LOW SYSSTRINGPARAM1
	F	 0110 111A FFFF FFFF	104
	A	 0110 111A 0110 1000	1
000042	6F68	MOVWF SYSLCDPRINTDATAHANDLER,BANKED
	K	 0000 1110 KKKK KKKK	31
000044	0E1F	MOVLW HIGH SYSSTRINGPARAM1
	F	 0110 111A FFFF FFFF	105
	A	 0110 111A 0110 1001	1
000046	6F69	MOVWF SYSLCDPRINTDATAHANDLER_H,BANKED
	K	1111 KKKK KKKK KKKK:1110 110S KKKK KKKK	2770
	S	1111 0000 0000 0101:1110 110S 0110 1001	0
000048	EC69 F005	CALL GLCDPRINT65
	K	1111 KKKK KKKK KKKK:1110 110S KKKK KKKK	3634
	S	1111 0000 0000 0111:1110 110S 0001 1001	0
00004C	EC19 F007	CALL I2CSTART
	K	 0000 1110 KKKK KKKK	208
000050	0ED0	MOVLW 208
	F	 0110 111A FFFF FFFF	76
	A	 0110 111A 0100 1100	0
000052	6E4C	MOVWF I2CBYTE,ACCESS
	K	1111 KKKK KKKK KKKK:1110 110S KKKK KKKK	3498
	S	1111 0000 0000 0110:1110 110S 1101 0101	0
000054	ECD5 F006	CALL I2CSEND
	K	1111 KKKK KKKK KKKK:1110 110S KKKK KKKK	3672
	S	1111 0000 0000 0111:1110 110S 0010 1100	0
000058	EC2C F007	CALL I2CSTOP
	F	 0101 00DA FFFF FFFF	75
	D	 0101 00DA 0100 1011	1
	A	 0101 001A 0100 1011	0
00005C	524B	MOVF I2CACKPOLLSTATE,F,ACCESS
	F	 1010 BBBA FFFF FFFF	16344
	B	 1010 BBBA 1101 1000	2
	A	 1010 010A 1101 1000	0
00005E	A4D8	BTFSS STATUS, Z,ACCESS
	N	 1101 0NNN NNNN NNNN	42
000060	D02A	BRA ENDIF1
	F	 0110 101A FFFF FFFF	93
	A	 0110 101A 0101 1101	0
000062	6A5D	CLRF PRINTLOCX,ACCESS
	F	 0110 101A FFFF FFFF	94
	A	 0110 101A 0101 1110	0
000064	6A5E	CLRF PRINTLOCX_H,ACCESS
	K	 0000 1110 KKKK KKKK	16
000066	0E10	MOVLW 16
	F	 0110 111A FFFF FFFF	95
	A	 0110 111A 0101 1111	0
000068	6E5F	MOVWF PRINTLOCY,ACCESS
	F	 0110 101A FFFF FFFF	96
	A	 0110 101A 0110 0000	1
00006A	6B60	CLRF PRINTLOCY_H,BANKED
	F	1110 1110 00FF KKKK:1111 00KK KKKK KKKK	1
	K	1110 1110 0001 KKKK:1111 00KK KKKK KKKK	8174
00006C	EE17 F3EE	LFSR 1,SYSSTRINGPARAM1
	K	 0000 1110 KKKK KKKK	142
000070	0E8E	MOVLW LOW STRINGTABLE2
	F	 0110 111A FFFF FFFF	16374
	A	 0110 111A 1111 0110	0
000072	6EF6	MOVWF TBLPTRL,ACCESS
	K	 0000 1110 KKKK KKKK	17
000074	0E11	MOVLW HIGH STRINGTABLE2
	F	 0110 111A FFFF FFFF	16375
	A	 0110 111A 1111 0111	0
000076	6EF7	MOVWF TBLPTRH,ACCESS
	K	 0000 1110 KKKK KKKK	0
000078	0E00	MOVLW UPPER STRINGTABLE2
	F	 0110 111A FFFF FFFF	16376
	A	 0110 111A 1111 1000	0
00007A	6EF8	MOVWF TBLPTRU,ACCESS
	K	1111 KKKK KKKK KKKK:1110 110S KKKK KKKK	4432
	S	1111 0000 0000 1000:1110 110S 1010 1000	0
00007C	ECA8 F008	CALL SYSREADSTRING
	K	 0000 1110 KKKK KKKK	238
000080	0EEE	MOVLW LOW SYSSTRINGPARAM1
	F	 0110 111A FFFF FFFF	104
	A	 0110 111A 0110 1000	1
000082	6F68	MOVWF SYSLCDPRINTDATAHANDLER,BANKED
	K	 0000 1110 KKKK KKKK	31
000084	0E1F	MOVLW HIGH SYSSTRINGPARAM1
	F	 0110 111A FFFF FFFF	105
	A	 0110 111A 0110 1001	1
000086	6F69	MOVWF SYSLCDPRINTDATAHANDLER_H,BANKED
	K	1111 KKKK KKKK KKKK:1110 110S KKKK KKKK	2770
	S	1111 0000 0000 0101:1110 110S 0110 1001	0
000088	EC69 F005	CALL GLCDPRINT65
	F	 0110 101A FFFF FFFF	93
	A	 0110 101A 0101 1101	0
00008C	6A5D	CLRF PRINTLOCX,ACCESS
	F	 0110 101A FFFF FFFF	94
	A	 0110 101A 0101 1110	0
00008E	6A5E	CLRF PRINTLOCX_H,ACCESS
	K	 0000 1110 KKKK KKKK	24
000090	0E18	MOVLW 24
	F	 0110 111A FFFF FFFF	95
	A	 0110 111A 0101 1111	0
000092	6E5F	MOVWF PRINTLOCY,ACCESS
	F	 0110 101A FFFF FFFF	96
	A	 0110 101A 0110 0000	1
000094	6B60	CLRF PRINTLOCY_H,BANKED
	F	1110 1110 00FF KKKK:1111 00KK KKKK KKKK	1
	K	1110 1110 0001 KKKK:1111 00KK KKKK KKKK	8174
000096	EE17 F3EE	LFSR 1,SYSSTRINGPARAM1
	K	 0000 1110 KKKK KKKK	152
00009A	0E98	MOVLW LOW STRINGTABLE3
	F	 0110 111A FFFF FFFF	16374
	A	 0110 111A 1111 0110	0
00009C	6EF6	MOVWF TBLPTRL,ACCESS
	K	 0000 1110 KKKK KKKK	17
00009E	0E11	MOVLW HIGH STRINGTABLE3
	F	 0110 111A FFFF FFFF	16375
	A	 0110 111A 1111 0111	0
0000A0	6EF7	MOVWF TBLPTRH,ACCESS
	K	 0000 1110 KKKK KKKK	0
0000A2	0E00	MOVLW UPPER STRINGTABLE3
	F	 0110 111A FFFF FFFF	16376
	A	 0110 111A 1111 1000	0
0000A4	6EF8	MOVWF TBLPTRU,ACCESS
	K	1111 KKKK KKKK KKKK:1110 110S KKKK KKKK	4432
	S	1111 0000 0000 1000:1110 110S 1010 1000	0
0000A6	ECA8 F008	CALL SYSREADSTRING
	K	 0000 1110 KKKK KKKK	238
0000AA	0EEE	MOVLW LOW SYSSTRINGPARAM1
	F	 0110 111A FFFF FFFF	104
	A	 0110 111A 0110 1000	1
0000AC	6F68	MOVWF SYSLCDPRINTDATAHANDLER,BANKED
	K	 0000 1110 KKKK KKKK	31
0000AE	0E1F	MOVLW HIGH SYSSTRINGPARAM1
	F	 0110 111A FFFF FFFF	105
	A	 0110 111A 0110 1001	1
0000B0	6F69	MOVWF SYSLCDPRINTDATAHANDLER_H,BANKED
	K	1111 KKKK KKKK KKKK:1110 110S KKKK KKKK	2770
	S	1111 0000 0000 0101:1110 110S 0110 1001	0
0000B2	EC69 F005	CALL GLCDPRINT65
		ENDIF1
	K	 0000 1110 KKKK KKKK	2
0000B6	0E02	MOVLW 2
	F	 0110 111A FFFF FFFF	4
	A	 0110 111A 0000 0100	0
0000B8	6E04	MOVWF SYSWAITTEMPS,ACCESS
	N	 1101 1NNN NNNN NNNN	677
0000BA	DAA5	RCALL DELAY_S
	K	1111 KKKK KKKK KKKK:1110 110S KKKK KKKK	2298
	S	1111 0000 0000 0100:1110 110S 0111 1101	0
0000BC	EC7D F004	CALL GLCDCLS_KS0108
	N	 1101 1NNN NNNN NNNN	374
0000C0	D976	RCALL DS1307_READDATE
	S	1111 DDDD DDDD DDDD:1100 SSSS SSSS SSSS	43
	D	1111 DDDD DDDD DDDD:1100 0000 0010 1011	40
0000C2	C02B F028	MOVFF DS_DOW,DOW
	S	1111 DDDD DDDD DDDD:1100 SSSS SSSS SSSS	42
	D	1111 DDDD DDDD DDDD:1100 0000 0010 1010	38
0000C6	C02A F026	MOVFF DS_DATE,DATE
	S	1111 DDDD DDDD DDDD:1100 SSSS SSSS SSSS	45
	D	1111 DDDD DDDD DDDD:1100 0000 0010 1101	91
0000CA	C02D F05B	MOVFF DS_MONTH,MONTH
	S	1111 DDDD DDDD DDDD:1100 SSSS SSSS SSSS	49
	D	1111 DDDD DDDD DDDD:1100 0000 0011 0001	136
0000CE	C031 F088	MOVFF DS_YEAR,YEAR
	N	 1101 1NNN NNNN NNNN	423
0000D2	D9A7	RCALL DS1307_READHOURMODE
	S	1111 DDDD DDDD DDDD:1100 SSSS SSSS SSSS	41
	D	1111 DDDD DDDD DDDD:1100 0000 0010 1001	90
0000D4	C029 F05A	MOVFF DS_A_P,MODE
	S	1111 DDDD DDDD DDDD:1100 SSSS SSSS SSSS	90
	D	1111 DDDD DDDD DDDD:1100 0000 0101 1010	41
0000D8	C05A F029	MOVFF MODE,DS_A_P
	N	 1101 1NNN NNNN NNNN	449
0000DC	D9C1	RCALL DS1307_SETHOURMODE
	F	 0110 100A FFFF FFFF	48
	A	 0110 100A 0011 0000	0
0000DE	6830	SETF DS_VALUE,ACCESS
	N	 1101 1NNN NNNN NNNN	317
0000E0	D93D	RCALL DS1307_ENABLE
	F	 0110 101A FFFF FFFF	48
	A	 0110 101A 0011 0000	0
0000E2	6A30	CLRF DS_VALUE,ACCESS
	N	 1101 1NNN NNNN NNNN	577
0000E4	DA41	RCALL DS3231_SETSQW
	N	 1101 1NNN NNNN NNNN	533
0000E6	DA15	RCALL DS3231_ENABLESQW
	F	 1010 BBBA FFFF FFFF	103
	B	 1010 BBBA 0110 0111	0
	A	 1010 000A 0110 0111	1
0000E8	A167	BTFSS SYSINTSTATESAVE0,0,BANKED
	F	 1001 BBBA FFFF FFFF	16338
	B	 1001 BBBA 1101 0010	7
	A	 1001 111A 1101 0010	0
0000EA	9ED2	BCF INTCON0,GIE,ACCESS
	F	 1011 BBBA FFFF FFFF	103
	B	 1011 BBBA 0110 0111	0
	A	 1011 000A 0110 0111	1
0000EC	B167	BTFSC SYSINTSTATESAVE0,0,BANKED
	F	 1000 BBBA FFFF FFFF	16338
	B	 1000 BBBA 1101 0010	7
	A	 1000 111A 1101 0010	0
0000EE	8ED2	BSF INTCON0,GIE,ACCESS
	F	 1001 BBBA FFFF FFFF	100
	B	 1001 BBBA 0110 0100	0
	A	 1001 000A 0110 0100	1
0000F0	9164	BCF SYSBITVAR0,0,BANKED
	F	 0110 101A FFFF FFFF	131
	A	 0110 101A 1000 0011	1
0000F2	6B83	CLRF UPDATEGLCDEVENT,BANKED
	F	 0110 101A FFFF FFFF	132
	A	 0110 101A 1000 0100	1
0000F4	6B84	CLRF UPDATEGLCDEVENT_H,BANKED
	F	 0110 101A FFFF FFFF	133
	A	 0110 101A 1000 0101	1
0000F6	6B85	CLRF UPDATEGLCDEVENT_U,BANKED
	F	 0110 101A FFFF FFFF	134
	A	 0110 101A 1000 0110	1
0000F8	6B86	CLRF UPDATEGLCDEVENT_E,BANKED
	K	 0000 1110 KKKK KKKK	1
0000FA	0E01	MOVLW 1
	F	 0101 11DA FFFF FFFF	131
	D	 0101 11DA 1000 0011	0
	A	 0101 110A 1000 0011	1
0000FC	5D83	SUBWF UPDATEGLCDEVENT,W,BANKED
	F	 0110 111A FFFF FFFF	79
	A	 0110 111A 0100 1111	0
0000FE	6E4F	MOVWF LASTUPDATEGLCDEVENT,ACCESS
	K	 0000 1110 KKKK KKKK	0
000100	0E00	MOVLW 0
	F	 0101 10DA FFFF FFFF	132
	D	 0101 10DA 1000 0100	0
	A	 0101 100A 1000 0100	1
000102	5984	SUBWFB UPDATEGLCDEVENT_H,W,BANKED
	F	 0110 111A FFFF FFFF	80
	A	 0110 111A 0101 0000	0
000104	6E50	MOVWF LASTUPDATEGLCDEVENT_H,ACCESS
	K	 0000 1110 KKKK KKKK	0
000106	0E00	MOVLW 0
	F	 0101 10DA FFFF FFFF	133
	D	 0101 10DA 1000 0101	0
	A	 0101 100A 1000 0101	1
000108	5985	SUBWFB UPDATEGLCDEVENT_U,W,BANKED
	F	 0110 111A FFFF FFFF	81
	A	 0110 111A 0101 0001	0
00010A	6E51	MOVWF LASTUPDATEGLCDEVENT_U,ACCESS
	K	 0000 1110 KKKK KKKK	0
00010C	0E00	MOVLW 0
	F	 0101 10DA FFFF FFFF	134
	D	 0101 10DA 1000 0110	0
	A	 0101 100A 1000 0110	1
00010E	5986	SUBWFB UPDATEGLCDEVENT_E,W,BANKED
	F	 0110 111A FFFF FFFF	82
	A	 0110 111A 0101 0010	0
000110	6E52	MOVWF LASTUPDATEGLCDEVENT_E,ACCESS
	F	 0110 101A FFFF FFFF	16
	A	 0110 101A 0001 0000	0
000112	6A10	CLRF CCOUNT,ACCESS
	F	 0110 101A FFFF FFFF	17
	A	 0110 101A 0001 0001	0
000114	6A11	CLRF CCOUNT_H,ACCESS
	F	 0110 101A FFFF FFFF	18
	A	 0110 101A 0001 0010	0
000116	6A12	CLRF CCOUNT_U,ACCESS
	F	 0110 101A FFFF FFFF	19
	A	 0110 101A 0001 0011	0
000118	6A13	CLRF CCOUNT_E,ACCESS
	F	 1000 BBBA FFFF FFFF	16323
	B	 1000 BBBA 1100 0011	0
	A	 1000 000A 1100 0011	0
00011A	80C3	BSF TRISB,0,ACCESS
	F	 0110 101A FFFF FFFF	93
	A	 0110 101A 0101 1101	0
00011C	6A5D	CLRF PRINTLOCX,ACCESS
	F	 0110 101A FFFF FFFF	94
	A	 0110 101A 0101 1110	0
00011E	6A5E	CLRF PRINTLOCX_H,ACCESS
	F	 0110 101A FFFF FFFF	95
	A	 0110 101A 0101 1111	0
000120	6A5F	CLRF PRINTLOCY,ACCESS
	F	 0110 101A FFFF FFFF	96
	A	 0110 101A 0110 0000	1
000122	6B60	CLRF PRINTLOCY_H,BANKED
	F	1110 1110 00FF KKKK:1111 00KK KKKK KKKK	1
	K	1110 1110 0001 KKKK:1111 00KK KKKK KKKK	8174
000124	EE17 F3EE	LFSR 1,SYSSTRINGPARAM1
	K	 0000 1110 KKKK KKKK	160
000128	0EA0	MOVLW LOW STRINGTABLE4
	F	 0110 111A FFFF FFFF	16374
	A	 0110 111A 1111 0110	0
00012A	6EF6	MOVWF TBLPTRL,ACCESS
	K	 0000 1110 KKKK KKKK	17
00012C	0E11	MOVLW HIGH STRINGTABLE4
	F	 0110 111A FFFF FFFF	16375
	A	 0110 111A 1111 0111	0
00012E	6EF7	MOVWF TBLPTRH,ACCESS
	K	 0000 1110 KKKK KKKK	0
000130	0E00	MOVLW UPPER STRINGTABLE4
	F	 0110 111A FFFF FFFF	16376
	A	 0110 111A 1111 1000	0
000132	6EF8	MOVWF TBLPTRU,ACCESS
	K	1111 KKKK KKKK KKKK:1110 110S KKKK KKKK	4432
	S	1111 0000 0000 1000:1110 110S 1010 1000	0
000134	ECA8 F008	CALL SYSREADSTRING
	K	 0000 1110 KKKK KKKK	238
000138	0EEE	MOVLW LOW SYSSTRINGPARAM1
	F	 0110 111A FFFF FFFF	104
	A	 0110 111A 0110 1000	1
00013A	6F68	MOVWF SYSLCDPRINTDATAHANDLER,BANKED
	K	 0000 1110 KKKK KKKK	31
00013C	0E1F	MOVLW HIGH SYSSTRINGPARAM1
	F	 0110 111A FFFF FFFF	105
	A	 0110 111A 0110 1001	1
00013E	6F69	MOVWF SYSLCDPRINTDATAHANDLER_H,BANKED
	K	1111 KKKK KKKK KKKK:1110 110S KKKK KKKK	2770
	S	1111 0000 0000 0101:1110 110S 0110 1001	0
000140	EC69 F005	CALL GLCDPRINT65
	F	1110 1110 00FF KKKK:1111 00KK KKKK KKKK	1
	K	1110 1110 0001 KKKK:1111 00KK KKKK KKKK	8174
000144	EE17 F3EE	LFSR 1,SYSSTRINGPARAM1
	K	 0000 1110 KKKK KKKK	160
000148	0EA0	MOVLW LOW STRINGTABLE4
	F	 0110 111A FFFF FFFF	16374
	A	 0110 111A 1111 0110	0
00014A	6EF6	MOVWF TBLPTRL,ACCESS
	K	 0000 1110 KKKK KKKK	17
00014C	0E11	MOVLW HIGH STRINGTABLE4
	F	 0110 111A FFFF FFFF	16375
	A	 0110 111A 1111 0111	0
00014E	6EF7	MOVWF TBLPTRH,ACCESS
	K	 0000 1110 KKKK KKKK	0
000150	0E00	MOVLW UPPER STRINGTABLE4
	F	 0110 111A FFFF FFFF	16376
	A	 0110 111A 1111 1000	0
000152	6EF8	MOVWF TBLPTRU,ACCESS
	K	1111 KKKK KKKK KKKK:1110 110S KKKK KKKK	4432
	S	1111 0000 0000 1000:1110 110S 1010 1000	0
000154	ECA8 F008	CALL SYSREADSTRING
	K	 0000 1110 KKKK KKKK	238
000158	0EEE	MOVLW LOW SYSSTRINGPARAM1
	F	 0110 111A FFFF FFFF	119
	A	 0110 111A 0111 0111	1
00015A	6F77	MOVWF SYSPRINTDATAHANDLER,BANKED
	K	 0000 1110 KKKK KKKK	31
00015C	0E1F	MOVLW HIGH SYSSTRINGPARAM1
	F	 0110 111A FFFF FFFF	120
	A	 0110 111A 0111 1000	1
00015E	6F78	MOVWF SYSPRINTDATAHANDLER_H,BANKED
	K	 0000 1110 KKKK KKKK	1
000160	0E01	MOVLW 1
	F	 0110 111A FFFF FFFF	32
	A	 0110 111A 0010 0000	0
000162	6E20	MOVWF COMPORT,ACCESS
	K	1111 KKKK KKKK KKKK:1110 110S KKKK KKKK	3290
	S	1111 0000 0000 0110:1110 110S 0110 1101	0
000164	EC6D F006	CALL HSERPRINT483
	K	 0000 1110 KKKK KKKK	3
000168	0E03	MOVLW 3
	K	 0000 0001 00KK KKKK	58
000000	013A	BANKSEL IOCBP
	F	 0110 111A FFFF FFFF	14933
	A	 0110 111A 0101 0101	1
00016C	6F55	MOVWF IOCBP,BANKED
	K	 0000 0001 00KK KKKK	57
000000	0139	BANKSEL PIE0
	F	 1000 BBBA FFFF FFFF	14736
	B	 1000 BBBA 1001 0000	7
	A	 1000 111A 1001 0000	1
000170	8F90	BSF PIE0,IOCIE,BANKED
		SYSDOLOOP_S1
	K	 0000 0001 00KK KKKK	0
000000	0100	BANKSEL SYSBITVAR0
	F	 1010 BBBA FFFF FFFF	100
	B	 1010 BBBA 0110 0100	0
	A	 1010 000A 0110 0100	1
000174	A164	BTFSS SYSBITVAR0,0,BANKED
	N	 1101 0NNN NNNN NNNN	45
000176	D02D	BRA ENDIF2
	F	 0010 10DA FFFF FFFF	16
	D	 0010 10DA 0001 0000	1
	A	 0010 101A 0001 0000	0
000178	2A10	INCF CCOUNT,F,ACCESS
	F	 1011 BBBA FFFF FFFF	16344
	B	 1011 BBBA 1101 1000	2
	A	 1011 010A 1101 1000	0
00017A	B4D8	BTFSC STATUS,Z,ACCESS
	F	 0010 10DA FFFF FFFF	17
	D	 0010 10DA 0001 0001	1
	A	 0010 101A 0001 0001	0
00017C	2A11	INCF CCOUNT_H,F,ACCESS
	F	 1011 BBBA FFFF FFFF	16344
	B	 1011 BBBA 1101 1000	2
	A	 1011 010A 1101 1000	0
00017E	B4D8	BTFSC STATUS,Z,ACCESS
	F	 0010 10DA FFFF FFFF	18
	D	 0010 10DA 0001 0010	1
	A	 0010 101A 0001 0010	0
000180	2A12	INCF CCOUNT_U,F,ACCESS
	F	 1011 BBBA FFFF FFFF	16344
	B	 1011 BBBA 1101 1000	2
	A	 1011 010A 1101 1000	0
000182	B4D8	BTFSC STATUS,Z,ACCESS
	F	 0010 10DA FFFF FFFF	19
	D	 0010 10DA 0001 0011	1
	A	 0010 101A 0001 0011	0
000184	2A13	INCF CCOUNT_E,F,ACCESS
	F	 1001 BBBA FFFF FFFF	100
	B	 1001 BBBA 0110 0100	0
	A	 1001 000A 0110 0100	1
000186	9164	BCF SYSBITVAR0,0,BANKED
	F	 0110 101A FFFF FFFF	93
	A	 0110 101A 0101 1101	0
000188	6A5D	CLRF PRINTLOCX,ACCESS
	F	 0110 101A FFFF FFFF	94
	A	 0110 101A 0101 1110	0
00018A	6A5E	CLRF PRINTLOCX_H,ACCESS
	K	 0000 1110 KKKK KKKK	8
00018C	0E08	MOVLW 8
	F	 0110 111A FFFF FFFF	95
	A	 0110 111A 0101 1111	0
00018E	6E5F	MOVWF PRINTLOCY,ACCESS
	F	 0110 101A FFFF FFFF	96
	A	 0110 101A 0110 0000	1
000190	6B60	CLRF PRINTLOCY_H,BANKED
	F	1110 1110 00FF KKKK:1111 00KK KKKK KKKK	1
	K	1110 1110 0001 KKKK:1111 00KK KKKK KKKK	8174
000192	EE17 F3EE	LFSR 1,SYSSTRINGPARAM1
	K	 0000 1110 KKKK KKKK	168
000196	0EA8	MOVLW LOW STRINGTABLE5
	F	 0110 111A FFFF FFFF	16374
	A	 0110 111A 1111 0110	0
000198	6EF6	MOVWF TBLPTRL,ACCESS
	K	 0000 1110 KKKK KKKK	17
00019A	0E11	MOVLW HIGH STRINGTABLE5
	F	 0110 111A FFFF FFFF	16375
	A	 0110 111A 1111 0111	0
00019C	6EF7	MOVWF TBLPTRH,ACCESS
	K	 0000 1110 KKKK KKKK	0
00019E	0E00	MOVLW UPPER STRINGTABLE5
	F	 0110 111A FFFF FFFF	16376
	A	 0110 111A 1111 1000	0
0001A0	6EF8	MOVWF TBLPTRU,ACCESS
	K	1111 KKKK KKKK KKKK:1110 110S KKKK KKKK	4432
	S	1111 0000 0000 1000:1110 110S 1010 1000	0
0001A2	ECA8 F008	CALL SYSREADSTRING
	K	 0000 1110 KKKK KKKK	238
0001A6	0EEE	MOVLW LOW SYSSTRINGPARAM1
	F	 0110 111A FFFF FFFF	104
	A	 0110 111A 0110 1000	1
0001A8	6F68	MOVWF SYSLCDPRINTDATAHANDLER,BANKED
	K	 0000 1110 KKKK KKKK	31
0001AA	0E1F	MOVLW HIGH SYSSTRINGPARAM1
	F	 0110 111A FFFF FFFF	105
	A	 0110 111A 0110 1001	1
0001AC	6F69	MOVWF SYSLCDPRINTDATAHANDLER_H,BANKED
	K	1111 KKKK KKKK KKKK:1110 110S KKKK KKKK	2770
	S	1111 0000 0000 0101:1110 110S 0110 1001	0
0001AE	EC69 F005	CALL GLCDPRINT65
	K	 0000 1110 KKKK KKKK	40
0001B2	0E28	MOVLW 40
	F	 0110 111A FFFF FFFF	93
	A	 0110 111A 0101 1101	0
0001B4	6E5D	MOVWF PRINTLOCX,ACCESS
	F	 0110 101A FFFF FFFF	94
	A	 0110 101A 0101 1110	0
0001B6	6A5E	CLRF PRINTLOCX_H,ACCESS
	K	 0000 1110 KKKK KKKK	8
0001B8	0E08	MOVLW 8
	F	 0110 111A FFFF FFFF	95
	A	 0110 111A 0101 1111	0
0001BA	6E5F	MOVWF PRINTLOCY,ACCESS
	F	 0110 101A FFFF FFFF	96
	A	 0110 101A 0110 0000	1
0001BC	6B60	CLRF PRINTLOCY_H,BANKED
	S	1111 DDDD DDDD DDDD:1100 SSSS SSSS SSSS	16
	D	1111 DDDD DDDD DDDD:1100 0000 0001 0000	84
0001BE	C010 F054	MOVFF CCOUNT,LCDVALUE
	S	1111 DDDD DDDD DDDD:1100 SSSS SSSS SSSS	17
	D	1111 DDDD DDDD DDDD:1100 0000 0001 0001	85
0001C2	C011 F055	MOVFF CCOUNT_H,LCDVALUE_H
	S	1111 DDDD DDDD DDDD:1100 SSSS SSSS SSSS	18
	D	1111 DDDD DDDD DDDD:1100 0000 0001 0010	86
0001C6	C012 F056	MOVFF CCOUNT_U,LCDVALUE_U
	S	1111 DDDD DDDD DDDD:1100 SSSS SSSS SSSS	19
	D	1111 DDDD DDDD DDDD:1100 0000 0001 0011	87
0001CA	C013 F057	MOVFF CCOUNT_E,LCDVALUE_E
	K	1111 KKKK KKKK KKKK:1110 110S KKKK KKKK	2910
	S	1111 0000 0000 0101:1110 110S 1010 1111	0
0001CE	ECAF F005	CALL GLCDPRINT68
		ENDIF2
	S	1111 DDDD DDDD DDDD:1100 SSSS SSSS SSSS	79
	D	1111 DDDD DDDD DDDD:1100 0000 0100 1111	5
0001D2	C04F F005	MOVFF LASTUPDATEGLCDEVENT,SYSLONGTEMPA
	S	1111 DDDD DDDD DDDD:1100 SSSS SSSS SSSS	80
	D	1111 DDDD DDDD DDDD:1100 0000 0101 0000	6
0001D6	C050 F006	MOVFF LASTUPDATEGLCDEVENT_H,SYSLONGTEMPA_H
	S	1111 DDDD DDDD DDDD:1100 SSSS SSSS SSSS	81
	D	1111 DDDD DDDD DDDD:1100 0000 0101 0001	7
0001DA	C051 F007	MOVFF LASTUPDATEGLCDEVENT_U,SYSLONGTEMPA_U
	S	1111 DDDD DDDD DDDD:1100 SSSS SSSS SSSS	82
	D	1111 DDDD DDDD DDDD:1100 0000 0101 0010	8
0001DE	C052 F008	MOVFF LASTUPDATEGLCDEVENT_E,SYSLONGTEMPA_E
	S	1111 DDDD DDDD DDDD:1100 SSSS SSSS SSSS	131
	D	1111 DDDD DDDD DDDD:1100 0000 1000 0011	9
0001E2	C083 F009	MOVFF UPDATEGLCDEVENT,SYSLONGTEMPB
	S	1111 DDDD DDDD DDDD:1100 SSSS SSSS SSSS	132
	D	1111 DDDD DDDD DDDD:1100 0000 1000 0100	10
0001E6	C084 F00A	MOVFF UPDATEGLCDEVENT_H,SYSLONGTEMPB_H
	S	1111 DDDD DDDD DDDD:1100 SSSS SSSS SSSS	133
	D	1111 DDDD DDDD DDDD:1100 0000 1000 0101	11
0001EA	C085 F00B	MOVFF UPDATEGLCDEVENT_U,SYSLONGTEMPB_U
	S	1111 DDDD DDDD DDDD:1100 SSSS SSSS SSSS	134
	D	1111 DDDD DDDD DDDD:1100 0000 1000 0110	12
0001EE	C086 F00C	MOVFF UPDATEGLCDEVENT_E,SYSLONGTEMPB_E
	K	1111 KKKK KKKK KKKK:1110 110S KKKK KKKK	4172
	S	1111 0000 0000 1000:1110 110S 0010 0110	0
0001F2	EC26 F008	CALL SYSCOMPEQUAL32
	F	 0001 11DA FFFF FFFF	0
	D	 0001 11DA 0000 0000	1
	A	 0001 111A 0000 0000	0
0001F6	1E00	COMF SYSBYTETEMPX,F,ACCESS
	F	 1010 BBBA FFFF FFFF	0
	B	 1010 BBBA 0000 0000	0
	A	 1010 000A 0000 0000	0
0001F8	A000	BTFSS SYSBYTETEMPX,0,ACCESS
	N	 1101 0NNN NNNN NNNN	127
0001FA	D07F	BRA ENDIF3
	F	 1010 BBBA FFFF FFFF	131
	B	 1010 BBBA 1000 0011	1
	A	 1010 001A 1000 0011	1
0001FC	A383	BTFSS UPDATEGLCDEVENT,1,BANKED
	N	 1101 0NNN NNNN NNNN	38
0001FE	D026	BRA ELSE4_1
	F	 0110 101A FFFF FFFF	93
	A	 0110 101A 0101 1101	0
000200	6A5D	CLRF PRINTLOCX,ACCESS
	F	 0110 101A FFFF FFFF	94
	A	 0110 101A 0101 1110	0
000202	6A5E	CLRF PRINTLOCX_H,ACCESS
	K	 0000 1110 KKKK KKKK	32
000204	0E20	MOVLW 32
	F	 0110 111A FFFF FFFF	95
	A	 0110 111A 0101 1111	0
000206	6E5F	MOVWF PRINTLOCY,ACCESS
	F	 0110 101A FFFF FFFF	96
	A	 0110 101A 0110 0000	1
000208	6B60	CLRF PRINTLOCY_H,BANKED
	F	1110 1110 00FF KKKK:1111 00KK KKKK KKKK	1
	K	1110 1110 0001 KKKK:1111 00KK KKKK KKKK	8174
00020A	EE17 F3EE	LFSR 1,SYSSTRINGPARAM1
	K	 0000 1110 KKKK KKKK	178
00020E	0EB2	MOVLW LOW STRINGTABLE6
	F	 0110 111A FFFF FFFF	16374
	A	 0110 111A 1111 0110	0
000210	6EF6	MOVWF TBLPTRL,ACCESS
	K	 0000 1110 KKKK KKKK	17
000212	0E11	MOVLW HIGH STRINGTABLE6
	F	 0110 111A FFFF FFFF	16375
	A	 0110 111A 1111 0111	0
000214	6EF7	MOVWF TBLPTRH,ACCESS
	K	 0000 1110 KKKK KKKK	0
000216	0E00	MOVLW UPPER STRINGTABLE6
	F	 0110 111A FFFF FFFF	16376
	A	 0110 111A 1111 1000	0
000218	6EF8	MOVWF TBLPTRU,ACCESS
	K	1111 KKKK KKKK KKKK:1110 110S KKKK KKKK	4432
	S	1111 0000 0000 1000:1110 110S 1010 1000	0
00021A	ECA8 F008	CALL SYSREADSTRING
	K	 0000 1110 KKKK KKKK	238
00021E	0EEE	MOVLW LOW SYSSTRINGPARAM1
	F	 0110 111A FFFF FFFF	104
	A	 0110 111A 0110 1000	1
000220	6F68	MOVWF SYSLCDPRINTDATAHANDLER,BANKED
	K	 0000 1110 KKKK KKKK	31
000222	0E1F	MOVLW HIGH SYSSTRINGPARAM1
	F	 0110 111A FFFF FFFF	105
	A	 0110 111A 0110 1001	1
000224	6F69	MOVWF SYSLCDPRINTDATAHANDLER_H,BANKED
	K	1111 KKKK KKKK KKKK:1110 110S KKKK KKKK	2770
	S	1111 0000 0000 0101:1110 110S 0110 1001	0
000226	EC69 F005	CALL GLCDPRINT65
	K	 0000 1110 KKKK KKKK	40
00022A	0E28	MOVLW 40
	F	 0110 111A FFFF FFFF	93
	A	 0110 111A 0101 1101	0
00022C	6E5D	MOVWF PRINTLOCX,ACCESS
	F	 0110 101A FFFF FFFF	94
	A	 0110 101A 0101 1110	0
00022E	6A5E	CLRF PRINTLOCX_H,ACCESS
	K	 0000 1110 KKKK KKKK	32
000230	0E20	MOVLW 32
	F	 0110 111A FFFF FFFF	95
	A	 0110 111A 0101 1111	0
000232	6E5F	MOVWF PRINTLOCY,ACCESS
	F	 0110 101A FFFF FFFF	96
	A	 0110 101A 0110 0000	1
000234	6B60	CLRF PRINTLOCY_H,BANKED
	S	1111 DDDD DDDD DDDD:1100 SSSS SSSS SSSS	16
	D	1111 DDDD DDDD DDDD:1100 0000 0001 0000	84
000236	C010 F054	MOVFF CCOUNT,LCDVALUE
	S	1111 DDDD DDDD DDDD:1100 SSSS SSSS SSSS	17
	D	1111 DDDD DDDD DDDD:1100 0000 0001 0001	85
00023A	C011 F055	MOVFF CCOUNT_H,LCDVALUE_H
	S	1111 DDDD DDDD DDDD:1100 SSSS SSSS SSSS	18
	D	1111 DDDD DDDD DDDD:1100 0000 0001 0010	86
00023E	C012 F056	MOVFF CCOUNT_U,LCDVALUE_U
	S	1111 DDDD DDDD DDDD:1100 SSSS SSSS SSSS	19
	D	1111 DDDD DDDD DDDD:1100 0000 0001 0011	87
000242	C013 F057	MOVFF CCOUNT_E,LCDVALUE_E
	K	1111 KKKK KKKK KKKK:1110 110S KKKK KKKK	2910
	S	1111 0000 0000 0101:1110 110S 1010 1111	0
000246	ECAF F005	CALL GLCDPRINT68
	N	 1101 0NNN NNNN NNNN	79
00024A	D04F	BRA ENDIF4
		ELSE4_1
	F	 1010 BBBA FFFF FFFF	131
	B	 1010 BBBA 1000 0011	3
	A	 1010 011A 1000 0011	1
00024C	A783	BTFSS UPDATEGLCDEVENT,3,BANKED
	N	 1101 0NNN NNNN NNNN	38
00024E	D026	BRA ELSE4_2
	F	 0110 101A FFFF FFFF	93
	A	 0110 101A 0101 1101	0
000250	6A5D	CLRF PRINTLOCX,ACCESS
	F	 0110 101A FFFF FFFF	94
	A	 0110 101A 0101 1110	0
000252	6A5E	CLRF PRINTLOCX_H,ACCESS
	K	 0000 1110 KKKK KKKK	16
000254	0E10	MOVLW 16
	F	 0110 111A FFFF FFFF	95
	A	 0110 111A 0101 1111	0
000256	6E5F	MOVWF PRINTLOCY,ACCESS
	F	 0110 101A FFFF FFFF	96
	A	 0110 101A 0110 0000	1
000258	6B60	CLRF PRINTLOCY_H,BANKED
	F	1110 1110 00FF KKKK:1111 00KK KKKK KKKK	1
	K	1110 1110 0001 KKKK:1111 00KK KKKK KKKK	8174
00025A	EE17 F3EE	LFSR 1,SYSSTRINGPARAM1
	K	 0000 1110 KKKK KKKK	188
00025E	0EBC	MOVLW LOW STRINGTABLE7
	F	 0110 111A FFFF FFFF	16374
	A	 0110 111A 1111 0110	0
000260	6EF6	MOVWF TBLPTRL,ACCESS
	K	 0000 1110 KKKK KKKK	17
000262	0E11	MOVLW HIGH STRINGTABLE7
	F	 0110 111A FFFF FFFF	16375
	A	 0110 111A 1111 0111	0
000264	6EF7	MOVWF TBLPTRH,ACCESS
	K	 0000 1110 KKKK KKKK	0
000266	0E00	MOVLW UPPER STRINGTABLE7
	F	 0110 111A FFFF FFFF	16376
	A	 0110 111A 1111 1000	0
000268	6EF8	MOVWF TBLPTRU,ACCESS
	K	1111 KKKK KKKK KKKK:1110 110S KKKK KKKK	4432
	S	1111 0000 0000 1000:1110 110S 1010 1000	0
00026A	ECA8 F008	CALL SYSREADSTRING
	K	 0000 1110 KKKK KKKK	238
00026E	0EEE	MOVLW LOW SYSSTRINGPARAM1
	F	 0110 111A FFFF FFFF	104
	A	 0110 111A 0110 1000	1
000270	6F68	MOVWF SYSLCDPRINTDATAHANDLER,BANKED
	K	 0000 1110 KKKK KKKK	31
000272	0E1F	MOVLW HIGH SYSSTRINGPARAM1
	F	 0110 111A FFFF FFFF	105
	A	 0110 111A 0110 1001	1
000274	6F69	MOVWF SYSLCDPRINTDATAHANDLER_H,BANKED
	K	1111 KKKK KKKK KKKK:1110 110S KKKK KKKK	2770
	S	1111 0000 0000 0101:1110 110S 0110 1001	0
000276	EC69 F005	CALL GLCDPRINT65
	K	 0000 1110 KKKK KKKK	40
00027A	0E28	MOVLW 40
	F	 0110 111A FFFF FFFF	93
	A	 0110 111A 0101 1101	0
00027C	6E5D	MOVWF PRINTLOCX,ACCESS
	F	 0110 101A FFFF FFFF	94
	A	 0110 101A 0101 1110	0
00027E	6A5E	CLRF PRINTLOCX_H,ACCESS
	K	 0000 1110 KKKK KKKK	16
000280	0E10	MOVLW 16
	F	 0110 111A FFFF FFFF	95
	A	 0110 111A 0101 1111	0
000282	6E5F	MOVWF PRINTLOCY,ACCESS
	F	 0110 101A FFFF FFFF	96
	A	 0110 101A 0110 0000	1
000284	6B60	CLRF PRINTLOCY_H,BANKED
	S	1111 DDDD DDDD DDDD:1100 SSSS SSSS SSSS	16
	D	1111 DDDD DDDD DDDD:1100 0000 0001 0000	84
000286	C010 F054	MOVFF CCOUNT,LCDVALUE
	S	1111 DDDD DDDD DDDD:1100 SSSS SSSS SSSS	17
	D	1111 DDDD DDDD DDDD:1100 0000 0001 0001	85
00028A	C011 F055	MOVFF CCOUNT_H,LCDVALUE_H
	S	1111 DDDD DDDD DDDD:1100 SSSS SSSS SSSS	18
	D	1111 DDDD DDDD DDDD:1100 0000 0001 0010	86
00028E	C012 F056	MOVFF CCOUNT_U,LCDVALUE_U
	S	1111 DDDD DDDD DDDD:1100 SSSS SSSS SSSS	19
	D	1111 DDDD DDDD DDDD:1100 0000 0001 0011	87
000292	C013 F057	MOVFF CCOUNT_E,LCDVALUE_E
	K	1111 KKKK KKKK KKKK:1110 110S KKKK KKKK	2910
	S	1111 0000 0000 0101:1110 110S 1010 1111	0
000296	ECAF F005	CALL GLCDPRINT68
	N	 1101 0NNN NNNN NNNN	39
00029A	D027	BRA ENDIF4
		ELSE4_2
	F	 1010 BBBA FFFF FFFF	131
	B	 1010 BBBA 1000 0011	4
	A	 1010 100A 1000 0011	1
00029C	A983	BTFSS UPDATEGLCDEVENT,4,BANKED
	N	 1101 0NNN NNNN NNNN	37
00029E	D025	BRA ENDIF4
	F	 0110 101A FFFF FFFF	93
	A	 0110 101A 0101 1101	0
0002A0	6A5D	CLRF PRINTLOCX,ACCESS
	F	 0110 101A FFFF FFFF	94
	A	 0110 101A 0101 1110	0
0002A2	6A5E	CLRF PRINTLOCX_H,ACCESS
	K	 0000 1110 KKKK KKKK	24
0002A4	0E18	MOVLW 24
	F	 0110 111A FFFF FFFF	95
	A	 0110 111A 0101 1111	0
0002A6	6E5F	MOVWF PRINTLOCY,ACCESS
	F	 0110 101A FFFF FFFF	96
	A	 0110 101A 0110 0000	1
0002A8	6B60	CLRF PRINTLOCY_H,BANKED
	F	1110 1110 00FF KKKK:1111 00KK KKKK KKKK	1
	K	1110 1110 0001 KKKK:1111 00KK KKKK KKKK	8174
0002AA	EE17 F3EE	LFSR 1,SYSSTRINGPARAM1
	K	 0000 1110 KKKK KKKK	198
0002AE	0EC6	MOVLW LOW STRINGTABLE8
	F	 0110 111A FFFF FFFF	16374
	A	 0110 111A 1111 0110	0
0002B0	6EF6	MOVWF TBLPTRL,ACCESS
	K	 0000 1110 KKKK KKKK	17
0002B2	0E11	MOVLW HIGH STRINGTABLE8
	F	 0110 111A FFFF FFFF	16375
	A	 0110 111A 1111 0111	0
0002B4	6EF7	MOVWF TBLPTRH,ACCESS
	K	 0000 1110 KKKK KKKK	0
0002B6	0E00	MOVLW UPPER STRINGTABLE8
	F	 0110 111A FFFF FFFF	16376
	A	 0110 111A 1111 1000	0
0002B8	6EF8	MOVWF TBLPTRU,ACCESS
	K	1111 KKKK KKKK KKKK:1110 110S KKKK KKKK	4432
	S	1111 0000 0000 1000:1110 110S 1010 1000	0
0002BA	ECA8 F008	CALL SYSREADSTRING
	K	 0000 1110 KKKK KKKK	238
0002BE	0EEE	MOVLW LOW SYSSTRINGPARAM1
	F	 0110 111A FFFF FFFF	104
	A	 0110 111A 0110 1000	1
0002C0	6F68	MOVWF SYSLCDPRINTDATAHANDLER,BANKED
	K	 0000 1110 KKKK KKKK	31
0002C2	0E1F	MOVLW HIGH SYSSTRINGPARAM1
	F	 0110 111A FFFF FFFF	105
	A	 0110 111A 0110 1001	1
0002C4	6F69	MOVWF SYSLCDPRINTDATAHANDLER_H,BANKED
	K	1111 KKKK KKKK KKKK:1110 110S KKKK KKKK	2770
	S	1111 0000 0000 0101:1110 110S 0110 1001	0
0002C6	EC69 F005	CALL GLCDPRINT65
	K	 0000 1110 KKKK KKKK	40
0002CA	0E28	MOVLW 40
	F	 0110 111A FFFF FFFF	93
	A	 0110 111A 0101 1101	0
0002CC	6E5D	MOVWF PRINTLOCX,ACCESS
	F	 0110 101A FFFF FFFF	94
	A	 0110 101A 0101 1110	0
0002CE	6A5E	CLRF PRINTLOCX_H,ACCESS
	K	 0000 1110 KKKK KKKK	24
0002D0	0E18	MOVLW 24
	F	 0110 111A FFFF FFFF	95
	A	 0110 111A 0101 1111	0
0002D2	6E5F	MOVWF PRINTLOCY,ACCESS
	F	 0110 101A FFFF FFFF	96
	A	 0110 101A 0110 0000	1
0002D4	6B60	CLRF PRINTLOCY_H,BANKED
	S	1111 DDDD DDDD DDDD:1100 SSSS SSSS SSSS	16
	D	1111 DDDD DDDD DDDD:1100 0000 0001 0000	84
0002D6	C010 F054	MOVFF CCOUNT,LCDVALUE
	S	1111 DDDD DDDD DDDD:1100 SSSS SSSS SSSS	17
	D	1111 DDDD DDDD DDDD:1100 0000 0001 0001	85
0002DA	C011 F055	MOVFF CCOUNT_H,LCDVALUE_H
	S	1111 DDDD DDDD DDDD:1100 SSSS SSSS SSSS	18
	D	1111 DDDD DDDD DDDD:1100 0000 0001 0010	86
0002DE	C012 F056	MOVFF CCOUNT_U,LCDVALUE_U
	S	1111 DDDD DDDD DDDD:1100 SSSS SSSS SSSS	19
	D	1111 DDDD DDDD DDDD:1100 0000 0001 0011	87
0002E2	C013 F057	MOVFF CCOUNT_E,LCDVALUE_E
	K	1111 KKKK KKKK KKKK:1110 110S KKKK KKKK	2910
	S	1111 0000 0000 0101:1110 110S 1010 1111	0
0002E6	ECAF F005	CALL GLCDPRINT68
		ENDIF4
	S	1111 DDDD DDDD DDDD:1100 SSSS SSSS SSSS	131
	D	1111 DDDD DDDD DDDD:1100 0000 1000 0011	79
0002EA	C083 F04F	MOVFF UPDATEGLCDEVENT,LASTUPDATEGLCDEVENT
	S	1111 DDDD DDDD DDDD:1100 SSSS SSSS SSSS	132
	D	1111 DDDD DDDD DDDD:1100 0000 1000 0100	80
0002EE	C084 F050	MOVFF UPDATEGLCDEVENT_H,LASTUPDATEGLCDEVENT_H
	S	1111 DDDD DDDD DDDD:1100 SSSS SSSS SSSS	133
	D	1111 DDDD DDDD DDDD:1100 0000 1000 0101	81
0002F2	C085 F051	MOVFF UPDATEGLCDEVENT_U,LASTUPDATEGLCDEVENT_U
	S	1111 DDDD DDDD DDDD:1100 SSSS SSSS SSSS	134
	D	1111 DDDD DDDD DDDD:1100 0000 1000 0110	82
0002F6	C086 F052	MOVFF UPDATEGLCDEVENT_E,LASTUPDATEGLCDEVENT_E
		ENDIF3
	N	 1101 0NNN NNNN NNNN	1851
0002FA	D73B	BRA SYSDOLOOP_S1
		SYSDOLOOP_E1
		BASPROGRAMEND
0002FC	0003	SLEEP
	N	 1101 0NNN NNNN NNNN	2046
0002FE	D7FE	BRA BASPROGRAMEND


		FN_BCDTODEC4
	S	1111 DDDD DDDD DDDD:1100 SSSS SSSS SSSS	135
	D	1111 DDDD DDDD DDDD:1100 0000 1000 0111	5
000300	C087 F005	MOVFF VA,SYSBYTETEMPA
	K	 0000 1110 KKKK KKKK	16
000304	0E10	MOVLW 16
	F	 0110 111A FFFF FFFF	9
	A	 0110 111A 0000 1001	0
000306	6E09	MOVWF SYSBYTETEMPB,ACCESS
	K	1111 KKKK KKKK KKKK:1110 110S KKKK KKKK	4212
	S	1111 0000 0000 1000:1110 110S 0011 1010	0
000308	EC3A F008	CALL SYSDIVSUB
	S	1111 DDDD DDDD DDDD:1100 SSSS SSSS SSSS	5
	D	1111 DDDD DDDD DDDD:1100 0000 0000 0101	125
00030C	C005 F07D	MOVFF SYSBYTETEMPA,SYSTEMP1
	F	 0101 00DA FFFF FFFF	125
	D	 0101 00DA 0111 1101	0
	A	 0101 000A 0111 1101	1
000310	517D	MOVF SYSTEMP1,W,BANKED
	K	 0000 1101 KKKK KKKK	10
000312	0D0A	MULLW 10
	S	0000 0000 0110 SSSS:1111 SSSS SSSS SSDD:1111 DDDD DDDD DDDD	16371
	D	0000 0000 0110 1111:1111 1111 1100 11DD:1111 DDDD DDDD DDDD	129
000314	006F FFCC F081	MOVFFL PRODL,SYSTEMP2
	S	1111 DDDD DDDD DDDD:1100 SSSS SSSS SSSS	135
	D	1111 DDDD DDDD DDDD:1100 0000 1000 0111	5
00031A	C087 F005	MOVFF VA,SYSBYTETEMPA
	K	 0000 1110 KKKK KKKK	16
00031E	0E10	MOVLW 16
	F	 0110 111A FFFF FFFF	9
	A	 0110 111A 0000 1001	0
000320	6E09	MOVWF SYSBYTETEMPB,ACCESS
	K	1111 KKKK KKKK KKKK:1110 110S KKKK KKKK	4212
	S	1111 0000 0000 1000:1110 110S 0011 1010	0
000322	EC3A F008	CALL SYSDIVSUB
	F	 0101 00DA FFFF FFFF	0
	D	 0101 00DA 0000 0000	0
	A	 0101 000A 0000 0000	0
000326	5000	MOVF SYSBYTETEMPX,W,ACCESS
	F	 0010 01DA FFFF FFFF	129
	D	 0010 01DA 1000 0001	0
	A	 0010 010A 1000 0001	1
000328	2581	ADDWF SYSTEMP2,W,BANKED
	F	 0110 111A FFFF FFFF	13
	A	 0110 111A 0000 1101	0
00032A	6E0D	MOVWF BCDTODEC,ACCESS
	S	 0000 0000 0001 001S	0
00032C	0012	RETURN


		FN_DECTOBCD3
	S	1111 DDDD DDDD DDDD:1100 SSSS SSSS SSSS	135
	D	1111 DDDD DDDD DDDD:1100 0000 1000 0111	5
00032E	C087 F005	MOVFF VA,SYSBYTETEMPA
	K	 0000 1110 KKKK KKKK	10
000332	0E0A	MOVLW 10
	F	 0110 111A FFFF FFFF	9
	A	 0110 111A 0000 1001	0
000334	6E09	MOVWF SYSBYTETEMPB,ACCESS
	K	1111 KKKK KKKK KKKK:1110 110S KKKK KKKK	4212
	S	1111 0000 0000 1000:1110 110S 0011 1010	0
000336	EC3A F008	CALL SYSDIVSUB
	S	1111 DDDD DDDD DDDD:1100 SSSS SSSS SSSS	5
	D	1111 DDDD DDDD DDDD:1100 0000 0000 0101	125
00033A	C005 F07D	MOVFF SYSBYTETEMPA,SYSTEMP1
	F	 0101 00DA FFFF FFFF	125
	D	 0101 00DA 0111 1101	0
	A	 0101 000A 0111 1101	1
00033E	517D	MOVF SYSTEMP1,W,BANKED
	K	 0000 1101 KKKK KKKK	16
000340	0D10	MULLW 16
	S	0000 0000 0110 SSSS:1111 SSSS SSSS SSDD:1111 DDDD DDDD DDDD	16371
	D	0000 0000 0110 1111:1111 1111 1100 11DD:1111 DDDD DDDD DDDD	129
000342	006F FFCC F081	MOVFFL PRODL,SYSTEMP2
	S	1111 DDDD DDDD DDDD:1100 SSSS SSSS SSSS	135
	D	1111 DDDD DDDD DDDD:1100 0000 1000 0111	5
000348	C087 F005	MOVFF VA,SYSBYTETEMPA
	K	 0000 1110 KKKK KKKK	10
00034C	0E0A	MOVLW 10
	F	 0110 111A FFFF FFFF	9
	A	 0110 111A 0000 1001	0
00034E	6E09	MOVWF SYSBYTETEMPB,ACCESS
	K	1111 KKKK KKKK KKKK:1110 110S KKKK KKKK	4212
	S	1111 0000 0000 1000:1110 110S 0011 1010	0
000350	EC3A F008	CALL SYSDIVSUB
	F	 0101 00DA FFFF FFFF	0
	D	 0101 00DA 0000 0000	0
	A	 0101 000A 0000 0000	0
000354	5000	MOVF SYSBYTETEMPX,W,ACCESS
	F	 0010 01DA FFFF FFFF	129
	D	 0010 01DA 1000 0001	0
	A	 0010 010A 1000 0001	1
000356	2581	ADDWF SYSTEMP2,W,BANKED
	F	 0110 111A FFFF FFFF	39
	A	 0110 111A 0010 0111	0
000358	6E27	MOVWF DECTOBCD,ACCESS
	S	 0000 0000 0001 001S	0
00035A	0012	RETURN


		DS1307_ENABLE
	K	1111 KKKK KKKK KKKK:1110 110S KKKK KKKK	3634
	S	1111 0000 0000 0111:1110 110S 0001 1001	0
00035C	EC19 F007	CALL I2CSTART
	K	 0000 1110 KKKK KKKK	208
000360	0ED0	MOVLW 208
	F	 0110 111A FFFF FFFF	76
	A	 0110 111A 0100 1100	0
000362	6E4C	MOVWF I2CBYTE,ACCESS
	K	1111 KKKK KKKK KKKK:1110 110S KKKK KKKK	3498
	S	1111 0000 0000 0110:1110 110S 1101 0101	0
000364	ECD5 F006	CALL I2CSEND
	F	 0110 101A FFFF FFFF	76
	A	 0110 101A 0100 1100	0
000368	6A4C	CLRF I2CBYTE,ACCESS
	K	1111 KKKK KKKK KKKK:1110 110S KKKK KKKK	3498
	S	1111 0000 0000 0110:1110 110S 1101 0101	0
00036A	ECD5 F006	CALL I2CSEND
	K	1111 KKKK KKKK KKKK:1110 110S KKKK KKKK	3634
	S	1111 0000 0000 0111:1110 110S 0001 1001	0
00036E	EC19 F007	CALL I2CSTART
	K	 0000 1110 KKKK KKKK	209
000372	0ED1	MOVLW 209
	F	 0110 111A FFFF FFFF	76
	A	 0110 111A 0100 1100	0
000374	6E4C	MOVWF I2CBYTE,ACCESS
	K	1111 KKKK KKKK KKKK:1110 110S KKKK KKKK	3498
	S	1111 0000 0000 0110:1110 110S 1101 0101	0
000376	ECD5 F006	CALL I2CSEND
	F	 0110 101A FFFF FFFF	74
	A	 0110 101A 0100 1010	0
00037A	6A4A	CLRF I2CACK,ACCESS
	K	1111 KKKK KKKK KKKK:1110 110S KKKK KKKK	3388
	S	1111 0000 0000 0110:1110 110S 1001 1110	0
00037C	EC9E F006	CALL I2CRECEIVE
	S	1111 DDDD DDDD DDDD:1100 SSSS SSSS SSSS	76
	D	1111 DDDD DDDD DDDD:1100 0000 0100 1100	46
000380	C04C F02E	MOVFF I2CBYTE,DS_SEC
	F	 0101 00DA FFFF FFFF	48
	D	 0101 00DA 0011 0000	1
	A	 0101 001A 0011 0000	0
000384	5230	MOVF DS_VALUE,F,ACCESS
	F	 1011 BBBA FFFF FFFF	16344
	B	 1011 BBBA 1101 1000	2
	A	 1011 010A 1101 1000	0
000386	B4D8	BTFSC STATUS,Z,ACCESS
	N	 1101 0NNN NNNN NNNN	2
000388	D002	BRA ELSE7_1
	F	 1001 BBBA FFFF FFFF	46
	B	 1001 BBBA 0010 1110	7
	A	 1001 111A 0010 1110	0
00038A	9E2E	BCF DS_SEC,7,ACCESS
	N	 1101 0NNN NNNN NNNN	1
00038C	D001	BRA ENDIF7
		ELSE7_1
	F	 1000 BBBA FFFF FFFF	46
	B	 1000 BBBA 0010 1110	7
	A	 1000 111A 0010 1110	0
00038E	8E2E	BSF DS_SEC,7,ACCESS
		ENDIF7
	K	1111 KKKK KKKK KKKK:1110 110S KKKK KKKK	3634
	S	1111 0000 0000 0111:1110 110S 0001 1001	0
000390	EC19 F007	CALL I2CSTART
	K	 0000 1110 KKKK KKKK	208
000394	0ED0	MOVLW 208
	F	 0110 111A FFFF FFFF	76
	A	 0110 111A 0100 1100	0
000396	6E4C	MOVWF I2CBYTE,ACCESS
	K	1111 KKKK KKKK KKKK:1110 110S KKKK KKKK	3498
	S	1111 0000 0000 0110:1110 110S 1101 0101	0
000398	ECD5 F006	CALL I2CSEND
	F	 0110 101A FFFF FFFF	76
	A	 0110 101A 0100 1100	0
00039C	6A4C	CLRF I2CBYTE,ACCESS
	K	1111 KKKK KKKK KKKK:1110 110S KKKK KKKK	3498
	S	1111 0000 0000 0110:1110 110S 1101 0101	0
00039E	ECD5 F006	CALL I2CSEND
	S	1111 DDDD DDDD DDDD:1100 SSSS SSSS SSSS	46
	D	1111 DDDD DDDD DDDD:1100 0000 0010 1110	76
0003A2	C02E F04C	MOVFF DS_SEC,I2CBYTE
	K	1111 KKKK KKKK KKKK:1110 110S KKKK KKKK	3498
	S	1111 0000 0000 0110:1110 110S 1101 0101	0
0003A6	ECD5 F006	CALL I2CSEND
	K	1111 KKKK KKKK KKKK:1110 1111 KKKK KKKK	3672
0003AA	EF2C F007	GOTO I2CSTOP


		DS1307_READDATE
	K	1111 KKKK KKKK KKKK:1110 110S KKKK KKKK	3634
	S	1111 0000 0000 0111:1110 110S 0001 1001	0
0003AE	EC19 F007	CALL I2CSTART
	K	 0000 1110 KKKK KKKK	208
0003B2	0ED0	MOVLW 208
	F	 0110 111A FFFF FFFF	76
	A	 0110 111A 0100 1100	0
0003B4	6E4C	MOVWF I2CBYTE,ACCESS
	K	1111 KKKK KKKK KKKK:1110 110S KKKK KKKK	3498
	S	1111 0000 0000 0110:1110 110S 1101 0101	0
0003B6	ECD5 F006	CALL I2CSEND
	K	 0000 1110 KKKK KKKK	3
0003BA	0E03	MOVLW 3
	F	 0110 111A FFFF FFFF	76
	A	 0110 111A 0100 1100	0
0003BC	6E4C	MOVWF I2CBYTE,ACCESS
	K	1111 KKKK KKKK KKKK:1110 110S KKKK KKKK	3498
	S	1111 0000 0000 0110:1110 110S 1101 0101	0
0003BE	ECD5 F006	CALL I2CSEND
	K	1111 KKKK KKKK KKKK:1110 110S KKKK KKKK	3496
	S	1111 0000 0000 0110:1110 110S 1101 0100	0
0003C2	ECD4 F006	CALL I2CRESTART
	K	 0000 1110 KKKK KKKK	209
0003C6	0ED1	MOVLW 209
	F	 0110 111A FFFF FFFF	76
	A	 0110 111A 0100 1100	0
0003C8	6E4C	MOVWF I2CBYTE,ACCESS
	K	1111 KKKK KKKK KKKK:1110 110S KKKK KKKK	3498
	S	1111 0000 0000 0110:1110 110S 1101 0101	0
0003CA	ECD5 F006	CALL I2CSEND
	F	 0110 100A FFFF FFFF	74
	A	 0110 100A 0100 1010	0
0003CE	684A	SETF I2CACK,ACCESS
	K	1111 KKKK KKKK KKKK:1110 110S KKKK KKKK	3388
	S	1111 0000 0000 0110:1110 110S 1001 1110	0
0003D0	EC9E F006	CALL I2CRECEIVE
	S	1111 DDDD DDDD DDDD:1100 SSSS SSSS SSSS	76
	D	1111 DDDD DDDD DDDD:1100 0000 0100 1100	43
0003D4	C04C F02B	MOVFF I2CBYTE,DS_DOW
	S	1111 DDDD DDDD DDDD:1100 SSSS SSSS SSSS	43
	D	1111 DDDD DDDD DDDD:1100 0000 0010 1011	135
0003D8	C02B F087	MOVFF DS_DOW,VA
	N	 1101 1NNN NNNN NNNN	1937
0003DC	DF91	RCALL FN_BCDTODEC4
	S	1111 DDDD DDDD DDDD:1100 SSSS SSSS SSSS	13
	D	1111 DDDD DDDD DDDD:1100 0000 0000 1101	42
0003DE	C00D F02A	MOVFF SYSBCDTODECBYTE,DS_DATE
	F	 0110 100A FFFF FFFF	74
	A	 0110 100A 0100 1010	0
0003E2	684A	SETF I2CACK,ACCESS
	K	1111 KKKK KKKK KKKK:1110 110S KKKK KKKK	3388
	S	1111 0000 0000 0110:1110 110S 1001 1110	0
0003E4	EC9E F006	CALL I2CRECEIVE
	S	1111 DDDD DDDD DDDD:1100 SSSS SSSS SSSS	76
	D	1111 DDDD DDDD DDDD:1100 0000 0100 1100	42
0003E8	C04C F02A	MOVFF I2CBYTE,DS_DATE
	S	1111 DDDD DDDD DDDD:1100 SSSS SSSS SSSS	42
	D	1111 DDDD DDDD DDDD:1100 0000 0010 1010	135
0003EC	C02A F087	MOVFF DS_DATE,VA
	N	 1101 1NNN NNNN NNNN	1927
0003F0	DF87	RCALL FN_BCDTODEC4
	S	1111 DDDD DDDD DDDD:1100 SSSS SSSS SSSS	13
	D	1111 DDDD DDDD DDDD:1100 0000 0000 1101	42
0003F2	C00D F02A	MOVFF SYSBCDTODECBYTE,DS_DATE
	F	 0110 100A FFFF FFFF	74
	A	 0110 100A 0100 1010	0
0003F6	684A	SETF I2CACK,ACCESS
	K	1111 KKKK KKKK KKKK:1110 110S KKKK KKKK	3388
	S	1111 0000 0000 0110:1110 110S 1001 1110	0
0003F8	EC9E F006	CALL I2CRECEIVE
	S	1111 DDDD DDDD DDDD:1100 SSSS SSSS SSSS	76
	D	1111 DDDD DDDD DDDD:1100 0000 0100 1100	45
0003FC	C04C F02D	MOVFF I2CBYTE,DS_MONTH
	S	1111 DDDD DDDD DDDD:1100 SSSS SSSS SSSS	45
	D	1111 DDDD DDDD DDDD:1100 0000 0010 1101	135
000400	C02D F087	MOVFF DS_MONTH,VA
	N	 1101 1NNN NNNN NNNN	1917
000404	DF7D	RCALL FN_BCDTODEC4
	S	1111 DDDD DDDD DDDD:1100 SSSS SSSS SSSS	13
	D	1111 DDDD DDDD DDDD:1100 0000 0000 1101	45
000406	C00D F02D	MOVFF SYSBCDTODECBYTE,DS_MONTH
	F	 0110 101A FFFF FFFF	74
	A	 0110 101A 0100 1010	0
00040A	6A4A	CLRF I2CACK,ACCESS
	K	1111 KKKK KKKK KKKK:1110 110S KKKK KKKK	3388
	S	1111 0000 0000 0110:1110 110S 1001 1110	0
00040C	EC9E F006	CALL I2CRECEIVE
	S	1111 DDDD DDDD DDDD:1100 SSSS SSSS SSSS	76
	D	1111 DDDD DDDD DDDD:1100 0000 0100 1100	49
000410	C04C F031	MOVFF I2CBYTE,DS_YEAR
	S	1111 DDDD DDDD DDDD:1100 SSSS SSSS SSSS	49
	D	1111 DDDD DDDD DDDD:1100 0000 0011 0001	135
000414	C031 F087	MOVFF DS_YEAR,VA
	N	 1101 1NNN NNNN NNNN	1907
000418	DF73	RCALL FN_BCDTODEC4
	S	1111 DDDD DDDD DDDD:1100 SSSS SSSS SSSS	13
	D	1111 DDDD DDDD DDDD:1100 0000 0000 1101	49
00041A	C00D F031	MOVFF SYSBCDTODECBYTE,DS_YEAR
	K	1111 KKKK KKKK KKKK:1110 1111 KKKK KKKK	3672
00041E	EF2C F007	GOTO I2CSTOP


		DS1307_READHOURMODE
	K	1111 KKKK KKKK KKKK:1110 110S KKKK KKKK	3634
	S	1111 0000 0000 0111:1110 110S 0001 1001	0
000422	EC19 F007	CALL I2CSTART
	K	 0000 1110 KKKK KKKK	208
000426	0ED0	MOVLW 208
	F	 0110 111A FFFF FFFF	76
	A	 0110 111A 0100 1100	0
000428	6E4C	MOVWF I2CBYTE,ACCESS
	K	1111 KKKK KKKK KKKK:1110 110S KKKK KKKK	3498
	S	1111 0000 0000 0110:1110 110S 1101 0101	0
00042A	ECD5 F006	CALL I2CSEND
	K	 0000 1110 KKKK KKKK	2
00042E	0E02	MOVLW 2
	F	 0110 111A FFFF FFFF	76
	A	 0110 111A 0100 1100	0
000430	6E4C	MOVWF I2CBYTE,ACCESS
	K	1111 KKKK KKKK KKKK:1110 110S KKKK KKKK	3498
	S	1111 0000 0000 0110:1110 110S 1101 0101	0
000432	ECD5 F006	CALL I2CSEND
	K	1111 KKKK KKKK KKKK:1110 110S KKKK KKKK	3634
	S	1111 0000 0000 0111:1110 110S 0001 1001	0
000436	EC19 F007	CALL I2CSTART
	K	 0000 1110 KKKK KKKK	209
00043A	0ED1	MOVLW 209
	F	 0110 111A FFFF FFFF	76
	A	 0110 111A 0100 1100	0
00043C	6E4C	MOVWF I2CBYTE,ACCESS
	K	1111 KKKK KKKK KKKK:1110 110S KKKK KKKK	3498
	S	1111 0000 0000 0110:1110 110S 1101 0101	0
00043E	ECD5 F006	CALL I2CSEND
	F	 0110 101A FFFF FFFF	74
	A	 0110 101A 0100 1010	0
000442	6A4A	CLRF I2CACK,ACCESS
	K	1111 KKKK KKKK KKKK:1110 110S KKKK KKKK	3388
	S	1111 0000 0000 0110:1110 110S 1001 1110	0
000444	EC9E F006	CALL I2CRECEIVE
	S	1111 DDDD DDDD DDDD:1100 SSSS SSSS SSSS	76
	D	1111 DDDD DDDD DDDD:1100 0000 0100 1100	41
000448	C04C F029	MOVFF I2CBYTE,DS_A_P
	K	1111 KKKK KKKK KKKK:1110 110S KKKK KKKK	3672
	S	1111 0000 0000 0111:1110 110S 0010 1100	0
00044C	EC2C F007	CALL I2CSTOP
	F	 1010 BBBA FFFF FFFF	41
	B	 1010 BBBA 0010 1001	6
	A	 1010 110A 0010 1001	0
000450	AC29	BTFSS DS_A_P,6,ACCESS
	N	 1101 0NNN NNNN NNNN	3
000452	D003	BRA ELSE13_1
	K	 0000 1110 KKKK KKKK	12
000454	0E0C	MOVLW 12
	F	 0110 111A FFFF FFFF	41
	A	 0110 111A 0010 1001	0
000456	6E29	MOVWF DS_A_P,ACCESS
	N	 1101 0NNN NNNN NNNN	2
000458	D002	BRA ENDIF13
		ELSE13_1
	K	 0000 1110 KKKK KKKK	24
00045A	0E18	MOVLW 24
	F	 0110 111A FFFF FFFF	41
	A	 0110 111A 0010 1001	0
00045C	6E29	MOVWF DS_A_P,ACCESS
		ENDIF13
	S	 0000 0000 0001 001S	0
00045E	0012	RETURN


		DS1307_SETHOURMODE
	K	1111 KKKK KKKK KKKK:1110 110S KKKK KKKK	3634
	S	1111 0000 0000 0111:1110 110S 0001 1001	0
000460	EC19 F007	CALL I2CSTART
	K	 0000 1110 KKKK KKKK	208
000464	0ED0	MOVLW 208
	F	 0110 111A FFFF FFFF	76
	A	 0110 111A 0100 1100	0
000466	6E4C	MOVWF I2CBYTE,ACCESS
	K	1111 KKKK KKKK KKKK:1110 110S KKKK KKKK	3498
	S	1111 0000 0000 0110:1110 110S 1101 0101	0
000468	ECD5 F006	CALL I2CSEND
	K	 0000 1110 KKKK KKKK	2
00046C	0E02	MOVLW 2
	F	 0110 111A FFFF FFFF	76
	A	 0110 111A 0100 1100	0
00046E	6E4C	MOVWF I2CBYTE,ACCESS
	K	1111 KKKK KKKK KKKK:1110 110S KKKK KKKK	3498
	S	1111 0000 0000 0110:1110 110S 1101 0101	0
000470	ECD5 F006	CALL I2CSEND
	K	1111 KKKK KKKK KKKK:1110 110S KKKK KKKK	3634
	S	1111 0000 0000 0111:1110 110S 0001 1001	0
000474	EC19 F007	CALL I2CSTART
	K	 0000 1110 KKKK KKKK	209
000478	0ED1	MOVLW 209
	F	 0110 111A FFFF FFFF	76
	A	 0110 111A 0100 1100	0
00047A	6E4C	MOVWF I2CBYTE,ACCESS
	K	1111 KKKK KKKK KKKK:1110 110S KKKK KKKK	3498
	S	1111 0000 0000 0110:1110 110S 1101 0101	0
00047C	ECD5 F006	CALL I2CSEND
	F	 0110 101A FFFF FFFF	74
	A	 0110 101A 0100 1010	0
000480	6A4A	CLRF I2CACK,ACCESS
	K	1111 KKKK KKKK KKKK:1110 110S KKKK KKKK	3388
	S	1111 0000 0000 0110:1110 110S 1001 1110	0
000482	EC9E F006	CALL I2CRECEIVE
	S	1111 DDDD DDDD DDDD:1100 SSSS SSSS SSSS	76
	D	1111 DDDD DDDD DDDD:1100 0000 0100 1100	44
000486	C04C F02C	MOVFF I2CBYTE,DS_HOUR
	K	 0000 1110 KKKK KKKK	12
00048A	0E0C	MOVLW 12
	F	 0101 11DA FFFF FFFF	41
	D	 0101 11DA 0010 1001	0
	A	 0101 110A 0010 1001	0
00048C	5C29	SUBWF DS_A_P,W,ACCESS
	F	 1010 BBBA FFFF FFFF	16344
	B	 1010 BBBA 1101 1000	2
	A	 1010 010A 1101 1000	0
00048E	A4D8	BTFSS STATUS, Z,ACCESS
	N	 1101 0NNN NNNN NNNN	27
000490	D01B	BRA ELSE8_1
	F	 1011 BBBA FFFF FFFF	44
	B	 1011 BBBA 0010 1100	6
	A	 1011 110A 0010 1100	0
000492	BC2C	BTFSC DS_HOUR,6,ACCESS
	N	 1101 0NNN NNNN NNNN	24
000494	D018	BRA ENDIF9
	S	1111 DDDD DDDD DDDD:1100 SSSS SSSS SSSS	44
	D	1111 DDDD DDDD DDDD:1100 0000 0010 1100	135
000496	C02C F087	MOVFF DS_HOUR,VA
	N	 1101 1NNN NNNN NNNN	1842
00049A	DF32	RCALL FN_BCDTODEC4
	S	1111 DDDD DDDD DDDD:1100 SSSS SSSS SSSS	13
	D	1111 DDDD DDDD DDDD:1100 0000 0000 1101	44
00049C	C00D F02C	MOVFF SYSBCDTODECBYTE,DS_HOUR
	F	 0101 00DA FFFF FFFF	44
	D	 0101 00DA 0010 1100	0
	A	 0101 000A 0010 1100	0
0004A0	502C	MOVF DS_HOUR,W,ACCESS
	K	 0000 1000 KKKK KKKK	12
0004A2	080C	SUBLW 12
	F	 1011 BBBA FFFF FFFF	16344
	B	 1011 BBBA 1101 1000	0
	A	 1011 000A 1101 1000	0
0004A4	B0D8	BTFSC STATUS, C,ACCESS
	N	 1101 0NNN NNNN NNNN	9
0004A6	D009	BRA ELSE11_1
	K	 0000 1110 KKKK KKKK	12
0004A8	0E0C	MOVLW 12
	F	 0101 11DA FFFF FFFF	44
	D	 0101 11DA 0010 1100	1
	A	 0101 111A 0010 1100	0
0004AA	5E2C	SUBWF DS_HOUR,F,ACCESS
	S	1111 DDDD DDDD DDDD:1100 SSSS SSSS SSSS	44
	D	1111 DDDD DDDD DDDD:1100 0000 0010 1100	135
0004AC	C02C F087	MOVFF DS_HOUR,VA
	N	 1101 1NNN NNNN NNNN	1854
0004B0	DF3E	RCALL FN_DECTOBCD3
	S	1111 DDDD DDDD DDDD:1100 SSSS SSSS SSSS	39
	D	1111 DDDD DDDD DDDD:1100 0000 0010 0111	44
0004B2	C027 F02C	MOVFF SYSDECTOBCDBYTE,DS_HOUR
	F	 1000 BBBA FFFF FFFF	44
	B	 1000 BBBA 0010 1100	5
	A	 1000 101A 0010 1100	0
0004B6	8A2C	BSF DS_HOUR,5,ACCESS
	N	 1101 0NNN NNNN NNNN	5
0004B8	D005	BRA ENDIF11
		ELSE11_1
	S	1111 DDDD DDDD DDDD:1100 SSSS SSSS SSSS	44
	D	1111 DDDD DDDD DDDD:1100 0000 0010 1100	135
0004BA	C02C F087	MOVFF DS_HOUR,VA
	N	 1101 1NNN NNNN NNNN	1847
0004BE	DF37	RCALL FN_DECTOBCD3
	S	1111 DDDD DDDD DDDD:1100 SSSS SSSS SSSS	39
	D	1111 DDDD DDDD DDDD:1100 0000 0010 0111	44
0004C0	C027 F02C	MOVFF SYSDECTOBCDBYTE,DS_HOUR
		ENDIF11
	F	 1000 BBBA FFFF FFFF	44
	B	 1000 BBBA 0010 1100	6
	A	 1000 110A 0010 1100	0
0004C4	8C2C	BSF DS_HOUR,6,ACCESS
		ENDIF9
	N	 1101 0NNN NNNN NNNN	21
0004C6	D015	BRA ENDIF8
		ELSE8_1
	F	 1010 BBBA FFFF FFFF	44
	B	 1010 BBBA 0010 1100	6
	A	 1010 110A 0010 1100	0
0004C8	AC2C	BTFSS DS_HOUR,6,ACCESS
	N	 1101 0NNN NNNN NNNN	19
0004CA	D013	BRA ENDIF10
	K	 0000 1110 KKKK KKKK	32
0004CC	0E20	MOVLW 32
	F	 0001 01DA FFFF FFFF	44
	D	 0001 01DA 0010 1100	0
	A	 0001 010A 0010 1100	0
0004CE	142C	ANDWF DS_HOUR,W,ACCESS
	F	 0110 111A FFFF FFFF	41
	A	 0110 111A 0010 1001	0
0004D0	6E29	MOVWF DS_A_P,ACCESS
	K	 0000 1110 KKKK KKKK	31
0004D2	0E1F	MOVLW 31
	F	 0001 01DA FFFF FFFF	44
	D	 0001 01DA 0010 1100	0
	A	 0001 010A 0010 1100	0
0004D4	142C	ANDWF DS_HOUR,W,ACCESS
	F	 0110 111A FFFF FFFF	135
	A	 0110 111A 1000 0111	1
0004D6	6F87	MOVWF VA,BANKED
	N	 1101 1NNN NNNN NNNN	1811
0004D8	DF13	RCALL FN_BCDTODEC4
	S	1111 DDDD DDDD DDDD:1100 SSSS SSSS SSSS	13
	D	1111 DDDD DDDD DDDD:1100 0000 0000 1101	44
0004DA	C00D F02C	MOVFF SYSBCDTODECBYTE,DS_HOUR
	F	 0101 00DA FFFF FFFF	41
	D	 0101 00DA 0010 1001	1
	A	 0101 001A 0010 1001	0
0004DE	5229	MOVF DS_A_P,F,ACCESS
	F	 1011 BBBA FFFF FFFF	16344
	B	 1011 BBBA 1101 1000	2
	A	 1011 010A 1101 1000	0
0004E0	B4D8	BTFSC STATUS,Z,ACCESS
	N	 1101 0NNN NNNN NNNN	2
0004E2	D002	BRA ENDIF12
	K	 0000 1110 KKKK KKKK	12
0004E4	0E0C	MOVLW 12
	F	 0010 01DA FFFF FFFF	44
	D	 0010 01DA 0010 1100	1
	A	 0010 011A 0010 1100	0
0004E6	262C	ADDWF DS_HOUR,F,ACCESS
		ENDIF12
	S	1111 DDDD DDDD DDDD:1100 SSSS SSSS SSSS	44
	D	1111 DDDD DDDD DDDD:1100 0000 0010 1100	135
0004E8	C02C F087	MOVFF DS_HOUR,VA
	N	 1101 1NNN NNNN NNNN	1824
0004EC	DF20	RCALL FN_DECTOBCD3
	S	1111 DDDD DDDD DDDD:1100 SSSS SSSS SSSS	39
	D	1111 DDDD DDDD DDDD:1100 0000 0010 0111	44
0004EE	C027 F02C	MOVFF SYSDECTOBCDBYTE,DS_HOUR
		ENDIF10
		ENDIF8
	K	1111 KKKK KKKK KKKK:1110 110S KKKK KKKK	3634
	S	1111 0000 0000 0111:1110 110S 0001 1001	0
0004F2	EC19 F007	CALL I2CSTART
	K	 0000 1110 KKKK KKKK	208
0004F6	0ED0	MOVLW 208
	F	 0110 111A FFFF FFFF	76
	A	 0110 111A 0100 1100	0
0004F8	6E4C	MOVWF I2CBYTE,ACCESS
	K	1111 KKKK KKKK KKKK:1110 110S KKKK KKKK	3498
	S	1111 0000 0000 0110:1110 110S 1101 0101	0
0004FA	ECD5 F006	CALL I2CSEND
	K	 0000 1110 KKKK KKKK	2
0004FE	0E02	MOVLW 2
	F	 0110 111A FFFF FFFF	76
	A	 0110 111A 0100 1100	0
000500	6E4C	MOVWF I2CBYTE,ACCESS
	K	1111 KKKK KKKK KKKK:1110 110S KKKK KKKK	3498
	S	1111 0000 0000 0110:1110 110S 1101 0101	0
000502	ECD5 F006	CALL I2CSEND
	S	1111 DDDD DDDD DDDD:1100 SSSS SSSS SSSS	44
	D	1111 DDDD DDDD DDDD:1100 0000 0010 1100	76
000506	C02C F04C	MOVFF DS_HOUR,I2CBYTE
	K	1111 KKKK KKKK KKKK:1110 110S KKKK KKKK	3498
	S	1111 0000 0000 0110:1110 110S 1101 0101	0
00050A	ECD5 F006	CALL I2CSEND
	K	1111 KKKK KKKK KKKK:1110 1111 KKKK KKKK	3672
00050E	EF2C F007	GOTO I2CSTOP


		DS3231_ENABLESQW
	K	1111 KKKK KKKK KKKK:1110 110S KKKK KKKK	3634
	S	1111 0000 0000 0111:1110 110S 0001 1001	0
000512	EC19 F007	CALL I2CSTART
	K	 0000 1110 KKKK KKKK	208
000516	0ED0	MOVLW 208
	F	 0110 111A FFFF FFFF	76
	A	 0110 111A 0100 1100	0
000518	6E4C	MOVWF I2CBYTE,ACCESS
	K	1111 KKKK KKKK KKKK:1110 110S KKKK KKKK	3498
	S	1111 0000 0000 0110:1110 110S 1101 0101	0
00051A	ECD5 F006	CALL I2CSEND
	K	 0000 1110 KKKK KKKK	14
00051E	0E0E	MOVLW 14
	F	 0110 111A FFFF FFFF	76
	A	 0110 111A 0100 1100	0
000520	6E4C	MOVWF I2CBYTE,ACCESS
	K	1111 KKKK KKKK KKKK:1110 110S KKKK KKKK	3498
	S	1111 0000 0000 0110:1110 110S 1101 0101	0
000522	ECD5 F006	CALL I2CSEND
	K	1111 KKKK KKKK KKKK:1110 110S KKKK KKKK	3634
	S	1111 0000 0000 0111:1110 110S 0001 1001	0
000526	EC19 F007	CALL I2CSTART
	K	 0000 1110 KKKK KKKK	209
00052A	0ED1	MOVLW 209
	F	 0110 111A FFFF FFFF	76
	A	 0110 111A 0100 1100	0
00052C	6E4C	MOVWF I2CBYTE,ACCESS
	K	1111 KKKK KKKK KKKK:1110 110S KKKK KKKK	3498
	S	1111 0000 0000 0110:1110 110S 1101 0101	0
00052E	ECD5 F006	CALL I2CSEND
	F	 0110 101A FFFF FFFF	74
	A	 0110 101A 0100 1010	0
000532	6A4A	CLRF I2CACK,ACCESS
	K	1111 KKKK KKKK KKKK:1110 110S KKKK KKKK	3388
	S	1111 0000 0000 0110:1110 110S 1001 1110	0
000534	EC9E F006	CALL I2CRECEIVE
	S	1111 DDDD DDDD DDDD:1100 SSSS SSSS SSSS	76
	D	1111 DDDD DDDD DDDD:1100 0000 0100 1100	47
000538	C04C F02F	MOVFF I2CBYTE,DS_STATUS
	K	1111 KKKK KKKK KKKK:1110 110S KKKK KKKK	3672
	S	1111 0000 0000 0111:1110 110S 0010 1100	0
00053C	EC2C F007	CALL I2CSTOP
	K	1111 KKKK KKKK KKKK:1110 110S KKKK KKKK	3634
	S	1111 0000 0000 0111:1110 110S 0001 1001	0
000540	EC19 F007	CALL I2CSTART
	K	 0000 1110 KKKK KKKK	208
000544	0ED0	MOVLW 208
	F	 0110 111A FFFF FFFF	76
	A	 0110 111A 0100 1100	0
000546	6E4C	MOVWF I2CBYTE,ACCESS
	K	1111 KKKK KKKK KKKK:1110 110S KKKK KKKK	3498
	S	1111 0000 0000 0110:1110 110S 1101 0101	0
000548	ECD5 F006	CALL I2CSEND
	K	 0000 1110 KKKK KKKK	14
00054C	0E0E	MOVLW 14
	F	 0110 111A FFFF FFFF	76
	A	 0110 111A 0100 1100	0
00054E	6E4C	MOVWF I2CBYTE,ACCESS
	K	1111 KKKK KKKK KKKK:1110 110S KKKK KKKK	3498
	S	1111 0000 0000 0110:1110 110S 1101 0101	0
000550	ECD5 F006	CALL I2CSEND
	F	 1000 BBBA FFFF FFFF	47
	B	 1000 BBBA 0010 1111	6
	A	 1000 110A 0010 1111	0
000554	8C2F	BSF DS_STATUS,6,ACCESS
	F	 1001 BBBA FFFF FFFF	47
	B	 1001 BBBA 0010 1111	2
	A	 1001 010A 0010 1111	0
000556	942F	BCF DS_STATUS,2,ACCESS
	F	 1001 BBBA FFFF FFFF	47
	B	 1001 BBBA 0010 1111	1
	A	 1001 001A 0010 1111	0
000558	922F	BCF DS_STATUS,1,ACCESS
	F	 1001 BBBA FFFF FFFF	47
	B	 1001 BBBA 0010 1111	0
	A	 1001 000A 0010 1111	0
00055A	902F	BCF DS_STATUS,0,ACCESS
	S	1111 DDDD DDDD DDDD:1100 SSSS SSSS SSSS	47
	D	1111 DDDD DDDD DDDD:1100 0000 0010 1111	76
00055C	C02F F04C	MOVFF DS_STATUS,I2CBYTE
	K	1111 KKKK KKKK KKKK:1110 110S KKKK KKKK	3498
	S	1111 0000 0000 0110:1110 110S 1101 0101	0
000560	ECD5 F006	CALL I2CSEND
	K	1111 KKKK KKKK KKKK:1110 1111 KKKK KKKK	3672
000564	EF2C F007	GOTO I2CSTOP


		DS3231_SETSQW
	K	1111 KKKK KKKK KKKK:1110 110S KKKK KKKK	3634
	S	1111 0000 0000 0111:1110 110S 0001 1001	0
000568	EC19 F007	CALL I2CSTART
	K	 0000 1110 KKKK KKKK	208
00056C	0ED0	MOVLW 208
	F	 0110 111A FFFF FFFF	76
	A	 0110 111A 0100 1100	0
00056E	6E4C	MOVWF I2CBYTE,ACCESS
	K	1111 KKKK KKKK KKKK:1110 110S KKKK KKKK	3498
	S	1111 0000 0000 0110:1110 110S 1101 0101	0
000570	ECD5 F006	CALL I2CSEND
	K	 0000 1110 KKKK KKKK	14
000574	0E0E	MOVLW 14
	F	 0110 111A FFFF FFFF	76
	A	 0110 111A 0100 1100	0
000576	6E4C	MOVWF I2CBYTE,ACCESS
	K	1111 KKKK KKKK KKKK:1110 110S KKKK KKKK	3498
	S	1111 0000 0000 0110:1110 110S 1101 0101	0
000578	ECD5 F006	CALL I2CSEND
	K	1111 KKKK KKKK KKKK:1110 110S KKKK KKKK	3634
	S	1111 0000 0000 0111:1110 110S 0001 1001	0
00057C	EC19 F007	CALL I2CSTART
	K	 0000 1110 KKKK KKKK	209
000580	0ED1	MOVLW 209
	F	 0110 111A FFFF FFFF	76
	A	 0110 111A 0100 1100	0
000582	6E4C	MOVWF I2CBYTE,ACCESS
	K	1111 KKKK KKKK KKKK:1110 110S KKKK KKKK	3498
	S	1111 0000 0000 0110:1110 110S 1101 0101	0
000584	ECD5 F006	CALL I2CSEND
	F	 0110 101A FFFF FFFF	74
	A	 0110 101A 0100 1010	0
000588	6A4A	CLRF I2CACK,ACCESS
	N	 1101 1NNN NNNN NNNN	984
00058A	DBD8	RCALL I2CRECEIVE
	S	1111 DDDD DDDD DDDD:1100 SSSS SSSS SSSS	76
	D	1111 DDDD DDDD DDDD:1100 0000 0100 1100	47
00058C	C04C F02F	MOVFF I2CBYTE,DS_STATUS
	K	1111 KKKK KKKK KKKK:1110 110S KKKK KKKK	3672
	S	1111 0000 0000 0111:1110 110S 0010 1100	0
000590	EC2C F007	CALL I2CSTOP
	K	1111 KKKK KKKK KKKK:1110 110S KKKK KKKK	3634
	S	1111 0000 0000 0111:1110 110S 0001 1001	0
000594	EC19 F007	CALL I2CSTART
	K	 0000 1110 KKKK KKKK	208
000598	0ED0	MOVLW 208
	F	 0110 111A FFFF FFFF	76
	A	 0110 111A 0100 1100	0
00059A	6E4C	MOVWF I2CBYTE,ACCESS
	K	1111 KKKK KKKK KKKK:1110 110S KKKK KKKK	3498
	S	1111 0000 0000 0110:1110 110S 1101 0101	0
00059C	ECD5 F006	CALL I2CSEND
	K	 0000 1110 KKKK KKKK	14
0005A0	0E0E	MOVLW 14
	F	 0110 111A FFFF FFFF	76
	A	 0110 111A 0100 1100	0
0005A2	6E4C	MOVWF I2CBYTE,ACCESS
	K	1111 KKKK KKKK KKKK:1110 110S KKKK KKKK	3498
	S	1111 0000 0000 0110:1110 110S 1101 0101	0
0005A4	ECD5 F006	CALL I2CSEND
		SYSSELECT1CASE1
	F	 0101 00DA FFFF FFFF	48
	D	 0101 00DA 0011 0000	1
	A	 0101 001A 0011 0000	0
0005A8	5230	MOVF DS_VALUE,F,ACCESS
	F	 1010 BBBA FFFF FFFF	16344
	B	 1010 BBBA 1101 1000	2
	A	 1010 010A 1101 1000	0
0005AA	A4D8	BTFSS STATUS, Z,ACCESS
	N	 1101 0NNN NNNN NNNN	3
0005AC	D003	BRA SYSSELECT1CASE2
	F	 1001 BBBA FFFF FFFF	47
	B	 1001 BBBA 0010 1111	3
	A	 1001 011A 0010 1111	0
0005AE	962F	BCF DS_STATUS,3,ACCESS
	F	 1001 BBBA FFFF FFFF	47
	B	 1001 BBBA 0010 1111	4
	A	 1001 100A 0010 1111	0
0005B0	982F	BCF DS_STATUS,4,ACCESS
	N	 1101 0NNN NNNN NNNN	22
0005B2	D016	BRA SYSSELECTEND1
		SYSSELECT1CASE2
	F	 0000 01DA FFFF FFFF	48
	D	 0000 01DA 0011 0000	0
	A	 0000 010A 0011 0000	0
0005B4	0430	DECF DS_VALUE,W,ACCESS
	F	 1010 BBBA FFFF FFFF	16344
	B	 1010 BBBA 1101 1000	2
	A	 1010 010A 1101 1000	0
0005B6	A4D8	BTFSS STATUS, Z,ACCESS
	N	 1101 0NNN NNNN NNNN	3
0005B8	D003	BRA SYSSELECT1CASE3
	F	 1000 BBBA FFFF FFFF	47
	B	 1000 BBBA 0010 1111	3
	A	 1000 011A 0010 1111	0
0005BA	862F	BSF DS_STATUS,3,ACCESS
	F	 1001 BBBA FFFF FFFF	47
	B	 1001 BBBA 0010 1111	4
	A	 1001 100A 0010 1111	0
0005BC	982F	BCF DS_STATUS,4,ACCESS
	N	 1101 0NNN NNNN NNNN	16
0005BE	D010	BRA SYSSELECTEND1
		SYSSELECT1CASE3
	K	 0000 1110 KKKK KKKK	2
0005C0	0E02	MOVLW 2
	F	 0101 11DA FFFF FFFF	48
	D	 0101 11DA 0011 0000	0
	A	 0101 110A 0011 0000	0
0005C2	5C30	SUBWF DS_VALUE,W,ACCESS
	F	 1010 BBBA FFFF FFFF	16344
	B	 1010 BBBA 1101 1000	2
	A	 1010 010A 1101 1000	0
0005C4	A4D8	BTFSS STATUS, Z,ACCESS
	N	 1101 0NNN NNNN NNNN	3
0005C6	D003	BRA SYSSELECT1CASE4
	F	 1001 BBBA FFFF FFFF	47
	B	 1001 BBBA 0010 1111	3
	A	 1001 011A 0010 1111	0
0005C8	962F	BCF DS_STATUS,3,ACCESS
	F	 1000 BBBA FFFF FFFF	47
	B	 1000 BBBA 0010 1111	4
	A	 1000 100A 0010 1111	0
0005CA	882F	BSF DS_STATUS,4,ACCESS
	N	 1101 0NNN NNNN NNNN	9
0005CC	D009	BRA SYSSELECTEND1
		SYSSELECT1CASE4
	K	 0000 1110 KKKK KKKK	3
0005CE	0E03	MOVLW 3
	F	 0101 11DA FFFF FFFF	48
	D	 0101 11DA 0011 0000	0
	A	 0101 110A 0011 0000	0
0005D0	5C30	SUBWF DS_VALUE,W,ACCESS
	F	 1010 BBBA FFFF FFFF	16344
	B	 1010 BBBA 1101 1000	2
	A	 1010 010A 1101 1000	0
0005D2	A4D8	BTFSS STATUS, Z,ACCESS
	N	 1101 0NNN NNNN NNNN	3
0005D4	D003	BRA SYSSELECT1CASE5
	F	 1000 BBBA FFFF FFFF	47
	B	 1000 BBBA 0010 1111	3
	A	 1000 011A 0010 1111	0
0005D6	862F	BSF DS_STATUS,3,ACCESS
	F	 1000 BBBA FFFF FFFF	47
	B	 1000 BBBA 0010 1111	4
	A	 1000 100A 0010 1111	0
0005D8	882F	BSF DS_STATUS,4,ACCESS
	N	 1101 0NNN NNNN NNNN	2
0005DA	D002	BRA SYSSELECTEND1
		SYSSELECT1CASE5
	F	 1000 BBBA FFFF FFFF	47
	B	 1000 BBBA 0010 1111	3
	A	 1000 011A 0010 1111	0
0005DC	862F	BSF DS_STATUS,3,ACCESS
	F	 1000 BBBA FFFF FFFF	47
	B	 1000 BBBA 0010 1111	4
	A	 1000 100A 0010 1111	0
0005DE	882F	BSF DS_STATUS,4,ACCESS
		SYSSELECTEND1
	S	1111 DDDD DDDD DDDD:1100 SSSS SSSS SSSS	47
	D	1111 DDDD DDDD DDDD:1100 0000 0010 1111	76
0005E0	C02F F04C	MOVFF DS_STATUS,I2CBYTE
	N	 1101 1NNN NNNN NNNN	994
0005E4	DBE2	RCALL I2CSEND
	K	1111 KKKK KKKK KKKK:1110 1111 KKKK KKKK	3672
0005E6	EF2C F007	GOTO I2CSTOP


		DELAY_MS
	F	 0010 10DA FFFF FFFF	3
	D	 0010 10DA 0000 0011	1
	A	 0010 101A 0000 0011	0
0005EA	2A03	INCF SYSWAITTEMPMS_H, F,ACCESS
		DMS_START
	K	 0000 1110 KKKK KKKK	129
0005EC	0E81	MOVLW 129
	F	 0110 111A FFFF FFFF	1
	A	 0110 111A 0000 0001	0
0005EE	6E01	MOVWF DELAYTEMP2,ACCESS
		DMS_OUTER
	K	 0000 1110 KKKK KKKK	40
0005F0	0E28	MOVLW 40
	F	 0110 111A FFFF FFFF	0
	A	 0110 111A 0000 0000	0
0005F2	6E00	MOVWF DELAYTEMP,ACCESS
		DMS_INNER
	F	 0010 11DA FFFF FFFF	0
	D	 0010 11DA 0000 0000	1
	A	 0010 111A 0000 0000	0
0005F4	2E00	DECFSZ DELAYTEMP, F,ACCESS
	N	 1101 0NNN NNNN NNNN	2046
0005F6	D7FE	BRA DMS_INNER
	F	 0010 11DA FFFF FFFF	1
	D	 0010 11DA 0000 0001	1
	A	 0010 111A 0000 0001	0
0005F8	2E01	DECFSZ DELAYTEMP2, F,ACCESS
	N	 1101 0NNN NNNN NNNN	2042
0005FA	D7FA	BRA DMS_OUTER
	F	 0010 11DA FFFF FFFF	2
	D	 0010 11DA 0000 0010	1
	A	 0010 111A 0000 0010	0
0005FC	2E02	DECFSZ SYSWAITTEMPMS, F,ACCESS
	N	 1101 0NNN NNNN NNNN	2038
0005FE	D7F6	BRA DMS_START
	F	 0010 11DA FFFF FFFF	3
	D	 0010 11DA 0000 0011	1
	A	 0010 111A 0000 0011	0
000600	2E03	DECFSZ SYSWAITTEMPMS_H, F,ACCESS
	N	 1101 0NNN NNNN NNNN	2036
000602	D7F4	BRA DMS_START
	S	 0000 0000 0001 001S	0
000604	0012	RETURN


		DELAY_S
		DS_START
	K	 0000 1110 KKKK KKKK	232
000606	0EE8	MOVLW 232
	F	 0110 111A FFFF FFFF	2
	A	 0110 111A 0000 0010	0
000608	6E02	MOVWF SYSWAITTEMPMS,ACCESS
	K	 0000 1110 KKKK KKKK	3
00060A	0E03	MOVLW 3
	F	 0110 111A FFFF FFFF	3
	A	 0110 111A 0000 0011	0
00060C	6E03	MOVWF SYSWAITTEMPMS_H,ACCESS
	N	 1101 1NNN NNNN NNNN	2029
00060E	DFED	RCALL DELAY_MS
	F	 0010 11DA FFFF FFFF	4
	D	 0010 11DA 0000 0100	1
	A	 0010 111A 0000 0100	0
000610	2E04	DECFSZ SYSWAITTEMPS, F,ACCESS
	N	 1101 0NNN NNNN NNNN	2041
000612	D7F9	BRA DS_START
	S	 0000 0000 0001 001S	0
000614	0012	RETURN


		GLCDCHARCOL3
	K	 0000 1110 KKKK KKKK	113
000616	0E71	MOVLW 113
	F	 0110 000A FFFF FFFF	7
	A	 0110 000A 0000 0111	0
000618	6007	CPFSLT SYSSTRINGA,ACCESS
	K	 0000 1100 KKKK KKKK	0
00061A	0C00	RETLW 0
	F	 0101 00DA FFFF FFFF	7
	D	 0101 00DA 0000 0111	0
	A	 0101 000A 0000 0111	0
00061C	5007	MOVF SYSSTRINGA, W,ACCESS
	K	 0000 1111 KKKK KKKK	56
00061E	0F38	ADDLW LOW TABLEGLCDCHARCOL3
	F	 0110 111A FFFF FFFF	16374
	A	 0110 111A 1111 0110	0
000620	6EF6	MOVWF TBLPTRL,ACCESS
	K	 0000 1110 KKKK KKKK	6
000622	0E06	MOVLW HIGH TABLEGLCDCHARCOL3
	F	 1011 BBBA FFFF FFFF	16344
	B	 1011 BBBA 1101 1000	0
	A	 1011 000A 1101 1000	0
000624	B0D8	BTFSC STATUS, C,ACCESS
	K	 0000 1111 KKKK KKKK	1
000626	0F01	ADDLW 1
	F	 0110 111A FFFF FFFF	16375
	A	 0110 111A 1111 0111	0
000628	6EF7	MOVWF TBLPTRH,ACCESS
	K	 0000 1110 KKKK KKKK	0
00062A	0E00	MOVLW UPPER TABLEGLCDCHARCOL3
	F	 1011 BBBA FFFF FFFF	16344
	B	 1011 BBBA 1101 1000	0
	A	 1011 000A 1101 1000	0
00062C	B0D8	BTFSC STATUS, C,ACCESS
	K	 0000 1111 KKKK KKKK	1
00062E	0F01	ADDLW 1
	F	 0110 111A FFFF FFFF	16376
	A	 0110 111A 1111 1000	0
000630	6EF8	MOVWF TBLPTRU,ACCESS
000632	0008	TBLRD*
	F	 0101 00DA FFFF FFFF	16373
	D	 0101 00DA 1111 0101	0
	A	 0101 000A 1111 0101	0
000634	50F5	MOVF TABLAT, W,ACCESS
	S	 0000 0000 0001 001S	0
000636	0012	RETURN
		TABLEGLCDCHARCOL3
000638	0070 0C10 880A 3822 0820 1020 8010 4080 0004 0000 4828 6C46 0000 2800	RAW 0070,0C10,880A,3822,0820,1020,8010,4080,0004,0000,4828,6C46,0000,2800
000654	0010 0010 7C40 8400 3082 784E 6C06 000C 1000 0028 6404 FEF8 FE7C	RAW 0010,0010,7C40,8400,3082,784E,6C06,000C,1000,0028,6404,FEF8,FE7C
00066E	FEFE FE7C 4000 FEFE FEFE FE7C FE7C 024C 3E7E C67E C20E	RAW FEFE,FE7C,4000,FEFE,FEFE,FE7C,FE7C,024C,3E7E,C67E,C20E
000684	0400 0800 0080 FE40 7070 1070 FE10 4000 00FE F8F8 F870 F810	RAW 0400,0800,0080,FE40,7070,1070,FE10,4000,00FE,F8F8,F870,F810
00069C	1090 3878 8878 8818 0000 2000 0078	RAW 1090,3878,8878,8818,0000,2000,0078


		GLCDCHARCOL4
	K	 0000 1110 KKKK KKKK	113
0006AA	0E71	MOVLW 113
	F	 0110 000A FFFF FFFF	7
	A	 0110 000A 0000 0111	0
0006AC	6007	CPFSLT SYSSTRINGA,ACCESS
	K	 0000 1100 KKKK KKKK	0
0006AE	0C00	RETLW 0
	F	 0101 00DA FFFF FFFF	7
	D	 0101 00DA 0000 0111	0
	A	 0101 000A 0000 0111	0
0006B0	5007	MOVF SYSSTRINGA, W,ACCESS
	K	 0000 1111 KKKK KKKK	204
0006B2	0FCC	ADDLW LOW TABLEGLCDCHARCOL4
	F	 0110 111A FFFF FFFF	16374
	A	 0110 111A 1111 0110	0
0006B4	6EF6	MOVWF TBLPTRL,ACCESS
	K	 0000 1110 KKKK KKKK	6
0006B6	0E06	MOVLW HIGH TABLEGLCDCHARCOL4
	F	 1011 BBBA FFFF FFFF	16344
	B	 1011 BBBA 1101 1000	0
	A	 1011 000A 1101 1000	0
0006B8	B0D8	BTFSC STATUS, C,ACCESS
	K	 0000 1111 KKKK KKKK	1
0006BA	0F01	ADDLW 1
	F	 0110 111A FFFF FFFF	16375
	A	 0110 111A 1111 0111	0
0006BC	6EF7	MOVWF TBLPTRH,ACCESS
	K	 0000 1110 KKKK KKKK	0
0006BE	0E00	MOVLW UPPER TABLEGLCDCHARCOL4
	F	 1011 BBBA FFFF FFFF	16344
	B	 1011 BBBA 1101 1000	0
	A	 1011 000A 1101 1000	0
0006C0	B0D8	BTFSC STATUS, C,ACCESS
	K	 0000 1111 KKKK KKKK	1
0006C2	0F01	ADDLW 1
	F	 0110 111A FFFF FFFF	16376
	A	 0110 111A 1111 1000	0
0006C4	6EF8	MOVWF TBLPTRU,ACCESS
0006C6	0008	TBLRD*
	F	 0101 00DA FFFF FFFF	16373
	D	 0101 00DA 1111 0101	0
	A	 0101 000A 1111 0101	0
0006C8	50F5	MOVF TABLAT, W,ACCESS
	S	 0000 0000 0001 001S	0
0006CA	0012	RETURN
		TABLEGLCDCHARCOL4
0006CC	FE70 0A38 CC06 7C66 0470 1040 8838 70A2 001C 0E00 54FE 9226	RAW FE70,0A38,CC06,7C66,0470,1040,8838,70A2,001C,0E00,54FE,9226
0006E4	380A 1082 A010 C010 A220 C284 2882 948A 9202 6C92 28AC	RAW 380A,1082,A010,C010,A220,C284,2882,948A,9202,6C92,28AC
0006FA	8228 9202 9224 8282 1292 1082 8082 8010 0804 1282 1282 0292	RAW 8228,9202,9224,8282,1292,1082,8082,8010,0804,1282,1282,0292
000712	4080 2880 A210 08FE 0482 0280 90A8 8888 FCA8 10A8 8090	RAW 4080,2880,A210,08FE,0482,0280,90A8,8888,FCA8,10A8,8090
000728	8220 1008 2888 1028 7CA8 4080 5080 C8A0 0010 1082 0044	RAW 8220,1008,2888,1028,7CA8,4080,5080,C8A0,0010,1082,0044


		GLCDCHARCOL5
	K	 0000 1110 KKKK KKKK	113
00073E	0E71	MOVLW 113
	F	 0110 000A FFFF FFFF	7
	A	 0110 000A 0000 0111	0
000740	6007	CPFSLT SYSSTRINGA,ACCESS
	K	 0000 1100 KKKK KKKK	0
000742	0C00	RETLW 0
	F	 0101 00DA FFFF FFFF	7
	D	 0101 00DA 0000 0111	0
	A	 0101 000A 0000 0111	0
000744	5007	MOVF SYSSTRINGA, W,ACCESS
	K	 0000 1111 KKKK KKKK	96
000746	0F60	ADDLW LOW TABLEGLCDCHARCOL5
	F	 0110 111A FFFF FFFF	16374
	A	 0110 111A 1111 0110	0
000748	6EF6	MOVWF TBLPTRL,ACCESS
	K	 0000 1110 KKKK KKKK	7
00074A	0E07	MOVLW HIGH TABLEGLCDCHARCOL5
	F	 1011 BBBA FFFF FFFF	16344
	B	 1011 BBBA 1101 1000	0
	A	 1011 000A 1101 1000	0
00074C	B0D8	BTFSC STATUS, C,ACCESS
	K	 0000 1111 KKKK KKKK	1
00074E	0F01	ADDLW 1
	F	 0110 111A FFFF FFFF	16375
	A	 0110 111A 1111 0111	0
000750	6EF7	MOVWF TBLPTRH,ACCESS
	K	 0000 1110 KKKK KKKK	0
000752	0E00	MOVLW UPPER TABLEGLCDCHARCOL5
	F	 1011 BBBA FFFF FFFF	16344
	B	 1011 BBBA 1101 1000	0
	A	 1011 000A 1101 1000	0
000754	B0D8	BTFSC STATUS, C,ACCESS
	K	 0000 1111 KKKK KKKK	1
000756	0F01	ADDLW 1
	F	 0110 111A FFFF FFFF	16376
	A	 0110 111A 1111 1000	0
000758	6EF8	MOVWF TBLPTRU,ACCESS
00075A	0008	TBLRD*
	F	 0101 00DA FFFF FFFF	16373
	D	 0101 00DA 1111 0101	0
	A	 0101 000A 1111 0101	0
00075C	50F5	MOVF TABLAT, W,ACCESS
	S	 0000 0000 0001 001S	0
00075E	0012	RETURN
		TABLEGLCDCHARCOL5
000760	7C70 007C EE00 7CEE FEA8 54FE 9454 7C94 007C 009E FE28 AA10	RAW 7C70,007C,EE00,7CEE,FEA8,54FE,9454,7C94,007C,009E,FE28,AA10
000778	4406 7C44 607C C010 9210 A2FE 248A 928A 92E2 6C92 446C	RAW 4406,7C44,607C,C010,9210,A2FE,248A,928A,92E2,6C92,446C
00078E	4428 F2A2 9222 8282 1292 1092 82FE 8028 1018 1282 32A2	RAW 4428,F2A2,9222,8282,1292,1092,82FE,8028,1018,1282,32A2
0007A4	FE92 8080 1070 92E0 1082 0282 0480 88A8 8888 12A8 08A8	RAW FE92,8080,1070,92E0,1082,0282,0480,88A8,8888,12A8,08A8
0007BA	88FA FE50 08F0 2888 0828 90A8 8080 2060 A8A0 FE6C 106C	RAW 88FA,FE50,08F0,2888,0828,90A8,8080,2060,A8A0,FE6C,106C
0007D0	0042	RAW 0042


		GLCDCHARCOL6
	K	 0000 1110 KKKK KKKK	113
0007D2	0E71	MOVLW 113
	F	 0110 000A FFFF FFFF	7
	A	 0110 000A 0000 0111	0
0007D4	6007	CPFSLT SYSSTRINGA,ACCESS
	K	 0000 1100 KKKK KKKK	0
0007D6	0C00	RETLW 0
	F	 0101 00DA FFFF FFFF	7
	D	 0101 00DA 0000 0111	0
	A	 0101 000A 0000 0111	0
0007D8	5007	MOVF SYSSTRINGA, W,ACCESS
	K	 0000 1111 KKKK KKKK	244
0007DA	0FF4	ADDLW LOW TABLEGLCDCHARCOL6
	F	 0110 111A FFFF FFFF	16374
	A	 0110 111A 1111 0110	0
0007DC	6EF6	MOVWF TBLPTRL,ACCESS
	K	 0000 1110 KKKK KKKK	7
0007DE	0E07	MOVLW HIGH TABLEGLCDCHARCOL6
	F	 1011 BBBA FFFF FFFF	16344
	B	 1011 BBBA 1101 1000	0
	A	 1011 000A 1101 1000	0
0007E0	B0D8	BTFSC STATUS, C,ACCESS
	K	 0000 1111 KKKK KKKK	1
0007E2	0F01	ADDLW 1
	F	 0110 111A FFFF FFFF	16375
	A	 0110 111A 1111 0111	0
0007E4	6EF7	MOVWF TBLPTRH,ACCESS
	K	 0000 1110 KKKK KKKK	0
0007E6	0E00	MOVLW UPPER TABLEGLCDCHARCOL6
	F	 1011 BBBA FFFF FFFF	16344
	B	 1011 BBBA 1101 1000	0
	A	 1011 000A 1101 1000	0
0007E8	B0D8	BTFSC STATUS, C,ACCESS
	K	 0000 1111 KKKK KKKK	1
0007EA	0F01	ADDLW 1
	F	 0110 111A FFFF FFFF	16376
	A	 0110 111A 1111 1000	0
0007EC	6EF8	MOVWF TBLPTRU,ACCESS
0007EE	0008	TBLRD*
	F	 0101 00DA FFFF FFFF	16373
	D	 0101 00DA 1111 0101	0
	A	 0101 000A 1111 0101	0
0007F0	50F5	MOVF TABLAT, W,ACCESS
	S	 0000 0000 0001 001S	0
0007F2	0012	RETURN
		TABLEGLCDCHARCOL6
0007F4	3870 0CFE CC0A 7C66 0420 3840 A210 7088 001C 0E00 54FE 44C8	RAW 3870,0CFE,CC0A,7C66,0420,3840,A210,7088,001C,0E00,54FE,44C8
00080C	8200 1038 0010 0010 8A08 9280 FE96 928A 9212 0052 8200 2828 8212	RAW 8200,1038,0010,0010,8A08,9280,FE96,928A,9212,0052,8200,2828,8212
000826	9224 4482 1292 1092 7E82 8044 2004 1282 5242 0292 4080 2880	RAW 9224,4482,1292,1092,7E82,8044,2004,1282,5242,0292,4080,2880
00083E	8A10 2082 04FE 0880 88A8 9088 02A8 08A8 7A80 8088 0808 2888	RAW 8A10,2082,04FE,0880,88A8,9088,02A8,08A8,7A80,8088,0808,2888
000856	0830 80A8 4040 5080 98A0 0082 2010 0044	RAW 0830,80A8,4040,5080,98A0,0082,2010,0044


		GLCDCHARCOL7
	K	 0000 1110 KKKK KKKK	113
000866	0E71	MOVLW 113
	F	 0110 000A FFFF FFFF	7
	A	 0110 000A 0000 0111	0
000868	6007	CPFSLT SYSSTRINGA,ACCESS
	K	 0000 1100 KKKK KKKK	0
00086A	0C00	RETLW 0
	F	 0101 00DA FFFF FFFF	7
	D	 0101 00DA 0000 0111	0
	A	 0101 000A 0000 0111	0
00086C	5007	MOVF SYSSTRINGA, W,ACCESS
	K	 0000 1111 KKKK KKKK	136
00086E	0F88	ADDLW LOW TABLEGLCDCHARCOL7
	F	 0110 111A FFFF FFFF	16374
	A	 0110 111A 1111 0110	0
000870	6EF6	MOVWF TBLPTRL,ACCESS
	K	 0000 1110 KKKK KKKK	8
000872	0E08	MOVLW HIGH TABLEGLCDCHARCOL7
	F	 1011 BBBA FFFF FFFF	16344
	B	 1011 BBBA 1101 1000	0
	A	 1011 000A 1101 1000	0
000874	B0D8	BTFSC STATUS, C,ACCESS
	K	 0000 1111 KKKK KKKK	1
000876	0F01	ADDLW 1
	F	 0110 111A FFFF FFFF	16375
	A	 0110 111A 1111 0111	0
000878	6EF7	MOVWF TBLPTRH,ACCESS
	K	 0000 1110 KKKK KKKK	0
00087A	0E00	MOVLW UPPER TABLEGLCDCHARCOL7
	F	 1011 BBBA FFFF FFFF	16344
	B	 1011 BBBA 1101 1000	0
	A	 1011 000A 1101 1000	0
00087C	B0D8	BTFSC STATUS, C,ACCESS
	K	 0000 1111 KKKK KKKK	1
00087E	0F01	ADDLW 1
	F	 0110 111A FFFF FFFF	16376
	A	 0110 111A 1111 1000	0
000880	6EF8	MOVWF TBLPTRU,ACCESS
000882	0008	TBLRD*
	F	 0101 00DA FFFF FFFF	16373
	D	 0101 00DA 1111 0101	0
	A	 0101 000A 1111 0101	0
000884	50F5	MOVF TABLAT, W,ACCESS
	S	 0000 0000 0001 001S	0
000886	0012	RETURN
		TABLEGLCDCHARCOL7
000888	1070 0A00 8806 3822 083E 1020 8010 4080 0004 0000 2428 A0C4 0000 2800	RAW 1070,0A00,8806,3822,083E,1020,8010,4080,0004,0000,2428,A0C4,0000,2800
0008A4	0010 0010 7C04 8C00 2062 6072 6C0E 003C 0000 1028 7C0C 6CF8 3844	RAW 0010,0010,7C04,8C00,2062,6072,6C0E,003C,0000,1028,7C0C,6CF8,3844
0008BE	0282 FEF4 0200 8082 FEFE 0C7C 8CBC 0264 3E7E C67E 860E 4000	RAW 0282,FEF4,0200,8082,FEFE,0C7C,8CBC,0264,3E7E,C67E,860E,4000
0008D6	0800 0080 70F0 FE40 0430 F078 0000 0000 F0F0 1070 10F8 4040 38F8	RAW 0800,0080,70F0,FE40,0430,F078,0000,0000,F0F0,1070,10F8,4040,38F8
0008F0	8878 8878 0000 1000 0078	RAW 8878,8878,0000,1000,0078


		GLCDCLS_KS0108
	F	 0110 101A FFFF FFFF	72
	A	 0110 101A 0100 1000	0
0008FA	6A48	CLRF GLCD_YORDINATE,ACCESS
	F	 0110 101A FFFF FFFF	73
	A	 0110 101A 0100 1001	0
0008FC	6A49	CLRF GLCD_YORDINATE_H,ACCESS
	F	 1001 BBBA FFFF FFFF	16315
	B	 1001 BBBA 1011 1011	4
	A	 1001 100A 1011 1011	0
0008FE	98BB	BCF LATB,4,ACCESS
	F	 1000 BBBA FFFF FFFF	16315
	B	 1000 BBBA 1011 1011	5
	A	 1000 101A 1011 1011	0
000900	8ABB	BSF LATB,5,ACCESS
	F	 0110 101A FFFF FFFF	71
	A	 0110 101A 0100 0111	0
000902	6A47	CLRF GLCD_COUNT,ACCESS
		SYSFORLOOP7
	F	 0010 10DA FFFF FFFF	71
	D	 0010 10DA 0100 0111	1
	A	 0010 101A 0100 0111	0
000904	2A47	INCF GLCD_COUNT,F,ACCESS
	F	 0110 100A FFFF FFFF	37
	A	 0110 100A 0010 0101	0
000906	6825	SETF CURRPAGE,ACCESS
		SYSFORLOOP8
	F	 0010 10DA FFFF FFFF	37
	D	 0010 10DA 0010 0101	1
	A	 0010 101A 0010 0101	0
000908	2A25	INCF CURRPAGE,F,ACCESS
	F	 1001 BBBA FFFF FFFF	16315
	B	 1001 BBBA 1011 1011	3
	A	 1001 011A 1011 1011	0
00090A	96BB	BCF LATB,3,ACCESS
	K	 0000 1110 KKKK KKKK	184
00090C	0EB8	MOVLW 184
	F	 0001 00DA FFFF FFFF	37
	D	 0001 00DA 0010 0101	0
	A	 0001 000A 0010 0101	0
00090E	1025	IORWF CURRPAGE,W,ACCESS
	F	 0110 111A FFFF FFFF	83
	A	 0110 111A 0101 0011	0
000910	6E53	MOVWF LCDBYTE,ACCESS
	N	 1101 1NNN NNNN NNNN	445
000912	D9BD	RCALL GLCDWRITEBYTE_KS0108
	F	 0110 100A FFFF FFFF	36
	A	 0110 100A 0010 0100	0
000914	6824	SETF CURRCOL,ACCESS
		SYSFORLOOP9
	F	 0010 10DA FFFF FFFF	36
	D	 0010 10DA 0010 0100	1
	A	 0010 101A 0010 0100	0
000916	2A24	INCF CURRCOL,F,ACCESS
	F	 1001 BBBA FFFF FFFF	16315
	B	 1001 BBBA 1011 1011	3
	A	 1001 011A 1011 1011	0
000918	96BB	BCF LATB,3,ACCESS
	K	 0000 1110 KKKK KKKK	64
00091A	0E40	MOVLW 64
	F	 0001 00DA FFFF FFFF	36
	D	 0001 00DA 0010 0100	0
	A	 0001 000A 0010 0100	0
00091C	1024	IORWF CURRCOL,W,ACCESS
	F	 0110 111A FFFF FFFF	83
	A	 0110 111A 0101 0011	0
00091E	6E53	MOVWF LCDBYTE,ACCESS
	N	 1101 1NNN NNNN NNNN	438
000920	D9B6	RCALL GLCDWRITEBYTE_KS0108
	F	 1000 BBBA FFFF FFFF	16315
	B	 1000 BBBA 1011 1011	3
	A	 1000 011A 1011 1011	0
000922	86BB	BSF LATB,3,ACCESS
	F	 0110 101A FFFF FFFF	83
	A	 0110 101A 0101 0011	0
000924	6A53	CLRF LCDBYTE,ACCESS
	N	 1101 1NNN NNNN NNNN	435
000926	D9B3	RCALL GLCDWRITEBYTE_KS0108
	K	 0000 1110 KKKK KKKK	63
000928	0E3F	MOVLW 63
	F	 0101 11DA FFFF FFFF	36
	D	 0101 11DA 0010 0100	0
	A	 0101 110A 0010 0100	0
00092A	5C24	SUBWF CURRCOL,W,ACCESS
	F	 1010 BBBA FFFF FFFF	16344
	B	 1010 BBBA 1101 1000	0
	A	 1010 000A 1101 1000	0
00092C	A0D8	BTFSS STATUS, C,ACCESS
	N	 1101 0NNN NNNN NNNN	2035
00092E	D7F3	BRA SYSFORLOOP9
		SYSFORLOOPEND9
	K	 0000 1110 KKKK KKKK	7
000930	0E07	MOVLW 7
	F	 0101 11DA FFFF FFFF	37
	D	 0101 11DA 0010 0101	0
	A	 0101 110A 0010 0101	0
000932	5C25	SUBWF CURRPAGE,W,ACCESS
	F	 1010 BBBA FFFF FFFF	16344
	B	 1010 BBBA 1101 1000	0
	A	 1010 000A 1101 1000	0
000934	A0D8	BTFSS STATUS, C,ACCESS
	N	 1101 0NNN NNNN NNNN	2024
000936	D7E8	BRA SYSFORLOOP8
		SYSFORLOOPEND8
	F	 1000 BBBA FFFF FFFF	16315
	B	 1000 BBBA 1011 1011	4
	A	 1000 100A 1011 1011	0
000938	88BB	BSF LATB,4,ACCESS
	F	 1001 BBBA FFFF FFFF	16315
	B	 1001 BBBA 1011 1011	5
	A	 1001 101A 1011 1011	0
00093A	9ABB	BCF LATB,5,ACCESS
	K	 0000 1110 KKKK KKKK	2
00093C	0E02	MOVLW 2
	F	 0101 11DA FFFF FFFF	71
	D	 0101 11DA 0100 0111	0
	A	 0101 110A 0100 0111	0
00093E	5C47	SUBWF GLCD_COUNT,W,ACCESS
	F	 1010 BBBA FFFF FFFF	16344
	B	 1010 BBBA 1101 1000	0
	A	 1010 000A 1101 1000	0
000940	A0D8	BTFSS STATUS, C,ACCESS
	N	 1101 0NNN NNNN NNNN	2016
000942	D7E0	BRA SYSFORLOOP7
		SYSFORLOOPEND7
	F	 1000 BBBA FFFF FFFF	16315
	B	 1000 BBBA 1011 1011	4
	A	 1000 100A 1011 1011	0
000944	88BB	BSF LATB,4,ACCESS
	F	 1000 BBBA FFFF FFFF	16315
	B	 1000 BBBA 1011 1011	5
	A	 1000 101A 1011 1011	0
000946	8ABB	BSF LATB,5,ACCESS
	S	 0000 0000 0001 001S	0
000948	0012	RETURN


		GLCDDRAWCHAR
	S	1111 DDDD DDDD DDDD:1100 SSSS SSSS SSSS	88
	D	1111 DDDD DDDD DDDD:1100 0000 0101 1000	5
00094A	C058 F005	MOVFF LINECOLOUR,SYSWORDTEMPA
	S	1111 DDDD DDDD DDDD:1100 SSSS SSSS SSSS	89
	D	1111 DDDD DDDD DDDD:1100 0000 0101 1001	6
00094E	C059 F006	MOVFF LINECOLOUR_H,SYSWORDTEMPA_H
	S	1111 DDDD DDDD DDDD:1100 SSSS SSSS SSSS	62
	D	1111 DDDD DDDD DDDD:1100 0000 0011 1110	9
000952	C03E F009	MOVFF GLCDFOREGROUND,SYSWORDTEMPB
	S	1111 DDDD DDDD DDDD:1100 SSSS SSSS SSSS	63
	D	1111 DDDD DDDD DDDD:1100 0000 0011 1111	10
000956	C03F F00A	MOVFF GLCDFOREGROUND_H,SYSWORDTEMPB_H
	N	 1101 1NNN NNNN NNNN	879
00095A	DB6F	RCALL SYSCOMPEQUAL16
	F	 0001 11DA FFFF FFFF	0
	D	 0001 11DA 0000 0000	1
	A	 0001 111A 0000 0000	0
00095C	1E00	COMF SYSBYTETEMPX,F,ACCESS
	F	 1010 BBBA FFFF FFFF	0
	B	 1010 BBBA 0000 0000	0
	A	 1010 000A 0000 0000	0
00095E	A000	BTFSS SYSBYTETEMPX,0,ACCESS
	N	 1101 0NNN NNNN NNNN	5
000960	D005	BRA ENDIF19
	K	 0000 1110 KKKK KKKK	1
000962	0E01	MOVLW 1
	F	 0110 111A FFFF FFFF	50
	A	 0110 111A 0011 0010	0
000964	6E32	MOVWF GLCDBACKGROUND,ACCESS
	F	 0110 101A FFFF FFFF	51
	A	 0110 101A 0011 0011	0
000966	6A33	CLRF GLCDBACKGROUND_H,ACCESS
	F	 0110 101A FFFF FFFF	62
	A	 0110 101A 0011 1110	0
000968	6A3E	CLRF GLCDFOREGROUND,ACCESS
	F	 0110 101A FFFF FFFF	63
	A	 0110 101A 0011 1111	0
00096A	6A3F	CLRF GLCDFOREGROUND_H,ACCESS
		ENDIF19
	K	 0000 1110 KKKK KKKK	15
00096C	0E0F	MOVLW 15
	F	 0101 11DA FFFF FFFF	20
	D	 0101 11DA 0001 0100	1
	A	 0101 111A 0001 0100	0
00096E	5E14	SUBWF CHARCODE,F,ACCESS
	F	 0110 101A FFFF FFFF	21
	A	 0110 101A 0001 0101	0
000970	6A15	CLRF CHARCOL,ACCESS
	F	 0110 101A FFFF FFFF	22
	A	 0110 101A 0001 0110	0
000972	6A16	CLRF CHARCOL_H,ACCESS
	S	1111 DDDD DDDD DDDD:1100 SSSS SSSS SSSS	20
	D	1111 DDDD DDDD DDDD:1100 0000 0001 0100	5
000974	C014 F005	MOVFF CHARCODE,SYSBYTETEMPA
	K	 0000 1110 KKKK KKKK	178
000978	0EB2	MOVLW 178
	F	 0110 111A FFFF FFFF	9
	A	 0110 111A 0000 1001	0
00097A	6E09	MOVWF SYSBYTETEMPB,ACCESS
	N	 1101 1NNN NNNN NNNN	886
00097C	DB76	RCALL SYSCOMPLESSTHAN
	F	 0001 11DA FFFF FFFF	0
	D	 0001 11DA 0000 0000	1
	A	 0001 111A 0000 0000	0
00097E	1E00	COMF SYSBYTETEMPX,F,ACCESS
	S	1111 DDDD DDDD DDDD:1100 SSSS SSSS SSSS	0
	D	1111 DDDD DDDD DDDD:1100 0000 0000 0000	125
000980	C000 F07D	MOVFF SYSBYTETEMPX,SYSTEMP1
	S	1111 DDDD DDDD DDDD:1100 SSSS SSSS SSSS	20
	D	1111 DDDD DDDD DDDD:1100 0000 0001 0100	9
000984	C014 F009	MOVFF CHARCODE,SYSBYTETEMPB
	K	 0000 1110 KKKK KKKK	202
000988	0ECA	MOVLW 202
	F	 0110 111A FFFF FFFF	5
	A	 0110 111A 0000 0101	0
00098A	6E05	MOVWF SYSBYTETEMPA,ACCESS
	N	 1101 1NNN NNNN NNNN	878
00098C	DB6E	RCALL SYSCOMPLESSTHAN
	F	 0001 11DA FFFF FFFF	0
	D	 0001 11DA 0000 0000	1
	A	 0001 111A 0000 0000	0
00098E	1E00	COMF SYSBYTETEMPX,F,ACCESS
	F	 0101 00DA FFFF FFFF	125
	D	 0101 00DA 0111 1101	0
	A	 0101 000A 0111 1101	1
000990	517D	MOVF SYSTEMP1,W,BANKED
	F	 0001 01DA FFFF FFFF	0
	D	 0001 01DA 0000 0000	0
	A	 0001 010A 0000 0000	0
000992	1400	ANDWF SYSBYTETEMPX,W,ACCESS
	F	 0110 111A FFFF FFFF	129
	A	 0110 111A 1000 0001	1
000994	6F81	MOVWF SYSTEMP2,BANKED
	F	 1010 BBBA FFFF FFFF	129
	B	 1010 BBBA 1000 0001	0
	A	 1010 000A 1000 0001	1
000996	A181	BTFSS SYSTEMP2,0,BANKED
	N	 1101 0NNN NNNN NNNN	4
000998	D004	BRA ENDIF20
	K	 0000 1110 KKKK KKKK	1
00099A	0E01	MOVLW 1
	F	 0101 11DA FFFF FFFF	26
	D	 0101 11DA 0001 1010	1
	A	 0101 111A 0001 1010	0
00099C	5E1A	SUBWF CHARLOCY,F,ACCESS
	K	 0000 1110 KKKK KKKK	0
00099E	0E00	MOVLW 0
	F	 0101 10DA FFFF FFFF	27
	D	 0101 10DA 0001 1011	1
	A	 0101 101A 0001 1011	0
0009A0	5A1B	SUBWFB CHARLOCY_H,F,ACCESS
		ENDIF20
	F	 0110 101A FFFF FFFF	33
	A	 0110 101A 0010 0001	0
0009A2	6A21	CLRF CURRCHARCOL,ACCESS
		SYSFORLOOP3
	F	 0010 10DA FFFF FFFF	33
	D	 0010 10DA 0010 0001	1
	A	 0010 101A 0010 0001	0
0009A4	2A21	INCF CURRCHARCOL,F,ACCESS
		SYSSELECT2CASE1
	F	 0000 01DA FFFF FFFF	33
	D	 0000 01DA 0010 0001	0
	A	 0000 010A 0010 0001	0
0009A6	0421	DECF CURRCHARCOL,W,ACCESS
	F	 1010 BBBA FFFF FFFF	16344
	B	 1010 BBBA 1101 1000	2
	A	 1010 010A 1101 1000	0
0009A8	A4D8	BTFSS STATUS, Z,ACCESS
	N	 1101 0NNN NNNN NNNN	5
0009AA	D005	BRA SYSSELECT2CASE2
	S	1111 DDDD DDDD DDDD:1100 SSSS SSSS SSSS	20
	D	1111 DDDD DDDD DDDD:1100 0000 0001 0100	7
0009AC	C014 F007	MOVFF CHARCODE,SYSSTRINGA
	N	 1101 1NNN NNNN NNNN	1586
0009B0	DE32	RCALL GLCDCHARCOL3
	F	 0110 111A FFFF FFFF	35
	A	 0110 111A 0010 0011	0
0009B2	6E23	MOVWF CURRCHARVAL,ACCESS
	N	 1101 0NNN NNNN NNNN	35
0009B4	D023	BRA SYSSELECTEND2
		SYSSELECT2CASE2
	K	 0000 1110 KKKK KKKK	2
0009B6	0E02	MOVLW 2
	F	 0101 11DA FFFF FFFF	33
	D	 0101 11DA 0010 0001	0
	A	 0101 110A 0010 0001	0
0009B8	5C21	SUBWF CURRCHARCOL,W,ACCESS
	F	 1010 BBBA FFFF FFFF	16344
	B	 1010 BBBA 1101 1000	2
	A	 1010 010A 1101 1000	0
0009BA	A4D8	BTFSS STATUS, Z,ACCESS
	N	 1101 0NNN NNNN NNNN	5
0009BC	D005	BRA SYSSELECT2CASE3
	S	1111 DDDD DDDD DDDD:1100 SSSS SSSS SSSS	20
	D	1111 DDDD DDDD DDDD:1100 0000 0001 0100	7
0009BE	C014 F007	MOVFF CHARCODE,SYSSTRINGA
	N	 1101 1NNN NNNN NNNN	1651
0009C2	DE73	RCALL GLCDCHARCOL4
	F	 0110 111A FFFF FFFF	35
	A	 0110 111A 0010 0011	0
0009C4	6E23	MOVWF CURRCHARVAL,ACCESS
	N	 1101 0NNN NNNN NNNN	26
0009C6	D01A	BRA SYSSELECTEND2
		SYSSELECT2CASE3
	K	 0000 1110 KKKK KKKK	3
0009C8	0E03	MOVLW 3
	F	 0101 11DA FFFF FFFF	33
	D	 0101 11DA 0010 0001	0
	A	 0101 110A 0010 0001	0
0009CA	5C21	SUBWF CURRCHARCOL,W,ACCESS
	F	 1010 BBBA FFFF FFFF	16344
	B	 1010 BBBA 1101 1000	2
	A	 1010 010A 1101 1000	0
0009CC	A4D8	BTFSS STATUS, Z,ACCESS
	N	 1101 0NNN NNNN NNNN	5
0009CE	D005	BRA SYSSELECT2CASE4
	S	1111 DDDD DDDD DDDD:1100 SSSS SSSS SSSS	20
	D	1111 DDDD DDDD DDDD:1100 0000 0001 0100	7
0009D0	C014 F007	MOVFF CHARCODE,SYSSTRINGA
	N	 1101 1NNN NNNN NNNN	1716
0009D4	DEB4	RCALL GLCDCHARCOL5
	F	 0110 111A FFFF FFFF	35
	A	 0110 111A 0010 0011	0
0009D6	6E23	MOVWF CURRCHARVAL,ACCESS
	N	 1101 0NNN NNNN NNNN	17
0009D8	D011	BRA SYSSELECTEND2
		SYSSELECT2CASE4
	K	 0000 1110 KKKK KKKK	4
0009DA	0E04	MOVLW 4
	F	 0101 11DA FFFF FFFF	33
	D	 0101 11DA 0010 0001	0
	A	 0101 110A 0010 0001	0
0009DC	5C21	SUBWF CURRCHARCOL,W,ACCESS
	F	 1010 BBBA FFFF FFFF	16344
	B	 1010 BBBA 1101 1000	2
	A	 1010 010A 1101 1000	0
0009DE	A4D8	BTFSS STATUS, Z,ACCESS
	N	 1101 0NNN NNNN NNNN	5
0009E0	D005	BRA SYSSELECT2CASE5
	S	1111 DDDD DDDD DDDD:1100 SSSS SSSS SSSS	20
	D	1111 DDDD DDDD DDDD:1100 0000 0001 0100	7
0009E2	C014 F007	MOVFF CHARCODE,SYSSTRINGA
	N	 1101 1NNN NNNN NNNN	1781
0009E6	DEF5	RCALL GLCDCHARCOL6
	F	 0110 111A FFFF FFFF	35
	A	 0110 111A 0010 0011	0
0009E8	6E23	MOVWF CURRCHARVAL,ACCESS
	N	 1101 0NNN NNNN NNNN	8
0009EA	D008	BRA SYSSELECTEND2
		SYSSELECT2CASE5
	K	 0000 1110 KKKK KKKK	5
0009EC	0E05	MOVLW 5
	F	 0101 11DA FFFF FFFF	33
	D	 0101 11DA 0010 0001	0
	A	 0101 110A 0010 0001	0
0009EE	5C21	SUBWF CURRCHARCOL,W,ACCESS
	F	 1010 BBBA FFFF FFFF	16344
	B	 1010 BBBA 1101 1000	2
	A	 1010 010A 1101 1000	0
0009F0	A4D8	BTFSS STATUS, Z,ACCESS
	N	 1101 0NNN NNNN NNNN	4
0009F2	D004	BRA SYSSELECTEND2
	S	1111 DDDD DDDD DDDD:1100 SSSS SSSS SSSS	20
	D	1111 DDDD DDDD DDDD:1100 0000 0001 0100	7
0009F4	C014 F007	MOVFF CHARCODE,SYSSTRINGA
	N	 1101 1NNN NNNN NNNN	1846
0009F8	DF36	RCALL GLCDCHARCOL7
	F	 0110 111A FFFF FFFF	35
	A	 0110 111A 0010 0011	0
0009FA	6E23	MOVWF CURRCHARVAL,ACCESS
		SYSSELECTEND2
	F	 0110 101A FFFF FFFF	28
	A	 0110 101A 0001 1100	0
0009FC	6A1C	CLRF CHARROW,ACCESS
	F	 0110 101A FFFF FFFF	29
	A	 0110 101A 0001 1101	0
0009FE	6A1D	CLRF CHARROW_H,ACCESS
	F	 0110 101A FFFF FFFF	34
	A	 0110 101A 0010 0010	0
000A00	6A22	CLRF CURRCHARROW,ACCESS
		SYSFORLOOP4
	F	 0010 10DA FFFF FFFF	34
	D	 0010 10DA 0010 0010	1
	A	 0010 101A 0010 0010	0
000A02	2A22	INCF CURRCHARROW,F,ACCESS
	F	 0110 101A FFFF FFFF	23
	A	 0110 101A 0001 0111	0
000A04	6A17	CLRF CHARCOLS,ACCESS
	F	 0110 101A FFFF FFFF	31
	A	 0110 101A 0001 1111	0
000A06	6A1F	CLRF COL,ACCESS
	K	 0000 1110 KKKK KKKK	1
000A08	0E01	MOVLW 1
	F	 0101 11DA FFFF FFFF	60
	D	 0101 11DA 0011 1100	0
	A	 0101 110A 0011 1100	0
000A0A	5C3C	SUBWF GLCDFNTDEFAULTSIZE,W,ACCESS
	F	 1010 BBBA FFFF FFFF	16344
	B	 1010 BBBA 1101 1000	0
	A	 1010 000A 1101 1000	0
000A0C	A0D8	BTFSS STATUS, C,ACCESS
	N	 1101 0NNN NNNN NNNN	74
000A0E	D04A	BRA SYSFORLOOPEND5
		SYSFORLOOP5
	F	 0010 10DA FFFF FFFF	31
	D	 0010 10DA 0001 1111	1
	A	 0010 101A 0001 1111	0
000A10	2A1F	INCF COL,F,ACCESS
	F	 0110 101A FFFF FFFF	30
	A	 0110 101A 0001 1110	0
000A12	6A1E	CLRF CHARROWS,ACCESS
	F	 0110 101A FFFF FFFF	97
	A	 0110 101A 0110 0001	1
000A14	6B61	CLRF ROW,BANKED
	K	 0000 1110 KKKK KKKK	1
000A16	0E01	MOVLW 1
	F	 0101 11DA FFFF FFFF	60
	D	 0101 11DA 0011 1100	0
	A	 0101 110A 0011 1100	0
000A18	5C3C	SUBWF GLCDFNTDEFAULTSIZE,W,ACCESS
	F	 1010 BBBA FFFF FFFF	16344
	B	 1010 BBBA 1101 1000	0
	A	 1010 000A 1101 1000	0
000A1A	A0D8	BTFSS STATUS, C,ACCESS
	N	 1101 0NNN NNNN NNNN	62
000A1C	D03E	BRA SYSFORLOOPEND6
		SYSFORLOOP6
	F	 0010 10DA FFFF FFFF	97
	D	 0010 10DA 0110 0001	1
	A	 0010 101A 0110 0001	1
000A1E	2B61	INCF ROW,F,BANKED
	F	 1010 BBBA FFFF FFFF	35
	B	 1010 BBBA 0010 0011	0
	A	 1010 000A 0010 0011	0
000A20	A023	BTFSS CURRCHARVAL,0,ACCESS
	N	 1101 0NNN NNNN NNNN	18
000A22	D012	BRA ELSE23_1
	F	 0101 00DA FFFF FFFF	21
	D	 0101 00DA 0001 0101	0
	A	 0101 000A 0001 0101	0
000A24	5015	MOVF CHARCOL,W,ACCESS
	F	 0010 01DA FFFF FFFF	24
	D	 0010 01DA 0001 1000	0
	A	 0010 010A 0001 1000	0
000A26	2418	ADDWF CHARLOCX,W,ACCESS
	F	 0110 111A FFFF FFFF	125
	A	 0110 111A 0111 1101	1
000A28	6F7D	MOVWF SYSTEMP1,BANKED
	F	 0101 00DA FFFF FFFF	23
	D	 0101 00DA 0001 0111	0
	A	 0101 000A 0001 0111	0
000A2A	5017	MOVF CHARCOLS,W,ACCESS
	F	 0010 01DA FFFF FFFF	125
	D	 0010 01DA 0111 1101	0
	A	 0010 010A 0111 1101	1
000A2C	257D	ADDWF SYSTEMP1,W,BANKED
	F	 0110 111A FFFF FFFF	69
	A	 0110 111A 0100 0101	0
000A2E	6E45	MOVWF GLCDX,ACCESS
	F	 0101 00DA FFFF FFFF	28
	D	 0101 00DA 0001 1100	0
	A	 0101 000A 0001 1100	0
000A30	501C	MOVF CHARROW,W,ACCESS
	F	 0010 01DA FFFF FFFF	26
	D	 0010 01DA 0001 1010	0
	A	 0010 010A 0001 1010	0
000A32	241A	ADDWF CHARLOCY,W,ACCESS
	F	 0110 111A FFFF FFFF	125
	A	 0110 111A 0111 1101	1
000A34	6F7D	MOVWF SYSTEMP1,BANKED
	F	 0101 00DA FFFF FFFF	30
	D	 0101 00DA 0001 1110	0
	A	 0101 000A 0001 1110	0
000A36	501E	MOVF CHARROWS,W,ACCESS
	F	 0010 01DA FFFF FFFF	125
	D	 0010 01DA 0111 1101	0
	A	 0010 010A 0111 1101	1
000A38	257D	ADDWF SYSTEMP1,W,BANKED
	F	 0110 111A FFFF FFFF	70
	A	 0110 111A 0100 0110	0
000A3A	6E46	MOVWF GLCDY,ACCESS
	S	1111 DDDD DDDD DDDD:1100 SSSS SSSS SSSS	88
	D	1111 DDDD DDDD DDDD:1100 0000 0101 1000	54
000A3C	C058 F036	MOVFF LINECOLOUR,GLCDCOLOUR
	S	1111 DDDD DDDD DDDD:1100 SSSS SSSS SSSS	89
	D	1111 DDDD DDDD DDDD:1100 0000 0101 1001	55
000A40	C059 F037	MOVFF LINECOLOUR_H,GLCDCOLOUR_H
	N	 1101 1NNN NNNN NNNN	682
000A44	DAAA	RCALL PSET_KS0108
	N	 1101 0NNN NNNN NNNN	17
000A46	D011	BRA ENDIF23
		ELSE23_1
	F	 0101 00DA FFFF FFFF	21
	D	 0101 00DA 0001 0101	0
	A	 0101 000A 0001 0101	0
000A48	5015	MOVF CHARCOL,W,ACCESS
	F	 0010 01DA FFFF FFFF	24
	D	 0010 01DA 0001 1000	0
	A	 0010 010A 0001 1000	0
000A4A	2418	ADDWF CHARLOCX,W,ACCESS
	F	 0110 111A FFFF FFFF	125
	A	 0110 111A 0111 1101	1
000A4C	6F7D	MOVWF SYSTEMP1,BANKED
	F	 0101 00DA FFFF FFFF	23
	D	 0101 00DA 0001 0111	0
	A	 0101 000A 0001 0111	0
000A4E	5017	MOVF CHARCOLS,W,ACCESS
	F	 0010 01DA FFFF FFFF	125
	D	 0010 01DA 0111 1101	0
	A	 0010 010A 0111 1101	1
000A50	257D	ADDWF SYSTEMP1,W,BANKED
	F	 0110 111A FFFF FFFF	69
	A	 0110 111A 0100 0101	0
000A52	6E45	MOVWF GLCDX,ACCESS
	F	 0101 00DA FFFF FFFF	28
	D	 0101 00DA 0001 1100	0
	A	 0101 000A 0001 1100	0
000A54	501C	MOVF CHARROW,W,ACCESS
	F	 0010 01DA FFFF FFFF	26
	D	 0010 01DA 0001 1010	0
	A	 0010 010A 0001 1010	0
000A56	241A	ADDWF CHARLOCY,W,ACCESS
	F	 0110 111A FFFF FFFF	125
	A	 0110 111A 0111 1101	1
000A58	6F7D	MOVWF SYSTEMP1,BANKED
	F	 0101 00DA FFFF FFFF	30
	D	 0101 00DA 0001 1110	0
	A	 0101 000A 0001 1110	0
000A5A	501E	MOVF CHARROWS,W,ACCESS
	F	 0010 01DA FFFF FFFF	125
	D	 0010 01DA 0111 1101	0
	A	 0010 010A 0111 1101	1
000A5C	257D	ADDWF SYSTEMP1,W,BANKED
	F	 0110 111A FFFF FFFF	70
	A	 0110 111A 0100 0110	0
000A5E	6E46	MOVWF GLCDY,ACCESS
	S	1111 DDDD DDDD DDDD:1100 SSSS SSSS SSSS	50
	D	1111 DDDD DDDD DDDD:1100 0000 0011 0010	54
000A60	C032 F036	MOVFF GLCDBACKGROUND,GLCDCOLOUR
	S	1111 DDDD DDDD DDDD:1100 SSSS SSSS SSSS	51
	D	1111 DDDD DDDD DDDD:1100 0000 0011 0011	55
000A64	C033 F037	MOVFF GLCDBACKGROUND_H,GLCDCOLOUR_H
	N	 1101 1NNN NNNN NNNN	664
000A68	DA98	RCALL PSET_KS0108
		ENDIF23
	F	 0101 00DA FFFF FFFF	61
	D	 0101 00DA 0011 1101	0
	A	 0101 000A 0011 1101	0
000A6A	503D	MOVF GLCDFONTWIDTH,W,ACCESS
	F	 0000 001A FFFF FFFF	60
	A	 0000 001A 0011 1100	0
000A6C	023C	MULWF GLCDFNTDEFAULTSIZE,ACCESS
	S	0000 0000 0110 SSSS:1111 SSSS SSSS SSDD:1111 DDDD DDDD DDDD	16371
	D	0000 0000 0110 1111:1111 1111 1100 11DD:1111 DDDD DDDD DDDD	125
000A6E	006F FFCC F07D	MOVFFL PRODL,SYSTEMP1
	F	 0101 00DA FFFF FFFF	125
	D	 0101 00DA 0111 1101	0
	A	 0101 000A 0111 1101	1
000A74	517D	MOVF SYSTEMP1,W,BANKED
	F	 0010 01DA FFFF FFFF	24
	D	 0010 01DA 0001 1000	0
	A	 0010 010A 0001 1000	0
000A76	2418	ADDWF CHARLOCX,W,ACCESS
	F	 0110 111A FFFF FFFF	69
	A	 0110 111A 0100 0101	0
000A78	6E45	MOVWF GLCDX,ACCESS
	F	 0101 00DA FFFF FFFF	28
	D	 0101 00DA 0001 1100	0
	A	 0101 000A 0001 1100	0
000A7A	501C	MOVF CHARROW,W,ACCESS
	F	 0010 01DA FFFF FFFF	26
	D	 0010 01DA 0001 1010	0
	A	 0010 010A 0001 1010	0
000A7C	241A	ADDWF CHARLOCY,W,ACCESS
	F	 0110 111A FFFF FFFF	125
	A	 0110 111A 0111 1101	1
000A7E	6F7D	MOVWF SYSTEMP1,BANKED
	F	 0101 00DA FFFF FFFF	30
	D	 0101 00DA 0001 1110	0
	A	 0101 000A 0001 1110	0
000A80	501E	MOVF CHARROWS,W,ACCESS
	F	 0010 01DA FFFF FFFF	125
	D	 0010 01DA 0111 1101	0
	A	 0010 010A 0111 1101	1
000A82	257D	ADDWF SYSTEMP1,W,BANKED
	F	 0110 111A FFFF FFFF	70
	A	 0110 111A 0100 0110	0
000A84	6E46	MOVWF GLCDY,ACCESS
	S	1111 DDDD DDDD DDDD:1100 SSSS SSSS SSSS	50
	D	1111 DDDD DDDD DDDD:1100 0000 0011 0010	54
000A86	C032 F036	MOVFF GLCDBACKGROUND,GLCDCOLOUR
	S	1111 DDDD DDDD DDDD:1100 SSSS SSSS SSSS	51
	D	1111 DDDD DDDD DDDD:1100 0000 0011 0011	55
000A8A	C033 F037	MOVFF GLCDBACKGROUND_H,GLCDCOLOUR_H
	N	 1101 1NNN NNNN NNNN	645
000A8E	DA85	RCALL PSET_KS0108
	F	 0010 10DA FFFF FFFF	30
	D	 0010 10DA 0001 1110	1
	A	 0010 101A 0001 1110	0
000A90	2A1E	INCF CHARROWS,F,ACCESS
	F	 0101 00DA FFFF FFFF	60
	D	 0101 00DA 0011 1100	0
	A	 0101 000A 0011 1100	0
000A92	503C	MOVF GLCDFNTDEFAULTSIZE,W,ACCESS
	F	 0101 11DA FFFF FFFF	97
	D	 0101 11DA 0110 0001	0
	A	 0101 110A 0110 0001	1
000A94	5D61	SUBWF ROW,W,BANKED
	F	 1010 BBBA FFFF FFFF	16344
	B	 1010 BBBA 1101 1000	0
	A	 1010 000A 1101 1000	0
000A96	A0D8	BTFSS STATUS, C,ACCESS
	N	 1101 0NNN NNNN NNNN	1986
000A98	D7C2	BRA SYSFORLOOP6
		SYSFORLOOPEND6
	F	 0010 10DA FFFF FFFF	23
	D	 0010 10DA 0001 0111	1
	A	 0010 101A 0001 0111	0
000A9A	2A17	INCF CHARCOLS,F,ACCESS
	F	 0101 00DA FFFF FFFF	60
	D	 0101 00DA 0011 1100	0
	A	 0101 000A 0011 1100	0
000A9C	503C	MOVF GLCDFNTDEFAULTSIZE,W,ACCESS
	F	 0101 11DA FFFF FFFF	31
	D	 0101 11DA 0001 1111	0
	A	 0101 110A 0001 1111	0
000A9E	5C1F	SUBWF COL,W,ACCESS
	F	 1010 BBBA FFFF FFFF	16344
	B	 1010 BBBA 1101 1000	0
	A	 1010 000A 1101 1000	0
000AA0	A0D8	BTFSS STATUS, C,ACCESS
	N	 1101 0NNN NNNN NNNN	1974
000AA2	D7B6	BRA SYSFORLOOP5
		SYSFORLOOPEND5
	F	 0011 00DA FFFF FFFF	35
	D	 0011 00DA 0010 0011	1
	A	 0011 001A 0010 0011	0
000AA4	3223	RRCF CURRCHARVAL,F,ACCESS
	F	 0101 00DA FFFF FFFF	60
	D	 0101 00DA 0011 1100	0
	A	 0101 000A 0011 1100	0
000AA6	503C	MOVF GLCDFNTDEFAULTSIZE,W,ACCESS
	F	 0010 01DA FFFF FFFF	28
	D	 0010 01DA 0001 1100	1
	A	 0010 011A 0001 1100	0
000AA8	261C	ADDWF CHARROW,F,ACCESS
	K	 0000 1110 KKKK KKKK	0
000AAA	0E00	MOVLW 0
	F	 0010 00DA FFFF FFFF	29
	D	 0010 00DA 0001 1101	1
	A	 0010 001A 0001 1101	0
000AAC	221D	ADDWFC CHARROW_H,F,ACCESS
	K	 0000 1110 KKKK KKKK	8
000AAE	0E08	MOVLW 8
	F	 0101 11DA FFFF FFFF	34
	D	 0101 11DA 0010 0010	0
	A	 0101 110A 0010 0010	0
000AB0	5C22	SUBWF CURRCHARROW,W,ACCESS
	F	 1010 BBBA FFFF FFFF	16344
	B	 1010 BBBA 1101 1000	0
	A	 1010 000A 1101 1000	0
000AB2	A0D8	BTFSS STATUS, C,ACCESS
	N	 1101 0NNN NNNN NNNN	1958
000AB4	D7A6	BRA SYSFORLOOP4
		SYSFORLOOPEND4
	F	 0101 00DA FFFF FFFF	60
	D	 0101 00DA 0011 1100	0
	A	 0101 000A 0011 1100	0
000AB6	503C	MOVF GLCDFNTDEFAULTSIZE,W,ACCESS
	F	 0010 01DA FFFF FFFF	21
	D	 0010 01DA 0001 0101	1
	A	 0010 011A 0001 0101	0
000AB8	2615	ADDWF CHARCOL,F,ACCESS
	K	 0000 1110 KKKK KKKK	0
000ABA	0E00	MOVLW 0
	F	 0010 00DA FFFF FFFF	22
	D	 0010 00DA 0001 0110	1
	A	 0010 001A 0001 0110	0
000ABC	2216	ADDWFC CHARCOL_H,F,ACCESS
	K	 0000 1110 KKKK KKKK	5
000ABE	0E05	MOVLW 5
	F	 0101 11DA FFFF FFFF	33
	D	 0101 11DA 0010 0001	0
	A	 0101 110A 0010 0001	0
000AC0	5C21	SUBWF CURRCHARCOL,W,ACCESS
	F	 1010 BBBA FFFF FFFF	16344
	B	 1010 BBBA 1101 1000	0
	A	 1010 000A 1101 1000	0
000AC2	A0D8	BTFSS STATUS, C,ACCESS
	N	 1101 0NNN NNNN NNNN	1903
000AC4	D76F	BRA SYSFORLOOP3
		SYSFORLOOPEND3
	F	 0110 101A FFFF FFFF	50
	A	 0110 101A 0011 0010	0
000AC6	6A32	CLRF GLCDBACKGROUND,ACCESS
	F	 0110 101A FFFF FFFF	51
	A	 0110 101A 0011 0011	0
000AC8	6A33	CLRF GLCDBACKGROUND_H,ACCESS
	K	 0000 1110 KKKK KKKK	1
000ACA	0E01	MOVLW 1
	F	 0110 111A FFFF FFFF	62
	A	 0110 111A 0011 1110	0
000ACC	6E3E	MOVWF GLCDFOREGROUND,ACCESS
	F	 0110 101A FFFF FFFF	63
	A	 0110 101A 0011 1111	0
000ACE	6A3F	CLRF GLCDFOREGROUND_H,ACCESS
	S	 0000 0000 0001 001S	0
000AD0	0012	RETURN


		GLCDPRINT65
	S	0000 0000 0110 SSSS:1111 SSSS SSSS SSDD:1111 DDDD DDDD DDDD	104
	D	0000 0000 0110 0000:1111 0001 1010 00DD:1111 DDDD DDDD DDDD	16361
000AD2	0060 F1A3 FFE9	MOVFFL SYSLCDPRINTDATAHANDLER,AFSR0
	S	0000 0000 0110 SSSS:1111 SSSS SSSS SSDD:1111 DDDD DDDD DDDD	105
	D	0000 0000 0110 0000:1111 0001 1010 01DD:1111 DDDD DDDD DDDD	16362
000AD8	0060 F1A7 FFEA	MOVFFL SYSLCDPRINTDATAHANDLER_H,AFSR0_H
	S	0000 0000 0110 SSSS:1111 SSSS SSSS SSDD:1111 DDDD DDDD DDDD	16367
	D	0000 0000 0110 1111:1111 1111 1011 11DD:1111 DDDD DDDD DDDD	64
000ADE	006F FFBC F040	MOVFFL INDF0,GLCDPRINTLEN
	F	 0101 00DA FFFF FFFF	64
	D	 0101 00DA 0100 0000	1
	A	 0101 001A 0100 0000	0
000AE4	5240	MOVF GLCDPRINTLEN,F,ACCESS
	F	 1011 BBBA FFFF FFFF	16344
	B	 1011 BBBA 1101 1000	2
	A	 1011 010A 1101 1000	0
000AE6	B4D8	BTFSC STATUS, Z,ACCESS
	S	 0000 0000 0001 001S	0
000AE8	0012	RETURN
	S	1111 DDDD DDDD DDDD:1100 SSSS SSSS SSSS	93
	D	1111 DDDD DDDD DDDD:1100 0000 0101 1101	65
000AEA	C05D F041	MOVFF PRINTLOCX,GLCDPRINTLOC
	S	1111 DDDD DDDD DDDD:1100 SSSS SSSS SSSS	94
	D	1111 DDDD DDDD DDDD:1100 0000 0101 1110	66
000AEE	C05E F042	MOVFF PRINTLOCX_H,GLCDPRINTLOC_H
	F	 0110 101A FFFF FFFF	67
	A	 0110 101A 0100 0011	0
000AF2	6A43	CLRF GLCDPRINT_STRING_COUNTER,ACCESS
	K	 0000 1110 KKKK KKKK	1
000AF4	0E01	MOVLW 1
	F	 0101 11DA FFFF FFFF	64
	D	 0101 11DA 0100 0000	0
	A	 0101 110A 0100 0000	0
000AF6	5C40	SUBWF GLCDPRINTLEN,W,ACCESS
	F	 1010 BBBA FFFF FFFF	16344
	B	 1010 BBBA 1101 1000	0
	A	 1010 000A 1101 1000	0
000AF8	A0D8	BTFSS STATUS, C,ACCESS
	N	 1101 0NNN NNNN NNNN	44
000AFA	D02C	BRA SYSFORLOOPEND1
		SYSFORLOOP1
	F	 0010 10DA FFFF FFFF	67
	D	 0010 10DA 0100 0011	1
	A	 0010 101A 0100 0011	0
000AFC	2A43	INCF GLCDPRINT_STRING_COUNTER,F,ACCESS
	S	1111 DDDD DDDD DDDD:1100 SSSS SSSS SSSS	65
	D	1111 DDDD DDDD DDDD:1100 0000 0100 0001	24
000AFE	C041 F018	MOVFF GLCDPRINTLOC,CHARLOCX
	S	1111 DDDD DDDD DDDD:1100 SSSS SSSS SSSS	66
	D	1111 DDDD DDDD DDDD:1100 0000 0100 0010	25
000B02	C042 F019	MOVFF GLCDPRINTLOC_H,CHARLOCX_H
	S	1111 DDDD DDDD DDDD:1100 SSSS SSSS SSSS	95
	D	1111 DDDD DDDD DDDD:1100 0000 0101 1111	26
000B06	C05F F01A	MOVFF PRINTLOCY,CHARLOCY
	S	1111 DDDD DDDD DDDD:1100 SSSS SSSS SSSS	96
	D	1111 DDDD DDDD DDDD:1100 0000 0110 0000	27
000B0A	C060 F01B	MOVFF PRINTLOCY_H,CHARLOCY_H
	F	 0101 00DA FFFF FFFF	67
	D	 0101 00DA 0100 0011	0
	A	 0101 000A 0100 0011	0
000B0E	5043	MOVF GLCDPRINT_STRING_COUNTER,W,ACCESS
	F	 0010 01DA FFFF FFFF	104
	D	 0010 01DA 0110 1000	0
	A	 0010 010A 0110 1000	1
000B10	2568	ADDWF SYSLCDPRINTDATAHANDLER,W,BANKED
	F	 0110 111A FFFF FFFF	16361
	A	 0110 111A 1110 1001	0
000B12	6EE9	MOVWF AFSR0,ACCESS
	K	 0000 1110 KKKK KKKK	0
000B14	0E00	MOVLW 0
	F	 0010 00DA FFFF FFFF	105
	D	 0010 00DA 0110 1001	0
	A	 0010 000A 0110 1001	1
000B16	2169	ADDWFC SYSLCDPRINTDATAHANDLER_H,W,BANKED
	F	 0110 111A FFFF FFFF	16362
	A	 0110 111A 1110 1010	0
000B18	6EEA	MOVWF AFSR0_H,ACCESS
	S	0000 0000 0110 SSSS:1111 SSSS SSSS SSDD:1111 DDDD DDDD DDDD	16367
	D	0000 0000 0110 1111:1111 1111 1011 11DD:1111 DDDD DDDD DDDD	20
000B1A	006F FFBC F014	MOVFFL INDF0,CHARCODE
	S	1111 DDDD DDDD DDDD:1100 SSSS SSSS SSSS	62
	D	1111 DDDD DDDD DDDD:1100 0000 0011 1110	88
000B20	C03E F058	MOVFF GLCDFOREGROUND,LINECOLOUR
	S	1111 DDDD DDDD DDDD:1100 SSSS SSSS SSSS	63
	D	1111 DDDD DDDD DDDD:1100 0000 0011 1111	89
000B24	C03F F059	MOVFF GLCDFOREGROUND_H,LINECOLOUR_H
	N	 1101 1NNN NNNN NNNN	1808
000B28	DF10	RCALL GLCDDRAWCHAR
	F	 0101 00DA FFFF FFFF	61
	D	 0101 00DA 0011 1101	0
	A	 0101 000A 0011 1101	0
000B2A	503D	MOVF GLCDFONTWIDTH,W,ACCESS
	F	 0000 001A FFFF FFFF	60
	A	 0000 001A 0011 1100	0
000B2C	023C	MULWF GLCDFNTDEFAULTSIZE,ACCESS
	S	0000 0000 0110 SSSS:1111 SSSS SSSS SSDD:1111 DDDD DDDD DDDD	16371
	D	0000 0000 0110 1111:1111 1111 1100 11DD:1111 DDDD DDDD DDDD	125
000B2E	006F FFCC F07D	MOVFFL PRODL,SYSTEMP1
	F	 0101 00DA FFFF FFFF	125
	D	 0101 00DA 0111 1101	0
	A	 0101 000A 0111 1101	1
000B34	517D	MOVF SYSTEMP1,W,BANKED
	F	 0010 01DA FFFF FFFF	65
	D	 0010 01DA 0100 0001	0
	A	 0010 010A 0100 0001	0
000B36	2441	ADDWF GLCDPRINTLOC,W,ACCESS
	F	 0110 111A FFFF FFFF	129
	A	 0110 111A 1000 0001	1
000B38	6F81	MOVWF SYSTEMP2,BANKED
	K	 0000 1110 KKKK KKKK	0
000B3A	0E00	MOVLW 0
	F	 0010 00DA FFFF FFFF	66
	D	 0010 00DA 0100 0010	0
	A	 0010 000A 0100 0010	0
000B3C	2042	ADDWFC GLCDPRINTLOC_H,W,ACCESS
	F	 0110 111A FFFF FFFF	130
	A	 0110 111A 1000 0010	1
000B3E	6F82	MOVWF SYSTEMP2_H,BANKED
	K	 0000 1110 KKKK KKKK	1
000B40	0E01	MOVLW 1
	F	 0010 01DA FFFF FFFF	129
	D	 0010 01DA 1000 0001	0
	A	 0010 010A 1000 0001	1
000B42	2581	ADDWF SYSTEMP2,W,BANKED
	F	 0110 111A FFFF FFFF	65
	A	 0110 111A 0100 0001	0
000B44	6E41	MOVWF GLCDPRINTLOC,ACCESS
	K	 0000 1110 KKKK KKKK	0
000B46	0E00	MOVLW 0
	F	 0010 00DA FFFF FFFF	130
	D	 0010 00DA 1000 0010	0
	A	 0010 000A 1000 0010	1
000B48	2182	ADDWFC SYSTEMP2_H,W,BANKED
	F	 0110 111A FFFF FFFF	66
	A	 0110 111A 0100 0010	0
000B4A	6E42	MOVWF GLCDPRINTLOC_H,ACCESS
	F	 0101 00DA FFFF FFFF	64
	D	 0101 00DA 0100 0000	0
	A	 0101 000A 0100 0000	0
000B4C	5040	MOVF GLCDPRINTLEN,W,ACCESS
	F	 0101 11DA FFFF FFFF	67
	D	 0101 11DA 0100 0011	0
	A	 0101 110A 0100 0011	0
000B4E	5C43	SUBWF GLCDPRINT_STRING_COUNTER,W,ACCESS
	F	 1010 BBBA FFFF FFFF	16344
	B	 1010 BBBA 1101 1000	0
	A	 1010 000A 1101 1000	0
000B50	A0D8	BTFSS STATUS, C,ACCESS
	N	 1101 0NNN NNNN NNNN	2004
000B52	D7D4	BRA SYSFORLOOP1
		SYSFORLOOPEND1
	S	1111 DDDD DDDD DDDD:1100 SSSS SSSS SSSS	65
	D	1111 DDDD DDDD DDDD:1100 0000 0100 0001	93
000B54	C041 F05D	MOVFF GLCDPRINTLOC,PRINTLOCX
	S	1111 DDDD DDDD DDDD:1100 SSSS SSSS SSSS	66
	D	1111 DDDD DDDD DDDD:1100 0000 0100 0010	94
000B58	C042 F05E	MOVFF GLCDPRINTLOC_H,PRINTLOCX_H
	S	 0000 0000 0001 001S	0
000B5C	0012	RETURN


		GLCDPRINT68
	F	 0110 101A FFFF FFFF	118
	A	 0110 101A 0111 0110	1
000B5E	6B76	CLRF SYSPRINTBUFFLEN,BANKED
		SYSDOLOOP_S2
	F	 0010 10DA FFFF FFFF	118
	D	 0010 10DA 0111 0110	1
	A	 0010 101A 0111 0110	1
000B60	2B76	INCF SYSPRINTBUFFLEN,F,BANKED
	F	1110 1110 00FF KKKK:1111 00KK KKKK KKKK	0
	K	1110 1110 0000 KKKK:1111 00KK KKKK KKKK	8163
000B62	EE07 F3E3	LFSR 0,SYSPRINTBUFFER
	F	 0101 00DA FFFF FFFF	118
	D	 0101 00DA 0111 0110	0
	A	 0101 000A 0111 0110	1
000B66	5176	MOVF SYSPRINTBUFFLEN,W,BANKED
	F	 0010 01DA FFFF FFFF	16361
	D	 0010 01DA 1110 1001	1
	A	 0010 011A 1110 1001	0
000B68	26E9	ADDWF AFSR0,F,ACCESS
	K	 0000 1110 KKKK KKKK	0
000B6A	0E00	MOVLW 0
	F	 0010 00DA FFFF FFFF	16362
	D	 0010 00DA 1110 1010	1
	A	 0010 001A 1110 1010	0
000B6C	22EA	ADDWFC AFSR0_H,F,ACCESS
	S	1111 DDDD DDDD DDDD:1100 SSSS SSSS SSSS	84
	D	1111 DDDD DDDD DDDD:1100 0000 0101 0100	5
000B6E	C054 F005	MOVFF LCDVALUE,SYSLONGTEMPA
	S	1111 DDDD DDDD DDDD:1100 SSSS SSSS SSSS	85
	D	1111 DDDD DDDD DDDD:1100 0000 0101 0101	6
000B72	C055 F006	MOVFF LCDVALUE_H,SYSLONGTEMPA_H
	S	1111 DDDD DDDD DDDD:1100 SSSS SSSS SSSS	86
	D	1111 DDDD DDDD DDDD:1100 0000 0101 0110	7
000B76	C056 F007	MOVFF LCDVALUE_U,SYSLONGTEMPA_U
	S	1111 DDDD DDDD DDDD:1100 SSSS SSSS SSSS	87
	D	1111 DDDD DDDD DDDD:1100 0000 0101 0111	8
000B7A	C057 F008	MOVFF LCDVALUE_E,SYSLONGTEMPA_E
	K	 0000 1110 KKKK KKKK	10
000B7E	0E0A	MOVLW 10
	F	 0110 111A FFFF FFFF	9
	A	 0110 111A 0000 1001	0
000B80	6E09	MOVWF SYSLONGTEMPB,ACCESS
	F	 0110 101A FFFF FFFF	10
	A	 0110 101A 0000 1010	0
000B82	6A0A	CLRF SYSLONGTEMPB_H,ACCESS
	F	 0110 101A FFFF FFFF	11
	A	 0110 101A 0000 1011	0
000B84	6A0B	CLRF SYSLONGTEMPB_U,ACCESS
	F	 0110 101A FFFF FFFF	12
	A	 0110 101A 0000 1100	0
000B86	6A0C	CLRF SYSLONGTEMPB_E,ACCESS
	N	 1101 1NNN NNNN NNNN	649
000B88	DA89	RCALL SYSDIVSUB32
	S	0000 0000 0110 SSSS:1111 SSSS SSSS SSDD:1111 DDDD DDDD DDDD	0
	D	0000 0000 0110 0000:1111 0000 0000 00DD:1111 DDDD DDDD DDDD	16367
000B8A	0060 F003 FFEF	MOVFFL SYSLONGTEMPX,INDF0
	S	1111 DDDD DDDD DDDD:1100 SSSS SSSS SSSS	5
	D	1111 DDDD DDDD DDDD:1100 0000 0000 0101	84
000B90	C005 F054	MOVFF SYSCALCTEMPA,LCDVALUE
	S	1111 DDDD DDDD DDDD:1100 SSSS SSSS SSSS	6
	D	1111 DDDD DDDD DDDD:1100 0000 0000 0110	85
000B94	C006 F055	MOVFF SYSCALCTEMPA_H,LCDVALUE_H
	S	1111 DDDD DDDD DDDD:1100 SSSS SSSS SSSS	7
	D	1111 DDDD DDDD DDDD:1100 0000 0000 0111	86
000B98	C007 F056	MOVFF SYSCALCTEMPA_U,LCDVALUE_U
	S	1111 DDDD DDDD DDDD:1100 SSSS SSSS SSSS	8
	D	1111 DDDD DDDD DDDD:1100 0000 0000 1000	87
000B9C	C008 F057	MOVFF SYSCALCTEMPA_E,LCDVALUE_E
	S	1111 DDDD DDDD DDDD:1100 SSSS SSSS SSSS	84
	D	1111 DDDD DDDD DDDD:1100 0000 0101 0100	5
000BA0	C054 F005	MOVFF LCDVALUE,SYSLONGTEMPA
	S	1111 DDDD DDDD DDDD:1100 SSSS SSSS SSSS	85
	D	1111 DDDD DDDD DDDD:1100 0000 0101 0101	6
000BA4	C055 F006	MOVFF LCDVALUE_H,SYSLONGTEMPA_H
	S	1111 DDDD DDDD DDDD:1100 SSSS SSSS SSSS	86
	D	1111 DDDD DDDD DDDD:1100 0000 0101 0110	7
000BA8	C056 F007	MOVFF LCDVALUE_U,SYSLONGTEMPA_U
	S	1111 DDDD DDDD DDDD:1100 SSSS SSSS SSSS	87
	D	1111 DDDD DDDD DDDD:1100 0000 0101 0111	8
000BAC	C057 F008	MOVFF LCDVALUE_E,SYSLONGTEMPA_E
	F	 0110 101A FFFF FFFF	9
	A	 0110 101A 0000 1001	0
000BB0	6A09	CLRF SYSLONGTEMPB,ACCESS
	F	 0110 101A FFFF FFFF	10
	A	 0110 101A 0000 1010	0
000BB2	6A0A	CLRF SYSLONGTEMPB_H,ACCESS
	F	 0110 101A FFFF FFFF	11
	A	 0110 101A 0000 1011	0
000BB4	6A0B	CLRF SYSLONGTEMPB_U,ACCESS
	F	 0110 101A FFFF FFFF	12
	A	 0110 101A 0000 1100	0
000BB6	6A0C	CLRF SYSLONGTEMPB_E,ACCESS
	N	 1101 1NNN NNNN NNNN	585
000BB8	DA49	RCALL SYSCOMPEQUAL32
	F	 0001 11DA FFFF FFFF	0
	D	 0001 11DA 0000 0000	1
	A	 0001 111A 0000 0000	0
000BBA	1E00	COMF SYSBYTETEMPX,F,ACCESS
	F	 1011 BBBA FFFF FFFF	0
	B	 1011 BBBA 0000 0000	0
	A	 1011 000A 0000 0000	0
000BBC	B000	BTFSC SYSBYTETEMPX,0,ACCESS
	N	 1101 0NNN NNNN NNNN	2000
000BBE	D7D0	BRA SYSDOLOOP_S2
		SYSDOLOOP_E2
	S	1111 DDDD DDDD DDDD:1100 SSSS SSSS SSSS	93
	D	1111 DDDD DDDD DDDD:1100 0000 0101 1101	65
000BC0	C05D F041	MOVFF PRINTLOCX,GLCDPRINTLOC
	S	1111 DDDD DDDD DDDD:1100 SSSS SSSS SSSS	94
	D	1111 DDDD DDDD DDDD:1100 0000 0101 1110	66
000BC4	C05E F042	MOVFF PRINTLOCX_H,GLCDPRINTLOC_H
	F	 0010 10DA FFFF FFFF	118
	D	 0010 10DA 0111 0110	0
	A	 0010 100A 0111 0110	1
000BC8	2976	INCF SYSPRINTBUFFLEN,W,BANKED
	F	 0110 111A FFFF FFFF	67
	A	 0110 111A 0100 0011	0
000BCA	6E43	MOVWF GLCDPRINT_STRING_COUNTER,ACCESS
	K	 0000 1110 KKKK KKKK	1
000BCC	0E01	MOVLW 1
	F	 0101 11DA FFFF FFFF	118
	D	 0101 11DA 0111 0110	0
	A	 0101 110A 0111 0110	1
000BCE	5D76	SUBWF SYSPRINTBUFFLEN,W,BANKED
	F	 1010 BBBA FFFF FFFF	16344
	B	 1010 BBBA 1101 1000	0
	A	 1010 000A 1101 1000	0
000BD0	A0D8	BTFSS STATUS, C,ACCESS
	N	 1101 0NNN NNNN NNNN	44
000BD2	D02C	BRA SYSFORLOOPEND2
		SYSFORLOOP2
	F	 0000 01DA FFFF FFFF	67
	D	 0000 01DA 0100 0011	1
	A	 0000 011A 0100 0011	0
000BD4	0643	DECF GLCDPRINT_STRING_COUNTER,F,ACCESS
	S	1111 DDDD DDDD DDDD:1100 SSSS SSSS SSSS	65
	D	1111 DDDD DDDD DDDD:1100 0000 0100 0001	24
000BD6	C041 F018	MOVFF GLCDPRINTLOC,CHARLOCX
	S	1111 DDDD DDDD DDDD:1100 SSSS SSSS SSSS	66
	D	1111 DDDD DDDD DDDD:1100 0000 0100 0010	25
000BDA	C042 F019	MOVFF GLCDPRINTLOC_H,CHARLOCX_H
	S	1111 DDDD DDDD DDDD:1100 SSSS SSSS SSSS	95
	D	1111 DDDD DDDD DDDD:1100 0000 0101 1111	26
000BDE	C05F F01A	MOVFF PRINTLOCY,CHARLOCY
	S	1111 DDDD DDDD DDDD:1100 SSSS SSSS SSSS	96
	D	1111 DDDD DDDD DDDD:1100 0000 0110 0000	27
000BE2	C060 F01B	MOVFF PRINTLOCY_H,CHARLOCY_H
	F	1110 1110 00FF KKKK:1111 00KK KKKK KKKK	0
	K	1110 1110 0000 KKKK:1111 00KK KKKK KKKK	8163
000BE6	EE07 F3E3	LFSR 0,SYSPRINTBUFFER
	F	 0101 00DA FFFF FFFF	67
	D	 0101 00DA 0100 0011	0
	A	 0101 000A 0100 0011	0
000BEA	5043	MOVF GLCDPRINT_STRING_COUNTER,W,ACCESS
	F	 0010 01DA FFFF FFFF	16361
	D	 0010 01DA 1110 1001	1
	A	 0010 011A 1110 1001	0
000BEC	26E9	ADDWF AFSR0,F,ACCESS
	K	 0000 1110 KKKK KKKK	0
000BEE	0E00	MOVLW 0
	F	 0010 00DA FFFF FFFF	16362
	D	 0010 00DA 1110 1010	1
	A	 0010 001A 1110 1010	0
000BF0	22EA	ADDWFC AFSR0_H,F,ACCESS
	K	 0000 1110 KKKK KKKK	48
000BF2	0E30	MOVLW 48
	F	 0010 01DA FFFF FFFF	16367
	D	 0010 01DA 1110 1111	0
	A	 0010 010A 1110 1111	0
000BF4	24EF	ADDWF INDF0,W,ACCESS
	F	 0110 111A FFFF FFFF	20
	A	 0110 111A 0001 0100	0
000BF6	6E14	MOVWF CHARCODE,ACCESS
	S	1111 DDDD DDDD DDDD:1100 SSSS SSSS SSSS	62
	D	1111 DDDD DDDD DDDD:1100 0000 0011 1110	88
000BF8	C03E F058	MOVFF GLCDFOREGROUND,LINECOLOUR
	S	1111 DDDD DDDD DDDD:1100 SSSS SSSS SSSS	63
	D	1111 DDDD DDDD DDDD:1100 0000 0011 1111	89
000BFC	C03F F059	MOVFF GLCDFOREGROUND_H,LINECOLOUR_H
	N	 1101 1NNN NNNN NNNN	1700
000C00	DEA4	RCALL GLCDDRAWCHAR
	F	 0101 00DA FFFF FFFF	61
	D	 0101 00DA 0011 1101	0
	A	 0101 000A 0011 1101	0
000C02	503D	MOVF GLCDFONTWIDTH,W,ACCESS
	F	 0000 001A FFFF FFFF	60
	A	 0000 001A 0011 1100	0
000C04	023C	MULWF GLCDFNTDEFAULTSIZE,ACCESS
	S	0000 0000 0110 SSSS:1111 SSSS SSSS SSDD:1111 DDDD DDDD DDDD	16371
	D	0000 0000 0110 1111:1111 1111 1100 11DD:1111 DDDD DDDD DDDD	125
000C06	006F FFCC F07D	MOVFFL PRODL,SYSTEMP1
	F	 0101 00DA FFFF FFFF	125
	D	 0101 00DA 0111 1101	0
	A	 0101 000A 0111 1101	1
000C0C	517D	MOVF SYSTEMP1,W,BANKED
	F	 0010 01DA FFFF FFFF	65
	D	 0010 01DA 0100 0001	0
	A	 0010 010A 0100 0001	0
000C0E	2441	ADDWF GLCDPRINTLOC,W,ACCESS
	F	 0110 111A FFFF FFFF	129
	A	 0110 111A 1000 0001	1
000C10	6F81	MOVWF SYSTEMP2,BANKED
	K	 0000 1110 KKKK KKKK	0
000C12	0E00	MOVLW 0
	F	 0010 00DA FFFF FFFF	66
	D	 0010 00DA 0100 0010	0
	A	 0010 000A 0100 0010	0
000C14	2042	ADDWFC GLCDPRINTLOC_H,W,ACCESS
	F	 0110 111A FFFF FFFF	130
	A	 0110 111A 1000 0010	1
000C16	6F82	MOVWF SYSTEMP2_H,BANKED
	K	 0000 1110 KKKK KKKK	1
000C18	0E01	MOVLW 1
	F	 0010 01DA FFFF FFFF	129
	D	 0010 01DA 1000 0001	0
	A	 0010 010A 1000 0001	1
000C1A	2581	ADDWF SYSTEMP2,W,BANKED
	F	 0110 111A FFFF FFFF	65
	A	 0110 111A 0100 0001	0
000C1C	6E41	MOVWF GLCDPRINTLOC,ACCESS
	K	 0000 1110 KKKK KKKK	0
000C1E	0E00	MOVLW 0
	F	 0010 00DA FFFF FFFF	130
	D	 0010 00DA 1000 0010	0
	A	 0010 000A 1000 0010	1
000C20	2182	ADDWFC SYSTEMP2_H,W,BANKED
	F	 0110 111A FFFF FFFF	66
	A	 0110 111A 0100 0010	0
000C22	6E42	MOVWF GLCDPRINTLOC_H,ACCESS
	F	 0101 00DA FFFF FFFF	67
	D	 0101 00DA 0100 0011	0
	A	 0101 000A 0100 0011	0
000C24	5043	MOVF GLCDPRINT_STRING_COUNTER,W,ACCESS
	K	 0000 1000 KKKK KKKK	1
000C26	0801	SUBLW 1
	F	 1010 BBBA FFFF FFFF	16344
	B	 1010 BBBA 1101 1000	0
	A	 1010 000A 1101 1000	0
000C28	A0D8	BTFSS STATUS, C,ACCESS
	N	 1101 0NNN NNNN NNNN	2004
000C2A	D7D4	BRA SYSFORLOOP2
		SYSFORLOOPEND2
	S	1111 DDDD DDDD DDDD:1100 SSSS SSSS SSSS	65
	D	1111 DDDD DDDD DDDD:1100 0000 0100 0001	93
000C2C	C041 F05D	MOVFF GLCDPRINTLOC,PRINTLOCX
	S	1111 DDDD DDDD DDDD:1100 SSSS SSSS SSSS	66
	D	1111 DDDD DDDD DDDD:1100 0000 0100 0010	94
000C30	C042 F05E	MOVFF GLCDPRINTLOC_H,PRINTLOCX_H
	S	 0000 0000 0001 001S	0
000C34	0012	RETURN


		FN_GLCDREADBYTE_KS0108
	F	 1000 BBBA FFFF FFFF	16325
	B	 1000 BBBA 1100 0101	7
	A	 1000 111A 1100 0101	0
000C36	8EC5	BSF TRISD,7,ACCESS
	F	 1000 BBBA FFFF FFFF	16325
	B	 1000 BBBA 1100 0101	6
	A	 1000 110A 1100 0101	0
000C38	8CC5	BSF TRISD,6,ACCESS
	F	 1000 BBBA FFFF FFFF	16325
	B	 1000 BBBA 1100 0101	5
	A	 1000 101A 1100 0101	0
000C3A	8AC5	BSF TRISD,5,ACCESS
	F	 1000 BBBA FFFF FFFF	16325
	B	 1000 BBBA 1100 0101	4
	A	 1000 100A 1100 0101	0
000C3C	88C5	BSF TRISD,4,ACCESS
	F	 1000 BBBA FFFF FFFF	16325
	B	 1000 BBBA 1100 0101	3
	A	 1000 011A 1100 0101	0
000C3E	86C5	BSF TRISD,3,ACCESS
	F	 1000 BBBA FFFF FFFF	16325
	B	 1000 BBBA 1100 0101	2
	A	 1000 010A 1100 0101	0
000C40	84C5	BSF TRISD,2,ACCESS
	F	 1000 BBBA FFFF FFFF	16325
	B	 1000 BBBA 1100 0101	1
	A	 1000 001A 1100 0101	0
000C42	82C5	BSF TRISD,1,ACCESS
	F	 1000 BBBA FFFF FFFF	16325
	B	 1000 BBBA 1100 0101	0
	A	 1000 000A 1100 0101	0
000C44	80C5	BSF TRISD,0,ACCESS
	F	 1000 BBBA FFFF FFFF	16316
	B	 1000 BBBA 1011 1100	7
	A	 1000 111A 1011 1100	0
000C46	8EBC	BSF LATC,7,ACCESS
	F	 1000 BBBA FFFF FFFF	16315
	B	 1000 BBBA 1011 1011	2
	A	 1000 010A 1011 1011	0
000C48	84BB	BSF LATB,2,ACCESS
	K	 0000 1110 KKKK KKKK	53
000C4A	0E35	MOVLW 53
	F	 0110 111A FFFF FFFF	0
	A	 0110 111A 0000 0000	0
000C4C	6E00	MOVWF DELAYTEMP,ACCESS
		DELAYUS4
	F	 0010 11DA FFFF FFFF	0
	D	 0010 11DA 0000 0000	1
	A	 0010 111A 0000 0000	0
000C4E	2E00	DECFSZ DELAYTEMP,F,ACCESS
	N	 1101 0NNN NNNN NNNN	2046
000C50	D7FE	BRA DELAYUS4
	F	 1001 BBBA FFFF FFFF	68
	B	 1001 BBBA 0100 0100	7
	A	 1001 111A 0100 0100	0
000C52	9E44	BCF GLCDREADBYTE_KS0108,7,ACCESS
	F	 1011 BBBA FFFF FFFF	16333
	B	 1011 BBBA 1100 1101	7
	A	 1011 111A 1100 1101	0
000C54	BECD	BTFSC PORTD,7,ACCESS
	F	 1000 BBBA FFFF FFFF	68
	B	 1000 BBBA 0100 0100	7
	A	 1000 111A 0100 0100	0
000C56	8E44	BSF GLCDREADBYTE_KS0108,7,ACCESS
	F	 1001 BBBA FFFF FFFF	68
	B	 1001 BBBA 0100 0100	6
	A	 1001 110A 0100 0100	0
000C58	9C44	BCF GLCDREADBYTE_KS0108,6,ACCESS
	F	 1011 BBBA FFFF FFFF	16333
	B	 1011 BBBA 1100 1101	6
	A	 1011 110A 1100 1101	0
000C5A	BCCD	BTFSC PORTD,6,ACCESS
	F	 1000 BBBA FFFF FFFF	68
	B	 1000 BBBA 0100 0100	6
	A	 1000 110A 0100 0100	0
000C5C	8C44	BSF GLCDREADBYTE_KS0108,6,ACCESS
	F	 1001 BBBA FFFF FFFF	68
	B	 1001 BBBA 0100 0100	5
	A	 1001 101A 0100 0100	0
000C5E	9A44	BCF GLCDREADBYTE_KS0108,5,ACCESS
	F	 1011 BBBA FFFF FFFF	16333
	B	 1011 BBBA 1100 1101	5
	A	 1011 101A 1100 1101	0
000C60	BACD	BTFSC PORTD,5,ACCESS
	F	 1000 BBBA FFFF FFFF	68
	B	 1000 BBBA 0100 0100	5
	A	 1000 101A 0100 0100	0
000C62	8A44	BSF GLCDREADBYTE_KS0108,5,ACCESS
	F	 1001 BBBA FFFF FFFF	68
	B	 1001 BBBA 0100 0100	4
	A	 1001 100A 0100 0100	0
000C64	9844	BCF GLCDREADBYTE_KS0108,4,ACCESS
	F	 1011 BBBA FFFF FFFF	16333
	B	 1011 BBBA 1100 1101	4
	A	 1011 100A 1100 1101	0
000C66	B8CD	BTFSC PORTD,4,ACCESS
	F	 1000 BBBA FFFF FFFF	68
	B	 1000 BBBA 0100 0100	4
	A	 1000 100A 0100 0100	0
000C68	8844	BSF GLCDREADBYTE_KS0108,4,ACCESS
	F	 1001 BBBA FFFF FFFF	68
	B	 1001 BBBA 0100 0100	3
	A	 1001 011A 0100 0100	0
000C6A	9644	BCF GLCDREADBYTE_KS0108,3,ACCESS
	F	 1011 BBBA FFFF FFFF	16333
	B	 1011 BBBA 1100 1101	3
	A	 1011 011A 1100 1101	0
000C6C	B6CD	BTFSC PORTD,3,ACCESS
	F	 1000 BBBA FFFF FFFF	68
	B	 1000 BBBA 0100 0100	3
	A	 1000 011A 0100 0100	0
000C6E	8644	BSF GLCDREADBYTE_KS0108,3,ACCESS
	F	 1001 BBBA FFFF FFFF	68
	B	 1001 BBBA 0100 0100	2
	A	 1001 010A 0100 0100	0
000C70	9444	BCF GLCDREADBYTE_KS0108,2,ACCESS
	F	 1011 BBBA FFFF FFFF	16333
	B	 1011 BBBA 1100 1101	2
	A	 1011 010A 1100 1101	0
000C72	B4CD	BTFSC PORTD,2,ACCESS
	F	 1000 BBBA FFFF FFFF	68
	B	 1000 BBBA 0100 0100	2
	A	 1000 010A 0100 0100	0
000C74	8444	BSF GLCDREADBYTE_KS0108,2,ACCESS
	F	 1001 BBBA FFFF FFFF	68
	B	 1001 BBBA 0100 0100	1
	A	 1001 001A 0100 0100	0
000C76	9244	BCF GLCDREADBYTE_KS0108,1,ACCESS
	F	 1011 BBBA FFFF FFFF	16333
	B	 1011 BBBA 1100 1101	1
	A	 1011 001A 1100 1101	0
000C78	B2CD	BTFSC PORTD,1,ACCESS
	F	 1000 BBBA FFFF FFFF	68
	B	 1000 BBBA 0100 0100	1
	A	 1000 001A 0100 0100	0
000C7A	8244	BSF GLCDREADBYTE_KS0108,1,ACCESS
	F	 1001 BBBA FFFF FFFF	68
	B	 1001 BBBA 0100 0100	0
	A	 1001 000A 0100 0100	0
000C7C	9044	BCF GLCDREADBYTE_KS0108,0,ACCESS
	F	 1011 BBBA FFFF FFFF	16333
	B	 1011 BBBA 1100 1101	0
	A	 1011 000A 1100 1101	0
000C7E	B0CD	BTFSC PORTD,0,ACCESS
	F	 1000 BBBA FFFF FFFF	68
	B	 1000 BBBA 0100 0100	0
	A	 1000 000A 0100 0100	0
000C80	8044	BSF GLCDREADBYTE_KS0108,0,ACCESS
	F	 1001 BBBA FFFF FFFF	16315
	B	 1001 BBBA 1011 1011	2
	A	 1001 010A 1011 1011	0
000C82	94BB	BCF LATB,2,ACCESS
	K	 0000 1110 KKKK KKKK	53
000C84	0E35	MOVLW 53
	F	 0110 111A FFFF FFFF	0
	A	 0110 111A 0000 0000	0
000C86	6E00	MOVWF DELAYTEMP,ACCESS
		DELAYUS5
	F	 0010 11DA FFFF FFFF	0
	D	 0010 11DA 0000 0000	1
	A	 0010 111A 0000 0000	0
000C88	2E00	DECFSZ DELAYTEMP,F,ACCESS
	N	 1101 0NNN NNNN NNNN	2046
000C8A	D7FE	BRA DELAYUS5
	S	 0000 0000 0001 001S	0
000C8C	0012	RETURN


		GLCDWRITEBYTE_KS0108
	F	 1001 BBBA FFFF FFFF	100
	B	 1001 BBBA 0110 0100	1
	A	 1001 001A 0110 0100	1
000C8E	9364	BCF SYSBITVAR0,1,BANKED
	F	 1011 BBBA FFFF FFFF	16331
	B	 1011 BBBA 1100 1011	3
	A	 1011 011A 1100 1011	0
000C90	B6CB	BTFSC PORTB,3,ACCESS
	F	 1000 BBBA FFFF FFFF	100
	B	 1000 BBBA 0110 0100	1
	A	 1000 001A 0110 0100	1
000C92	8364	BSF SYSBITVAR0,1,BANKED
	F	 1001 BBBA FFFF FFFF	100
	B	 1001 BBBA 0110 0100	2
	A	 1001 010A 0110 0100	1
000C94	9564	BCF SYSBITVAR0,2,BANKED
	F	 1011 BBBA FFFF FFFF	16331
	B	 1011 BBBA 1100 1011	5
	A	 1011 101A 1100 1011	0
000C96	BACB	BTFSC PORTB,5,ACCESS
	F	 1000 BBBA FFFF FFFF	100
	B	 1000 BBBA 0110 0100	2
	A	 1000 010A 0110 0100	1
000C98	8564	BSF SYSBITVAR0,2,BANKED
	F	 1010 BBBA FFFF FFFF	16331
	B	 1010 BBBA 1100 1011	4
	A	 1010 100A 1100 1011	0
000C9A	A8CB	BTFSS PORTB,4,ACCESS
	F	 1000 BBBA FFFF FFFF	16315
	B	 1000 BBBA 1011 1011	5
	A	 1000 101A 1011 1011	0
000C9C	8ABB	BSF LATB,5,ACCESS
	F	 1001 BBBA FFFF FFFF	16315
	B	 1001 BBBA 1011 1011	3
	A	 1001 011A 1011 1011	0
000C9E	96BB	BCF LATB,3,ACCESS
		SYSWAITLOOP1
	N	 1101 1NNN NNNN NNNN	1994
000CA0	DFCA	RCALL FN_GLCDREADBYTE_KS0108
	F	 1011 BBBA FFFF FFFF	68
	B	 1011 BBBA 0100 0100	7
	A	 1011 111A 0100 0100	0
000CA2	BE44	BTFSC GLCDREADBYTE_KS0108,7,ACCESS
	N	 1101 0NNN NNNN NNNN	2045
000CA4	D7FD	BRA SYSWAITLOOP1
	F	 1001 BBBA FFFF FFFF	16315
	B	 1001 BBBA 1011 1011	3
	A	 1001 011A 1011 1011	0
000CA6	96BB	BCF LATB,3,ACCESS
	F	 1011 BBBA FFFF FFFF	100
	B	 1011 BBBA 0110 0100	1
	A	 1011 001A 0110 0100	1
000CA8	B364	BTFSC SYSBITVAR0,1,BANKED
	F	 1000 BBBA FFFF FFFF	16315
	B	 1000 BBBA 1011 1011	3
	A	 1000 011A 1011 1011	0
000CAA	86BB	BSF LATB,3,ACCESS
	F	 1001 BBBA FFFF FFFF	16315
	B	 1001 BBBA 1011 1011	5
	A	 1001 101A 1011 1011	0
000CAC	9ABB	BCF LATB,5,ACCESS
	F	 1011 BBBA FFFF FFFF	100
	B	 1011 BBBA 0110 0100	2
	A	 1011 010A 0110 0100	1
000CAE	B564	BTFSC SYSBITVAR0,2,BANKED
	F	 1000 BBBA FFFF FFFF	16315
	B	 1000 BBBA 1011 1011	5
	A	 1000 101A 1011 1011	0
000CB0	8ABB	BSF LATB,5,ACCESS
	F	 1001 BBBA FFFF FFFF	16316
	B	 1001 BBBA 1011 1100	7
	A	 1001 111A 1011 1100	0
000CB2	9EBC	BCF LATC,7,ACCESS
	F	 0110 101A FFFF FFFF	16325
	A	 0110 101A 1100 0101	0
000CB4	6AC5	CLRF TRISD,ACCESS
	S	0000 0000 0110 SSSS:1111 SSSS SSSS SSDD:1111 DDDD DDDD DDDD	83
	D	0000 0000 0110 0000:1111 0001 0100 11DD:1111 DDDD DDDD DDDD	16333
000CB6	0060 F14F FFCD	MOVFFL LCDBYTE,PORTD
	K	 0000 1110 KKKK KKKK	53
000CBC	0E35	MOVLW 53
	F	 0110 111A FFFF FFFF	0
	A	 0110 111A 0000 0000	0
000CBE	6E00	MOVWF DELAYTEMP,ACCESS
		DELAYUS1
	F	 0010 11DA FFFF FFFF	0
	D	 0010 11DA 0000 0000	1
	A	 0010 111A 0000 0000	0
000CC0	2E00	DECFSZ DELAYTEMP,F,ACCESS
	N	 1101 0NNN NNNN NNNN	2046
000CC2	D7FE	BRA DELAYUS1
	F	 1000 BBBA FFFF FFFF	16315
	B	 1000 BBBA 1011 1011	2
	A	 1000 010A 1011 1011	0
000CC4	84BB	BSF LATB,2,ACCESS
	K	 0000 1110 KKKK KKKK	5
000CC6	0E05	MOVLW 5
	F	 0110 111A FFFF FFFF	0
	A	 0110 111A 0000 0000	0
000CC8	6E00	MOVWF DELAYTEMP,ACCESS
		DELAYUS2
	F	 0010 11DA FFFF FFFF	0
	D	 0010 11DA 0000 0000	1
	A	 0010 111A 0000 0000	0
000CCA	2E00	DECFSZ DELAYTEMP,F,ACCESS
	N	 1101 0NNN NNNN NNNN	2046
000CCC	D7FE	BRA DELAYUS2
	F	 1001 BBBA FFFF FFFF	16315
	B	 1001 BBBA 1011 1011	2
	A	 1001 010A 1011 1011	0
000CCE	94BB	BCF LATB,2,ACCESS
	K	 0000 1110 KKKK KKKK	53
000CD0	0E35	MOVLW 53
	F	 0110 111A FFFF FFFF	0
	A	 0110 111A 0000 0000	0
000CD2	6E00	MOVWF DELAYTEMP,ACCESS
		DELAYUS3
	F	 0010 11DA FFFF FFFF	0
	D	 0010 11DA 0000 0000	1
	A	 0010 111A 0000 0000	0
000CD4	2E00	DECFSZ DELAYTEMP,F,ACCESS
	N	 1101 0NNN NNNN NNNN	2046
000CD6	D7FE	BRA DELAYUS3
	S	 0000 0000 0001 001S	0
000CD8	0012	RETURN


		HSERPRINT483
	S	0000 0000 0110 SSSS:1111 SSSS SSSS SSDD:1111 DDDD DDDD DDDD	119
	D	0000 0000 0110 0000:1111 0001 1101 11DD:1111 DDDD DDDD DDDD	16361
000CDA	0060 F1DF FFE9	MOVFFL SYSPRINTDATAHANDLER,AFSR0
	S	0000 0000 0110 SSSS:1111 SSSS SSSS SSDD:1111 DDDD DDDD DDDD	120
	D	0000 0000 0110 0000:1111 0001 1110 00DD:1111 DDDD DDDD DDDD	16362
000CE0	0060 F1E3 FFEA	MOVFFL SYSPRINTDATAHANDLER_H,AFSR0_H
	S	0000 0000 0110 SSSS:1111 SSSS SSSS SSDD:1111 DDDD DDDD DDDD	16367
	D	0000 0000 0110 1111:1111 1111 1011 11DD:1111 DDDD DDDD DDDD	92
000CE6	006F FFBC F05C	MOVFFL INDF0,PRINTLEN
	F	 0101 00DA FFFF FFFF	92
	D	 0101 00DA 0101 1100	1
	A	 0101 001A 0101 1100	0
000CEC	525C	MOVF PRINTLEN,F,ACCESS
	F	 1011 BBBA FFFF FFFF	16344
	B	 1011 BBBA 1101 1000	2
	A	 1011 010A 1101 1000	0
000CEE	B4D8	BTFSC STATUS, Z,ACCESS
	N	 1101 0NNN NNNN NNNN	20
000CF0	D014	BRA ENDIF51
	F	 0110 101A FFFF FFFF	121
	A	 0110 101A 0111 1001	1
000CF2	6B79	CLRF SYSPRINTTEMP,BANKED
	K	 0000 1110 KKKK KKKK	1
000CF4	0E01	MOVLW 1
	F	 0101 11DA FFFF FFFF	92
	D	 0101 11DA 0101 1100	0
	A	 0101 110A 0101 1100	0
000CF6	5C5C	SUBWF PRINTLEN,W,ACCESS
	F	 1010 BBBA FFFF FFFF	16344
	B	 1010 BBBA 1101 1000	0
	A	 1010 000A 1101 1000	0
000CF8	A0D8	BTFSS STATUS, C,ACCESS
	N	 1101 0NNN NNNN NNNN	15
000CFA	D00F	BRA SYSFORLOOPEND10
		SYSFORLOOP10
	F	 0010 10DA FFFF FFFF	121
	D	 0010 10DA 0111 1001	1
	A	 0010 101A 0111 1001	1
000CFC	2B79	INCF SYSPRINTTEMP,F,BANKED
	F	 0101 00DA FFFF FFFF	121
	D	 0101 00DA 0111 1001	0
	A	 0101 000A 0111 1001	1
000CFE	5179	MOVF SYSPRINTTEMP,W,BANKED
	F	 0010 01DA FFFF FFFF	119
	D	 0010 01DA 0111 0111	0
	A	 0010 010A 0111 0111	1
000D00	2577	ADDWF SYSPRINTDATAHANDLER,W,BANKED
	F	 0110 111A FFFF FFFF	16361
	A	 0110 111A 1110 1001	0
000D02	6EE9	MOVWF AFSR0,ACCESS
	K	 0000 1110 KKKK KKKK	0
000D04	0E00	MOVLW 0
	F	 0010 00DA FFFF FFFF	120
	D	 0010 00DA 0111 1000	0
	A	 0010 000A 0111 1000	1
000D06	2178	ADDWFC SYSPRINTDATAHANDLER_H,W,BANKED
	F	 0110 111A FFFF FFFF	16362
	A	 0110 111A 1110 1010	0
000D08	6EEA	MOVWF AFSR0_H,ACCESS
	S	0000 0000 0110 SSSS:1111 SSSS SSSS SSDD:1111 DDDD DDDD DDDD	16367
	D	0000 0000 0110 1111:1111 1111 1011 11DD:1111 DDDD DDDD DDDD	98
000D0A	006F FFBC F062	MOVFFL INDF0,SERDATA
	N	 1101 1NNN NNNN NNNN	13
000D10	D80D	RCALL HSERSEND471
	F	 0101 00DA FFFF FFFF	92
	D	 0101 00DA 0101 1100	0
	A	 0101 000A 0101 1100	0
000D12	505C	MOVF PRINTLEN,W,ACCESS
	F	 0101 11DA FFFF FFFF	121
	D	 0101 11DA 0111 1001	0
	A	 0101 110A 0111 1001	1
000D14	5D79	SUBWF SYSPRINTTEMP,W,BANKED
	F	 1010 BBBA FFFF FFFF	16344
	B	 1010 BBBA 1101 1000	0
	A	 1010 000A 1101 1000	0
000D16	A0D8	BTFSS STATUS, C,ACCESS
	N	 1101 0NNN NNNN NNNN	2033
000D18	D7F1	BRA SYSFORLOOP10
		SYSFORLOOPEND10
		ENDIF51
	S	 0000 0000 0001 001S	0
000D1A	0012	RETURN


		HSERSEND470
		SYSWAITLOOP2
	K	 0000 0001 00KK KKKK	57
000000	0139	BANKSEL PIR3
	F	 1010 BBBA FFFF FFFF	14755
	B	 1010 BBBA 1010 0011	4
	A	 1010 100A 1010 0011	1
000D1E	A9A3	BTFSS PIR3,U1TXIF,BANKED
	N	 1101 0NNN NNNN NNNN	2045
000D20	D7FD	BRA SYSWAITLOOP2
	S	0000 0000 0110 SSSS:1111 SSSS SSSS SSDD:1111 DDDD DDDD DDDD	98
	D	0000 0000 0110 0000:1111 0001 1000 10DD:1111 DDDD DDDD DDDD	15850
000D22	0060 F18B FDEA	MOVFFL SERDATA,U1TXB
	K	 0000 0001 00KK KKKK	0
000000	0100	BANKSEL 0
	S	 0000 0000 0001 001S	0
000D2A	0012	RETURN


		HSERSEND471
		HSERSENDUSART1HANDLER
		SYSWAITLOOP7
	K	 0000 0001 00KK KKKK	57
000000	0139	BANKSEL PIR3
	F	 1010 BBBA FFFF FFFF	14755
	B	 1010 BBBA 1010 0011	4
	A	 1010 100A 1010 0011	1
000D2E	A9A3	BTFSS PIR3,U1TXIF,BANKED
	N	 1101 0NNN NNNN NNNN	2045
000D30	D7FD	BRA SYSWAITLOOP7
	S	0000 0000 0110 SSSS:1111 SSSS SSSS SSDD:1111 DDDD DDDD DDDD	98
	D	0000 0000 0110 0000:1111 0001 1000 10DD:1111 DDDD DDDD DDDD	15850
000D32	0060 F18B FDEA	MOVFFL SERDATA,U1TXB
	K	 0000 0001 00KK KKKK	0
000000	0100	BANKSEL 0
	S	 0000 0000 0001 001S	0
000D3A	0012	RETURN


		I2CRECEIVE
	F	 1001 BBBA FFFF FFFF	16324
	B	 1001 BBBA 1100 0100	3
	A	 1001 011A 1100 0100	0
000D3C	96C4	BCF TRISC,3,ACCESS
	F	 1001 BBBA FFFF FFFF	16316
	B	 1001 BBBA 1011 1100	3
	A	 1001 011A 1011 1100	0
000D3E	96BC	BCF LATC,3,ACCESS
	F	 1000 BBBA FFFF FFFF	16324
	B	 1000 BBBA 1100 0100	4
	A	 1000 100A 1100 0100	0
000D40	88C4	BSF TRISC,4,ACCESS
	F	 0110 101A FFFF FFFF	76
	A	 0110 101A 0100 1100	0
000D42	6A4C	CLRF I2CBYTE,ACCESS
	K	 0000 1110 KKKK KKKK	8
000D44	0E08	MOVLW 8
	F	 0110 111A FFFF FFFF	124
	A	 0110 111A 0111 1100	1
000D46	6F7C	MOVWF SYSREPEATTEMP3,BANKED
		SYSREPEATLOOP3
	K	 0000 1110 KKKK KKKK	5
000D48	0E05	MOVLW 5
	F	 0110 111A FFFF FFFF	0
	A	 0110 111A 0000 0000	0
000D4A	6E00	MOVWF DELAYTEMP,ACCESS
		DELAYUS19
	F	 0010 11DA FFFF FFFF	0
	D	 0010 11DA 0000 0000	1
	A	 0010 111A 0000 0000	0
000D4C	2E00	DECFSZ DELAYTEMP,F,ACCESS
	N	 1101 0NNN NNNN NNNN	2046
000D4E	D7FE	BRA DELAYUS19
	F	 1000 BBBA FFFF FFFF	16324
	B	 1000 BBBA 1100 0100	3
	A	 1000 011A 1100 0100	0
000D50	86C4	BSF TRISC,3,ACCESS
		SYSWAITLOOP5
	F	 1010 BBBA FFFF FFFF	16332
	B	 1010 BBBA 1100 1100	3
	A	 1010 011A 1100 1100	0
000D52	A6CC	BTFSS PORTC,3,ACCESS
	N	 1101 0NNN NNNN NNNN	2046
000D54	D7FE	BRA SYSWAITLOOP5
	F	 0011 01DA FFFF FFFF	76
	D	 0011 01DA 0100 1100	1
	A	 0011 011A 0100 1100	0
000D56	364C	RLCF I2CBYTE,F,ACCESS
	F	 1001 BBBA FFFF FFFF	76
	B	 1001 BBBA 0100 1100	0
	A	 1001 000A 0100 1100	0
000D58	904C	BCF I2CBYTE,0,ACCESS
	F	 1011 BBBA FFFF FFFF	16332
	B	 1011 BBBA 1100 1100	4
	A	 1011 100A 1100 1100	0
000D5A	B8CC	BTFSC PORTC,4,ACCESS
	F	 1000 BBBA FFFF FFFF	76
	B	 1000 BBBA 0100 1100	0
	A	 1000 000A 0100 1100	0
000D5C	804C	BSF I2CBYTE,0,ACCESS
	K	 0000 1110 KKKK KKKK	160
000D5E	0EA0	MOVLW 160
	F	 0110 111A FFFF FFFF	0
	A	 0110 111A 0000 0000	0
000D60	6E00	MOVWF DELAYTEMP,ACCESS
		DELAYUS20
	F	 0010 11DA FFFF FFFF	0
	D	 0010 11DA 0000 0000	1
	A	 0010 111A 0000 0000	0
000D62	2E00	DECFSZ DELAYTEMP,F,ACCESS
	N	 1101 0NNN NNNN NNNN	2046
000D64	D7FE	BRA DELAYUS20
	F	 1001 BBBA FFFF FFFF	16324
	B	 1001 BBBA 1100 0100	3
	A	 1001 011A 1100 0100	0
000D66	96C4	BCF TRISC,3,ACCESS
	F	 1001 BBBA FFFF FFFF	16316
	B	 1001 BBBA 1011 1100	3
	A	 1001 011A 1011 1100	0
000D68	96BC	BCF LATC,3,ACCESS
	K	 0000 1110 KKKK KKKK	5
000D6A	0E05	MOVLW 5
	F	 0110 111A FFFF FFFF	0
	A	 0110 111A 0000 0000	0
000D6C	6E00	MOVWF DELAYTEMP,ACCESS
		DELAYUS21
	F	 0010 11DA FFFF FFFF	0
	D	 0010 11DA 0000 0000	1
	A	 0010 111A 0000 0000	0
000D6E	2E00	DECFSZ DELAYTEMP,F,ACCESS
	N	 1101 0NNN NNNN NNNN	2046
000D70	D7FE	BRA DELAYUS21
	F	 0010 11DA FFFF FFFF	124
	D	 0010 11DA 0111 1100	1
	A	 0010 111A 0111 1100	1
000D72	2F7C	DECFSZ SYSREPEATTEMP3,F,BANKED
	N	 1101 0NNN NNNN NNNN	2025
000D74	D7E9	BRA SYSREPEATLOOP3
		SYSREPEATLOOPEND3
	F	 0101 00DA FFFF FFFF	74
	D	 0101 00DA 0100 1010	1
	A	 0101 001A 0100 1010	0
000D76	524A	MOVF I2CACK,F,ACCESS
	F	 1011 BBBA FFFF FFFF	16344
	B	 1011 BBBA 1101 1000	2
	A	 1011 010A 1101 1000	0
000D78	B4D8	BTFSC STATUS,Z,ACCESS
	N	 1101 0NNN NNNN NNNN	3
000D7A	D003	BRA ELSE60_1
	F	 1001 BBBA FFFF FFFF	16324
	B	 1001 BBBA 1100 0100	4
	A	 1001 100A 1100 0100	0
000D7C	98C4	BCF TRISC,4,ACCESS
	F	 1001 BBBA FFFF FFFF	16316
	B	 1001 BBBA 1011 1100	4
	A	 1001 100A 1011 1100	0
000D7E	98BC	BCF LATC,4,ACCESS
	N	 1101 0NNN NNNN NNNN	1
000D80	D001	BRA ENDIF60
		ELSE60_1
	F	 1000 BBBA FFFF FFFF	16324
	B	 1000 BBBA 1100 0100	4
	A	 1000 100A 1100 0100	0
000D82	88C4	BSF TRISC,4,ACCESS
		ENDIF60
	K	 0000 1110 KKKK KKKK	5
000D84	0E05	MOVLW 5
	F	 0110 111A FFFF FFFF	0
	A	 0110 111A 0000 0000	0
000D86	6E00	MOVWF DELAYTEMP,ACCESS
		DELAYUS22
	F	 0010 11DA FFFF FFFF	0
	D	 0010 11DA 0000 0000	1
	A	 0010 111A 0000 0000	0
000D88	2E00	DECFSZ DELAYTEMP,F,ACCESS
	N	 1101 0NNN NNNN NNNN	2046
000D8A	D7FE	BRA DELAYUS22
	F	 1000 BBBA FFFF FFFF	16324
	B	 1000 BBBA 1100 0100	3
	A	 1000 011A 1100 0100	0
000D8C	86C4	BSF TRISC,3,ACCESS
		SYSWAITLOOP6
	F	 1010 BBBA FFFF FFFF	16332
	B	 1010 BBBA 1100 1100	3
	A	 1010 011A 1100 1100	0
000D8E	A6CC	BTFSS PORTC,3,ACCESS
	N	 1101 0NNN NNNN NNNN	2046
000D90	D7FE	BRA SYSWAITLOOP6
	K	 0000 1110 KKKK KKKK	160
000D92	0EA0	MOVLW 160
	F	 0110 111A FFFF FFFF	0
	A	 0110 111A 0000 0000	0
000D94	6E00	MOVWF DELAYTEMP,ACCESS
		DELAYUS23
	F	 0010 11DA FFFF FFFF	0
	D	 0010 11DA 0000 0000	1
	A	 0010 111A 0000 0000	0
000D96	2E00	DECFSZ DELAYTEMP,F,ACCESS
	N	 1101 0NNN NNNN NNNN	2046
000D98	D7FE	BRA DELAYUS23
	F	 1001 BBBA FFFF FFFF	16324
	B	 1001 BBBA 1100 0100	3
	A	 1001 011A 1100 0100	0
000D9A	96C4	BCF TRISC,3,ACCESS
	F	 1001 BBBA FFFF FFFF	16316
	B	 1001 BBBA 1011 1100	3
	A	 1001 011A 1011 1100	0
000D9C	96BC	BCF LATC,3,ACCESS
	K	 0000 1110 KKKK KKKK	5
000D9E	0E05	MOVLW 5
	F	 0110 111A FFFF FFFF	0
	A	 0110 111A 0000 0000	0
000DA0	6E00	MOVWF DELAYTEMP,ACCESS
		DELAYUS24
	F	 0010 11DA FFFF FFFF	0
	D	 0010 11DA 0000 0000	1
	A	 0010 111A 0000 0000	0
000DA2	2E00	DECFSZ DELAYTEMP,F,ACCESS
	N	 1101 0NNN NNNN NNNN	2046
000DA4	D7FE	BRA DELAYUS24
	S	 0000 0000 0001 001S	0
000DA6	0012	RETURN


		I2CRESTART
	N	 1101 0NNN NNNN NNNN	68
000DA8	D044	BRA I2CSTART


		I2CSEND
	F	 1001 BBBA FFFF FFFF	16324
	B	 1001 BBBA 1100 0100	3
	A	 1001 011A 1100 0100	0
000DAA	96C4	BCF TRISC,3,ACCESS
	F	 1001 BBBA FFFF FFFF	16316
	B	 1001 BBBA 1011 1100	3
	A	 1001 011A 1011 1100	0
000DAC	96BC	BCF LATC,3,ACCESS
	K	 0000 1110 KKKK KKKK	5
000DAE	0E05	MOVLW 5
	F	 0110 111A FFFF FFFF	0
	A	 0110 111A 0000 0000	0
000DB0	6E00	MOVWF DELAYTEMP,ACCESS
		DELAYUS11
	F	 0010 11DA FFFF FFFF	0
	D	 0010 11DA 0000 0000	1
	A	 0010 111A 0000 0000	0
000DB2	2E00	DECFSZ DELAYTEMP,F,ACCESS
	N	 1101 0NNN NNNN NNNN	2046
000DB4	D7FE	BRA DELAYUS11
	K	 0000 1110 KKKK KKKK	8
000DB6	0E08	MOVLW 8
	F	 0110 111A FFFF FFFF	123
	A	 0110 111A 0111 1011	1
000DB8	6F7B	MOVWF SYSREPEATTEMP2,BANKED
		SYSREPEATLOOP2
	F	 1010 BBBA FFFF FFFF	76
	B	 1010 BBBA 0100 1100	7
	A	 1010 111A 0100 1100	0
000DBA	AE4C	BTFSS I2CBYTE,7,ACCESS
	N	 1101 0NNN NNNN NNNN	2
000DBC	D002	BRA ELSE57_1
	F	 1000 BBBA FFFF FFFF	16324
	B	 1000 BBBA 1100 0100	4
	A	 1000 100A 1100 0100	0
000DBE	88C4	BSF TRISC,4,ACCESS
	N	 1101 0NNN NNNN NNNN	2
000DC0	D002	BRA ENDIF57
		ELSE57_1
	F	 1001 BBBA FFFF FFFF	16324
	B	 1001 BBBA 1100 0100	4
	A	 1001 100A 1100 0100	0
000DC2	98C4	BCF TRISC,4,ACCESS
	F	 1001 BBBA FFFF FFFF	16316
	B	 1001 BBBA 1011 1100	4
	A	 1001 100A 1011 1100	0
000DC4	98BC	BCF LATC,4,ACCESS
		ENDIF57
	K	 0000 1110 KKKK KKKK	5
000DC6	0E05	MOVLW 5
	F	 0110 111A FFFF FFFF	0
	A	 0110 111A 0000 0000	0
000DC8	6E00	MOVWF DELAYTEMP,ACCESS
		DELAYUS12
	F	 0010 11DA FFFF FFFF	0
	D	 0010 11DA 0000 0000	1
	A	 0010 111A 0000 0000	0
000DCA	2E00	DECFSZ DELAYTEMP,F,ACCESS
	N	 1101 0NNN NNNN NNNN	2046
000DCC	D7FE	BRA DELAYUS12
	F	 0011 01DA FFFF FFFF	76
	D	 0011 01DA 0100 1100	1
	A	 0011 011A 0100 1100	0
000DCE	364C	RLCF I2CBYTE,F,ACCESS
	F	 1000 BBBA FFFF FFFF	16324
	B	 1000 BBBA 1100 0100	3
	A	 1000 011A 1100 0100	0
000DD0	86C4	BSF TRISC,3,ACCESS
		SYSWAITLOOP3
	F	 1010 BBBA FFFF FFFF	16332
	B	 1010 BBBA 1100 1100	3
	A	 1010 011A 1100 1100	0
000DD2	A6CC	BTFSS PORTC,3,ACCESS
	N	 1101 0NNN NNNN NNNN	2046
000DD4	D7FE	BRA SYSWAITLOOP3
	K	 0000 1110 KKKK KKKK	160
000DD6	0EA0	MOVLW 160
	F	 0110 111A FFFF FFFF	0
	A	 0110 111A 0000 0000	0
000DD8	6E00	MOVWF DELAYTEMP,ACCESS
		DELAYUS13
	F	 0010 11DA FFFF FFFF	0
	D	 0010 11DA 0000 0000	1
	A	 0010 111A 0000 0000	0
000DDA	2E00	DECFSZ DELAYTEMP,F,ACCESS
	N	 1101 0NNN NNNN NNNN	2046
000DDC	D7FE	BRA DELAYUS13
	F	 1001 BBBA FFFF FFFF	16324
	B	 1001 BBBA 1100 0100	3
	A	 1001 011A 1100 0100	0
000DDE	96C4	BCF TRISC,3,ACCESS
	F	 1001 BBBA FFFF FFFF	16316
	B	 1001 BBBA 1011 1100	3
	A	 1001 011A 1011 1100	0
000DE0	96BC	BCF LATC,3,ACCESS
	K	 0000 1110 KKKK KKKK	5
000DE2	0E05	MOVLW 5
	F	 0110 111A FFFF FFFF	0
	A	 0110 111A 0000 0000	0
000DE4	6E00	MOVWF DELAYTEMP,ACCESS
		DELAYUS14
	F	 0010 11DA FFFF FFFF	0
	D	 0010 11DA 0000 0000	1
	A	 0010 111A 0000 0000	0
000DE6	2E00	DECFSZ DELAYTEMP,F,ACCESS
	N	 1101 0NNN NNNN NNNN	2046
000DE8	D7FE	BRA DELAYUS14
	F	 0010 11DA FFFF FFFF	123
	D	 0010 11DA 0111 1011	1
	A	 0010 111A 0111 1011	1
000DEA	2F7B	DECFSZ SYSREPEATTEMP2,F,BANKED
	N	 1101 0NNN NNNN NNNN	2022
000DEC	D7E6	BRA SYSREPEATLOOP2
		SYSREPEATLOOPEND2
	K	 0000 1110 KKKK KKKK	106
000DEE	0E6A	MOVLW 106
	F	 0110 111A FFFF FFFF	0
	A	 0110 111A 0000 0000	0
000DF0	6E00	MOVWF DELAYTEMP,ACCESS
		DELAYUS15
	F	 0010 11DA FFFF FFFF	0
	D	 0010 11DA 0000 0000	1
	A	 0010 111A 0000 0000	0
000DF2	2E00	DECFSZ DELAYTEMP,F,ACCESS
	N	 1101 0NNN NNNN NNNN	2046
000DF4	D7FE	BRA DELAYUS15
000DF6	0000	NOP
	F	 1000 BBBA FFFF FFFF	16324
	B	 1000 BBBA 1100 0100	4
	A	 1000 100A 1100 0100	0
000DF8	88C4	BSF TRISC,4,ACCESS
	K	 0000 1110 KKKK KKKK	5
000DFA	0E05	MOVLW 5
	F	 0110 111A FFFF FFFF	0
	A	 0110 111A 0000 0000	0
000DFC	6E00	MOVWF DELAYTEMP,ACCESS
		DELAYUS16
	F	 0010 11DA FFFF FFFF	0
	D	 0010 11DA 0000 0000	1
	A	 0010 111A 0000 0000	0
000DFE	2E00	DECFSZ DELAYTEMP,F,ACCESS
	N	 1101 0NNN NNNN NNNN	2046
000E00	D7FE	BRA DELAYUS16
	F	 1000 BBBA FFFF FFFF	16324
	B	 1000 BBBA 1100 0100	3
	A	 1000 011A 1100 0100	0
000E02	86C4	BSF TRISC,3,ACCESS
		SYSWAITLOOP4
	F	 1010 BBBA FFFF FFFF	16332
	B	 1010 BBBA 1100 1100	3
	A	 1010 011A 1100 1100	0
000E04	A6CC	BTFSS PORTC,3,ACCESS
	N	 1101 0NNN NNNN NNNN	2046
000E06	D7FE	BRA SYSWAITLOOP4
	F	 1010 BBBA FFFF FFFF	16332
	B	 1010 BBBA 1100 1100	4
	A	 1010 100A 1100 1100	0
000E08	A8CC	BTFSS PORTC,4,ACCESS
	N	 1101 0NNN NNNN NNNN	3
000E0A	D003	BRA ELSE58_1
	F	 0110 101A FFFF FFFF	74
	A	 0110 101A 0100 1010	0
000E0C	6A4A	CLRF I2CACK,ACCESS
	F	 0110 101A FFFF FFFF	75
	A	 0110 101A 0100 1011	0
000E0E	6A4B	CLRF I2CACKPOLLSTATE,ACCESS
	N	 1101 0NNN NNNN NNNN	2
000E10	D002	BRA ENDIF58
		ELSE58_1
	F	 0110 100A FFFF FFFF	74
	A	 0110 100A 0100 1010	0
000E12	684A	SETF I2CACK,ACCESS
	F	 0110 100A FFFF FFFF	75
	A	 0110 100A 0100 1011	0
000E14	684B	SETF I2CACKPOLLSTATE,ACCESS
		ENDIF58
	F	 1001 BBBA FFFF FFFF	16324
	B	 1001 BBBA 1100 0100	3
	A	 1001 011A 1100 0100	0
000E16	96C4	BCF TRISC,3,ACCESS
	F	 1001 BBBA FFFF FFFF	16316
	B	 1001 BBBA 1011 1100	3
	A	 1001 011A 1011 1100	0
000E18	96BC	BCF LATC,3,ACCESS
	K	 0000 1110 KKKK KKKK	5
000E1A	0E05	MOVLW 5
	F	 0110 111A FFFF FFFF	0
	A	 0110 111A 0000 0000	0
000E1C	6E00	MOVWF DELAYTEMP,ACCESS
		DELAYUS17
	F	 0010 11DA FFFF FFFF	0
	D	 0010 11DA 0000 0000	1
	A	 0010 111A 0000 0000	0
000E1E	2E00	DECFSZ DELAYTEMP,F,ACCESS
	N	 1101 0NNN NNNN NNNN	2046
000E20	D7FE	BRA DELAYUS17
	F	 1001 BBBA FFFF FFFF	16324
	B	 1001 BBBA 1100 0100	4
	A	 1001 100A 1100 0100	0
000E22	98C4	BCF TRISC,4,ACCESS
	F	 1001 BBBA FFFF FFFF	16316
	B	 1001 BBBA 1011 1100	4
	A	 1001 100A 1011 1100	0
000E24	98BC	BCF LATC,4,ACCESS
	K	 0000 1110 KKKK KKKK	106
000E26	0E6A	MOVLW 106
	F	 0110 111A FFFF FFFF	0
	A	 0110 111A 0000 0000	0
000E28	6E00	MOVWF DELAYTEMP,ACCESS
		DELAYUS18
	F	 0010 11DA FFFF FFFF	0
	D	 0010 11DA 0000 0000	1
	A	 0010 111A 0000 0000	0
000E2A	2E00	DECFSZ DELAYTEMP,F,ACCESS
	N	 1101 0NNN NNNN NNNN	2046
000E2C	D7FE	BRA DELAYUS18
000E2E	0000	NOP
	S	 0000 0000 0001 001S	0
000E30	0012	RETURN


		I2CSTART
	F	 1001 BBBA FFFF FFFF	101
	B	 1001 BBBA 0110 0101	0
	A	 1001 000A 0110 0101	1
000E32	9165	BCF SYSBITVAR3,0,BANKED
	F	 1011 BBBA FFFF FFFF	16338
	B	 1011 BBBA 1101 0010	7
	A	 1011 111A 1101 0010	0
000E34	BED2	BTFSC INTCON0,GIE,ACCESS
	F	 1000 BBBA FFFF FFFF	101
	B	 1000 BBBA 0110 0101	0
	A	 1000 000A 0110 0101	1
000E36	8165	BSF SYSBITVAR3,0,BANKED
	F	 1001 BBBA FFFF FFFF	16338
	B	 1001 BBBA 1101 0010	7
	A	 1001 111A 1101 0010	0
000E38	9ED2	BCF INTCON0,GIE,ACCESS
	F	 1000 BBBA FFFF FFFF	16324
	B	 1000 BBBA 1100 0100	4
	A	 1000 100A 1100 0100	0
000E3A	88C4	BSF TRISC,4,ACCESS
	F	 1000 BBBA FFFF FFFF	16324
	B	 1000 BBBA 1100 0100	3
	A	 1000 011A 1100 0100	0
000E3C	86C4	BSF TRISC,3,ACCESS
	K	 0000 1110 KKKK KKKK	5
000E3E	0E05	MOVLW 5
	F	 0110 111A FFFF FFFF	0
	A	 0110 111A 0000 0000	0
000E40	6E00	MOVWF DELAYTEMP,ACCESS
		DELAYUS6
	F	 0010 11DA FFFF FFFF	0
	D	 0010 11DA 0000 0000	1
	A	 0010 111A 0000 0000	0
000E42	2E00	DECFSZ DELAYTEMP,F,ACCESS
	N	 1101 0NNN NNNN NNNN	2046
000E44	D7FE	BRA DELAYUS6
	F	 1001 BBBA FFFF FFFF	16324
	B	 1001 BBBA 1100 0100	4
	A	 1001 100A 1100 0100	0
000E46	98C4	BCF TRISC,4,ACCESS
	F	 1001 BBBA FFFF FFFF	16316
	B	 1001 BBBA 1011 1100	4
	A	 1001 100A 1011 1100	0
000E48	98BC	BCF LATC,4,ACCESS
	K	 0000 1110 KKKK KKKK	160
000E4A	0EA0	MOVLW 160
	F	 0110 111A FFFF FFFF	0
	A	 0110 111A 0000 0000	0
000E4C	6E00	MOVWF DELAYTEMP,ACCESS
		DELAYUS7
	F	 0010 11DA FFFF FFFF	0
	D	 0010 11DA 0000 0000	1
	A	 0010 111A 0000 0000	0
000E4E	2E00	DECFSZ DELAYTEMP,F,ACCESS
	N	 1101 0NNN NNNN NNNN	2046
000E50	D7FE	BRA DELAYUS7
	F	 1001 BBBA FFFF FFFF	16324
	B	 1001 BBBA 1100 0100	3
	A	 1001 011A 1100 0100	0
000E52	96C4	BCF TRISC,3,ACCESS
	F	 1001 BBBA FFFF FFFF	16316
	B	 1001 BBBA 1011 1100	3
	A	 1001 011A 1011 1100	0
000E54	96BC	BCF LATC,3,ACCESS
	S	 0000 0000 0001 001S	0
000E56	0012	RETURN


		I2CSTOP
	F	 1001 BBBA FFFF FFFF	16324
	B	 1001 BBBA 1100 0100	3
	A	 1001 011A 1100 0100	0
000E58	96C4	BCF TRISC,3,ACCESS
	F	 1001 BBBA FFFF FFFF	16316
	B	 1001 BBBA 1011 1100	3
	A	 1001 011A 1011 1100	0
000E5A	96BC	BCF LATC,3,ACCESS
	F	 1001 BBBA FFFF FFFF	16324
	B	 1001 BBBA 1100 0100	4
	A	 1001 100A 1100 0100	0
000E5C	98C4	BCF TRISC,4,ACCESS
	F	 1001 BBBA FFFF FFFF	16316
	B	 1001 BBBA 1011 1100	4
	A	 1001 100A 1011 1100	0
000E5E	98BC	BCF LATC,4,ACCESS
	K	 0000 1110 KKKK KKKK	5
000E60	0E05	MOVLW 5
	F	 0110 111A FFFF FFFF	0
	A	 0110 111A 0000 0000	0
000E62	6E00	MOVWF DELAYTEMP,ACCESS
		DELAYUS8
	F	 0010 11DA FFFF FFFF	0
	D	 0010 11DA 0000 0000	1
	A	 0010 111A 0000 0000	0
000E64	2E00	DECFSZ DELAYTEMP,F,ACCESS
	N	 1101 0NNN NNNN NNNN	2046
000E66	D7FE	BRA DELAYUS8
	F	 1000 BBBA FFFF FFFF	16324
	B	 1000 BBBA 1100 0100	3
	A	 1000 011A 1100 0100	0
000E68	86C4	BSF TRISC,3,ACCESS
	K	 0000 1110 KKKK KKKK	160
000E6A	0EA0	MOVLW 160
	F	 0110 111A FFFF FFFF	0
	A	 0110 111A 0000 0000	0
000E6C	6E00	MOVWF DELAYTEMP,ACCESS
		DELAYUS9
	F	 0010 11DA FFFF FFFF	0
	D	 0010 11DA 0000 0000	1
	A	 0010 111A 0000 0000	0
000E6E	2E00	DECFSZ DELAYTEMP,F,ACCESS
	N	 1101 0NNN NNNN NNNN	2046
000E70	D7FE	BRA DELAYUS9
	F	 1000 BBBA FFFF FFFF	16324
	B	 1000 BBBA 1100 0100	4
	A	 1000 100A 1100 0100	0
000E72	88C4	BSF TRISC,4,ACCESS
	K	 0000 1110 KKKK KKKK	5
000E74	0E05	MOVLW 5
	F	 0110 111A FFFF FFFF	0
	A	 0110 111A 0000 0000	0
000E76	6E00	MOVWF DELAYTEMP,ACCESS
		DELAYUS10
	F	 0010 11DA FFFF FFFF	0
	D	 0010 11DA 0000 0000	1
	A	 0010 111A 0000 0000	0
000E78	2E00	DECFSZ DELAYTEMP,F,ACCESS
	N	 1101 0NNN NNNN NNNN	2046
000E7A	D7FE	BRA DELAYUS10
	F	 1010 BBBA FFFF FFFF	101
	B	 1010 BBBA 0110 0101	0
	A	 1010 000A 0110 0101	1
000E7C	A165	BTFSS SYSBITVAR3,0,BANKED
	F	 1001 BBBA FFFF FFFF	16338
	B	 1001 BBBA 1101 0010	7
	A	 1001 111A 1101 0010	0
000E7E	9ED2	BCF INTCON0,GIE,ACCESS
	F	 1011 BBBA FFFF FFFF	101
	B	 1011 BBBA 0110 0101	0
	A	 1011 000A 0110 0101	1
000E80	B165	BTFSC SYSBITVAR3,0,BANKED
	F	 1000 BBBA FFFF FFFF	16338
	B	 1000 BBBA 1101 0010	7
	A	 1000 111A 1101 0010	0
000E82	8ED2	BSF INTCON0,GIE,ACCESS
	S	 0000 0000 0001 001S	0
000E84	0012	RETURN


		INITGLCD_KS0108
	F	 1001 BBBA FFFF FFFF	16323
	B	 1001 BBBA 1100 0011	3
	A	 1001 011A 1100 0011	0
000E86	96C3	BCF TRISB,3,ACCESS
	F	 1001 BBBA FFFF FFFF	16324
	B	 1001 BBBA 1100 0100	7
	A	 1001 111A 1100 0100	0
000E88	9EC4	BCF TRISC,7,ACCESS
	F	 1001 BBBA FFFF FFFF	16323
	B	 1001 BBBA 1100 0011	2
	A	 1001 010A 1100 0011	0
000E8A	94C3	BCF TRISB,2,ACCESS
	F	 1001 BBBA FFFF FFFF	16323
	B	 1001 BBBA 1100 0011	4
	A	 1001 100A 1100 0011	0
000E8C	98C3	BCF TRISB,4,ACCESS
	F	 1001 BBBA FFFF FFFF	16323
	B	 1001 BBBA 1100 0011	5
	A	 1001 101A 1100 0011	0
000E8E	9AC3	BCF TRISB,5,ACCESS
	F	 1001 BBBA FFFF FFFF	16324
	B	 1001 BBBA 1100 0100	2
	A	 1001 010A 1100 0100	0
000E90	94C4	BCF TRISC,2,ACCESS
	F	 1001 BBBA FFFF FFFF	16316
	B	 1001 BBBA 1011 1100	2
	A	 1001 010A 1011 1100	0
000E92	94BC	BCF LATC,2,ACCESS
	K	 0000 1110 KKKK KKKK	1
000E94	0E01	MOVLW 1
	F	 0110 111A FFFF FFFF	2
	A	 0110 111A 0000 0010	0
000E96	6E02	MOVWF SYSWAITTEMPMS,ACCESS
	F	 0110 101A FFFF FFFF	3
	A	 0110 101A 0000 0011	0
000E98	6A03	CLRF SYSWAITTEMPMS_H,ACCESS
	K	1111 KKKK KKKK KKKK:1110 110S KKKK KKKK	1514
	S	1111 0000 0000 0010:1110 110S 1111 0101	0
000E9A	ECF5 F002	CALL DELAY_MS
	F	 1000 BBBA FFFF FFFF	16316
	B	 1000 BBBA 1011 1100	2
	A	 1000 010A 1011 1100	0
000E9E	84BC	BSF LATC,2,ACCESS
	K	 0000 1110 KKKK KKKK	1
000EA0	0E01	MOVLW 1
	F	 0110 111A FFFF FFFF	2
	A	 0110 111A 0000 0010	0
000EA2	6E02	MOVWF SYSWAITTEMPMS,ACCESS
	F	 0110 101A FFFF FFFF	3
	A	 0110 101A 0000 0011	0
000EA4	6A03	CLRF SYSWAITTEMPMS_H,ACCESS
	K	1111 KKKK KKKK KKKK:1110 110S KKKK KKKK	1514
	S	1111 0000 0000 0010:1110 110S 1111 0101	0
000EA6	ECF5 F002	CALL DELAY_MS
	F	 1001 BBBA FFFF FFFF	16315
	B	 1001 BBBA 1011 1011	4
	A	 1001 100A 1011 1011	0
000EAA	98BB	BCF LATB,4,ACCESS
	F	 1001 BBBA FFFF FFFF	16315
	B	 1001 BBBA 1011 1011	5
	A	 1001 101A 1011 1011	0
000EAC	9ABB	BCF LATB,5,ACCESS
	F	 1001 BBBA FFFF FFFF	16315
	B	 1001 BBBA 1011 1011	3
	A	 1001 011A 1011 1011	0
000EAE	96BB	BCF LATB,3,ACCESS
	K	 0000 1110 KKKK KKKK	63
000EB0	0E3F	MOVLW 63
	F	 0110 111A FFFF FFFF	83
	A	 0110 111A 0101 0011	0
000EB2	6E53	MOVWF LCDBYTE,ACCESS
	N	 1101 1NNN NNNN NNNN	1772
000EB4	DEEC	RCALL GLCDWRITEBYTE_KS0108
	K	 0000 1110 KKKK KKKK	192
000EB6	0EC0	MOVLW 192
	F	 0110 111A FFFF FFFF	83
	A	 0110 111A 0101 0011	0
000EB8	6E53	MOVWF LCDBYTE,ACCESS
	N	 1101 1NNN NNNN NNNN	1769
000EBA	DEE9	RCALL GLCDWRITEBYTE_KS0108
	F	 1000 BBBA FFFF FFFF	16315
	B	 1000 BBBA 1011 1011	4
	A	 1000 100A 1011 1011	0
000EBC	88BB	BSF LATB,4,ACCESS
	F	 1000 BBBA FFFF FFFF	16315
	B	 1000 BBBA 1011 1011	5
	A	 1000 101A 1011 1011	0
000EBE	8ABB	BSF LATB,5,ACCESS
	F	 0110 101A FFFF FFFF	50
	A	 0110 101A 0011 0010	0
000EC0	6A32	CLRF GLCDBACKGROUND,ACCESS
	F	 0110 101A FFFF FFFF	51
	A	 0110 101A 0011 0011	0
000EC2	6A33	CLRF GLCDBACKGROUND_H,ACCESS
	K	 0000 1110 KKKK KKKK	1
000EC4	0E01	MOVLW 1
	F	 0110 111A FFFF FFFF	62
	A	 0110 111A 0011 1110	0
000EC6	6E3E	MOVWF GLCDFOREGROUND,ACCESS
	F	 0110 101A FFFF FFFF	63
	A	 0110 101A 0011 1111	0
000EC8	6A3F	CLRF GLCDFOREGROUND_H,ACCESS
	K	 0000 1110 KKKK KKKK	5
000ECA	0E05	MOVLW 5
	F	 0110 111A FFFF FFFF	61
	A	 0110 111A 0011 1101	0
000ECC	6E3D	MOVWF GLCDFONTWIDTH,ACCESS
	F	 0110 101A FFFF FFFF	58
	A	 0110 101A 0011 1010	0
000ECE	6A3A	CLRF GLCDFNTDEFAULT,ACCESS
	K	 0000 1110 KKKK KKKK	1
000ED0	0E01	MOVLW 1
	F	 0110 111A FFFF FFFF	60
	A	 0110 111A 0011 1100	0
000ED2	6E3C	MOVWF GLCDFNTDEFAULTSIZE,ACCESS
	K	 0000 1110 KKKK KKKK	7
000ED4	0E07	MOVLW 7
	F	 0110 111A FFFF FFFF	59
	A	 0110 111A 0011 1011	0
000ED6	6E3B	MOVWF GLCDFNTDEFAULTHEIGHT,ACCESS
	N	 1101 0NNN NNNN NNNN	1296
000ED8	D510	BRA GLCDCLS_KS0108


		INITI2C
	F	 1000 BBBA FFFF FFFF	16324
	B	 1000 BBBA 1100 0100	4
	A	 1000 100A 1100 0100	0
000EDA	88C4	BSF TRISC,4,ACCESS
	F	 1000 BBBA FFFF FFFF	16324
	B	 1000 BBBA 1100 0100	3
	A	 1000 011A 1100 0100	0
000EDC	86C4	BSF TRISC,3,ACCESS
	F	 0110 101A FFFF FFFF	77
	A	 0110 101A 0100 1101	0
000EDE	6A4D	CLRF I2CMATCH,ACCESS
	S	 0000 0000 0001 001S	0
000EE0	0012	RETURN


		INITPPS
	F	 1001 BBBA FFFF FFFF	16324
	B	 1001 BBBA 1100 0100	6
	A	 1001 110A 1100 0100	0
000EE2	9CC4	BCF TRISC,6,ACCESS
	K	 0000 1110 KKKK KKKK	19
000EE4	0E13	MOVLW 19
	K	 0000 0001 00KK KKKK	58
000000	013A	BANKSEL RC6PPS
	F	 0110 111A FFFF FFFF	14870
	A	 0110 111A 0001 0110	1
000EE8	6F16	MOVWF RC6PPS,BANKED
	K	 0000 0001 00KK KKKK	0
000000	0100	BANKSEL 0
	S	 0000 0000 0001 001S	0
000EEC	0012	RETURN


		INITSYS
	K	 0000 0001 00KK KKKK	0
000EEE	0100	MOVLB 0
	K	 0000 1110 KKKK KKKK	96
000EF0	0E60	MOVLW 96
	K	 0000 0001 00KK KKKK	57
000000	0139	BANKSEL OSCCON1
	F	 0110 111A FFFF FFFF	14809
	A	 0110 111A 1101 1001	1
000EF4	6FD9	MOVWF OSCCON1,BANKED
	F	 0110 101A FFFF FFFF	14811
	A	 0110 101A 1101 1011	1
000EF6	6BDB	CLRF OSCCON3,BANKED
	F	 0110 101A FFFF FFFF	14813
	A	 0110 101A 1101 1101	1
000EF8	6BDD	CLRF OSCEN,BANKED
	F	 0110 101A FFFF FFFF	14814
	A	 0110 101A 1101 1110	1
000EFA	6BDE	CLRF OSCTUNE,BANKED
	K	 0000 1110 KKKK KKKK	96
000EFC	0E60	MOVLW 96
	F	 0110 111A FFFF FFFF	14809
	A	 0110 111A 1101 1001	1
000EFE	6FD9	MOVWF OSCCON1,BANKED
	K	 0000 1110 KKKK KKKK	8
000F00	0E08	MOVLW 8
	F	 0110 111A FFFF FFFF	14815
	A	 0110 111A 1101 1111	1
000F02	6FDF	MOVWF OSCFRQ,BANKED
	F	 0110 101A FFFF FFFF	16376
	A	 0110 101A 1111 1000	0
000F04	6AF8	CLRF TBLPTRU,ACCESS
	K	 0000 0001 00KK KKKK	62
000000	013E	BANKSEL ADCON0
	F	 1001 BBBA FFFF FFFF	16120
	B	 1001 BBBA 1111 1000	2
	A	 1001 010A 1111 1000	1
000F08	95F8	BCF ADCON0,ADFM0,BANKED
	F	 1001 BBBA FFFF FFFF	16120
	B	 1001 BBBA 1111 1000	7
	A	 1001 111A 1111 1000	1
000F0A	9FF8	BCF ADCON0,ADON,BANKED
	K	 0000 0001 00KK KKKK	58
000000	013A	BANKSEL ANSELA
	F	 0110 101A FFFF FFFF	14912
	A	 0110 101A 0100 0000	1
000F0E	6B40	CLRF ANSELA,BANKED
	F	 0110 101A FFFF FFFF	14928
	A	 0110 101A 0101 0000	1
000F10	6B50	CLRF ANSELB,BANKED
	F	 0110 101A FFFF FFFF	14944
	A	 0110 101A 0110 0000	1
000F12	6B60	CLRF ANSELC,BANKED
	F	 0110 101A FFFF FFFF	14960
	A	 0110 101A 0111 0000	1
000F14	6B70	CLRF ANSELD,BANKED
	F	 0110 101A FFFF FFFF	14976
	A	 0110 101A 1000 0000	1
000F16	6B80	CLRF ANSELE,BANKED
	K	 0000 0001 00KK KKKK	62
000000	013E	BANKSEL CM2CON0
	F	 1001 BBBA FFFF FFFF	16056
	B	 1001 BBBA 1011 1000	7
	A	 1001 111A 1011 1000	1
000F1A	9FB8	BCF CM2CON0,C2EN,BANKED
	F	 1001 BBBA FFFF FFFF	16060
	B	 1001 BBBA 1011 1100	7
	A	 1001 111A 1011 1100	1
000F1C	9FBC	BCF CM1CON0,C1EN,BANKED
	F	 0110 101A FFFF FFFF	16330
	A	 0110 101A 1100 1010	0
000F1E	6ACA	CLRF PORTA,ACCESS
	F	 0110 101A FFFF FFFF	16331
	A	 0110 101A 1100 1011	0
000F20	6ACB	CLRF PORTB,ACCESS
	F	 0110 101A FFFF FFFF	16332
	A	 0110 101A 1100 1100	0
000F22	6ACC	CLRF PORTC,ACCESS
	F	 0110 101A FFFF FFFF	16333
	A	 0110 101A 1100 1101	0
000F24	6ACD	CLRF PORTD,ACCESS
	F	 0110 101A FFFF FFFF	16334
	A	 0110 101A 1100 1110	0
000F26	6ACE	CLRF PORTE,ACCESS
	K	 0000 0001 00KK KKKK	0
000000	0100	BANKSEL 0
	S	 0000 0000 0001 001S	0
000F2A	0012	RETURN


		INITUSART
	K	 0000 1110 KKKK KKKK	1
000F2C	0E01	MOVLW 1
	F	 0110 111A FFFF FFFF	32
	A	 0110 111A 0010 0000	0
000F2E	6E20	MOVWF COMPORT,ACCESS
	K	 0000 1110 KKKK KKKK	6
000F30	0E06	MOVLW 6
	K	 0000 0001 00KK KKKK	61
000000	013D	BANKSEL U1BRGH
	F	 0110 111A FFFF FFFF	15862
	A	 0110 111A 1111 0110	1
000F34	6FF6	MOVWF U1BRGH,BANKED
	K	 0000 1110 KKKK KKKK	129
000F36	0E81	MOVLW 129
	F	 0110 111A FFFF FFFF	15861
	A	 0110 111A 1111 0101	1
000F38	6FF5	MOVWF U1BRGL,BANKED
	F	 1000 BBBA FFFF FFFF	15858
	B	 1000 BBBA 1111 0010	7
	A	 1000 111A 1111 0010	1
000F3A	8FF2	BSF U1CON0,U1BRGS,BANKED
	F	 1000 BBBA FFFF FFFF	15858
	B	 1000 BBBA 1111 0010	5
	A	 1000 101A 1111 0010	1
000F3C	8BF2	BSF U1CON0,U1TXEN,BANKED
	F	 1000 BBBA FFFF FFFF	15858
	B	 1000 BBBA 1111 0010	4
	A	 1000 100A 1111 0010	1
000F3E	89F2	BSF U1CON0,U1RXEN,BANKED
	F	 1000 BBBA FFFF FFFF	15859
	B	 1000 BBBA 1111 0011	7
	A	 1000 111A 1111 0011	1
000F40	8FF3	BSF U1CON1,ON_U1CON1,BANKED
	K	 0000 0001 00KK KKKK	0
000000	0100	BANKSEL 0
	S	 0000 0000 0001 001S	0
000F44	0012	RETURN


		INTERRUPT
	K	 0000 0001 00KK KKKK	57
000000	0139	BANKSEL PIE0
	F	 1010 BBBA FFFF FFFF	14736
	B	 1010 BBBA 1001 0000	7
	A	 1010 111A 1001 0000	1
000F48	AF90	BTFSS PIE0,IOCIE,BANKED
	N	 1101 0NNN NNNN NNNN	7
000F4A	D007	BRA NOTIOCIF
	F	 1010 BBBA FFFF FFFF	14752
	B	 1010 BBBA 1010 0000	7
	A	 1010 111A 1010 0000	1
000F4C	AFA0	BTFSS PIR0,IOCIF,BANKED
	N	 1101 0NNN NNNN NNNN	5
000F4E	D005	BRA NOTIOCIF
	K	 0000 0001 00KK KKKK	0
000000	0100	BANKSEL 0
	N	 1101 1NNN NNNN NNNN	5
000F52	D805	RCALL ISRHANDLER
	K	 0000 0001 00KK KKKK	57
000000	0139	BANKSEL PIR0
	F	 1001 BBBA FFFF FFFF	14752
	B	 1001 BBBA 1010 0000	7
	A	 1001 111A 1010 0000	1
000F56	9FA0	BCF PIR0,IOCIF,BANKED
	N	 1101 0NNN NNNN NNNN	0
000F58	D000	BRA INTERRUPTDONE
		NOTIOCIF
		INTERRUPTDONE
	S	 0000 0000 0001 000S	1
000F5A	0011	RETFIE 1
	K	 0000 0001 00KK KKKK	0
000000	0100	BANKSEL 0


		ISRHANDLER
	K	 0000 0001 00KK KKKK	58
000000	013A	BANKSEL IOCBF
	F	 1010 BBBA FFFF FFFF	14935
	B	 1010 BBBA 0101 0111	0
	A	 1010 000A 0101 0111	1
000F60	A157	BTFSS IOCBF,IOCBF0,BANKED
	N	 1101 0NNN NNNN NNNN	8
000F62	D008	BRA ENDIF5
	K	 0000 0001 00KK KKKK	0
000000	0100	BANKSEL SYSBITVAR0
	F	 1000 BBBA FFFF FFFF	100
	B	 1000 BBBA 0110 0100	0
	A	 1000 000A 0110 0100	1
000F66	8164	BSF SYSBITVAR0,0,BANKED
	K	 0000 0001 00KK KKKK	58
000000	013A	BANKSEL IOCBF
	F	 1001 BBBA FFFF FFFF	14935
	B	 1001 BBBA 0101 0111	0
	A	 1001 000A 0101 0111	1
000F6A	9157	BCF IOCBF,IOCBF0,BANKED
	K	 0000 1110 KKKK KKKK	46
000F6C	0E2E	MOVLW 46
	K	 0000 0001 00KK KKKK	0
000000	0100	BANKSEL SERDATA
	F	 0110 111A FFFF FFFF	98
	A	 0110 111A 0110 0010	1
000F70	6F62	MOVWF SERDATA,BANKED
	N	 1101 1NNN NNNN NNNN	1748
000F72	DED4	RCALL HSERSEND470
		ENDIF5
	K	 0000 0001 00KK KKKK	58
000000	013A	BANKSEL IOCBF
	F	 1010 BBBA FFFF FFFF	14935
	B	 1010 BBBA 0101 0111	1
	A	 1010 001A 0101 0111	1
000F76	A357	BTFSS IOCBF,IOCBF1,BANKED
	N	 1101 0NNN NNNN NNNN	14
000F78	D00E	BRA ENDIF6
	K	 0000 0001 00KK KKKK	0
000000	0100	BANKSEL UPDATEGLCDEVENT
	F	 0010 10DA FFFF FFFF	131
	D	 0010 10DA 1000 0011	1
	A	 0010 101A 1000 0011	1
000F7C	2B83	INCF UPDATEGLCDEVENT,F,BANKED
	F	 1011 BBBA FFFF FFFF	16344
	B	 1011 BBBA 1101 1000	2
	A	 1011 010A 1101 1000	0
000F7E	B4D8	BTFSC STATUS,Z,ACCESS
	F	 0010 10DA FFFF FFFF	132
	D	 0010 10DA 1000 0100	1
	A	 0010 101A 1000 0100	1
000F80	2B84	INCF UPDATEGLCDEVENT_H,F,BANKED
	F	 1011 BBBA FFFF FFFF	16344
	B	 1011 BBBA 1101 1000	2
	A	 1011 010A 1101 1000	0
000F82	B4D8	BTFSC STATUS,Z,ACCESS
	F	 0010 10DA FFFF FFFF	133
	D	 0010 10DA 1000 0101	1
	A	 0010 101A 1000 0101	1
000F84	2B85	INCF UPDATEGLCDEVENT_U,F,BANKED
	F	 1011 BBBA FFFF FFFF	16344
	B	 1011 BBBA 1101 1000	2
	A	 1011 010A 1101 1000	0
000F86	B4D8	BTFSC STATUS,Z,ACCESS
	F	 0010 10DA FFFF FFFF	134
	D	 0010 10DA 1000 0110	1
	A	 0010 101A 1000 0110	1
000F88	2B86	INCF UPDATEGLCDEVENT_E,F,BANKED
	K	 0000 0001 00KK KKKK	58
000000	013A	BANKSEL IOCBF
	F	 1001 BBBA FFFF FFFF	14935
	B	 1001 BBBA 0101 0111	1
	A	 1001 001A 0101 0111	1
000F8C	9357	BCF IOCBF,IOCBF1,BANKED
	K	 0000 1110 KKKK KKKK	33
000F8E	0E21	MOVLW 33
	K	 0000 0001 00KK KKKK	0
000000	0100	BANKSEL SERDATA
	F	 0110 111A FFFF FFFF	98
	A	 0110 111A 0110 0010	1
000F92	6F62	MOVWF SERDATA,BANKED
	N	 1101 1NNN NNNN NNNN	1731
000F94	DEC3	RCALL HSERSEND470
		ENDIF6
	K	 0000 0001 00KK KKKK	0
000000	0100	BANKSEL 0
	S	 0000 0000 0001 001S	0
000F98	0012	RETURN


		PSET_KS0108
	F	 1011 BBBA FFFF FFFF	69
	B	 1011 BBBA 0100 0101	6
	A	 1011 110A 0100 0101	0
000F9A	BC45	BTFSC GLCDX,6,ACCESS
	N	 1101 0NNN NNNN NNNN	2
000F9C	D002	BRA ENDIF31
	F	 1001 BBBA FFFF FFFF	16315
	B	 1001 BBBA 1011 1011	5
	A	 1001 101A 1011 1011	0
000F9E	9ABB	BCF LATB,5,ACCESS
	F	 1000 BBBA FFFF FFFF	16315
	B	 1000 BBBA 1011 1011	4
	A	 1000 100A 1011 1011	0
000FA0	88BB	BSF LATB,4,ACCESS
		ENDIF31
	F	 1010 BBBA FFFF FFFF	69
	B	 1010 BBBA 0100 0101	6
	A	 1010 110A 0100 0101	0
000FA2	AC45	BTFSS GLCDX,6,ACCESS
	N	 1101 0NNN NNNN NNNN	4
000FA4	D004	BRA ENDIF32
	F	 1001 BBBA FFFF FFFF	16315
	B	 1001 BBBA 1011 1011	4
	A	 1001 100A 1011 1011	0
000FA6	98BB	BCF LATB,4,ACCESS
	K	 0000 1110 KKKK KKKK	64
000FA8	0E40	MOVLW 64
	F	 0101 11DA FFFF FFFF	69
	D	 0101 11DA 0100 0101	1
	A	 0101 111A 0100 0101	0
000FAA	5E45	SUBWF GLCDX,F,ACCESS
	F	 1000 BBBA FFFF FFFF	16315
	B	 1000 BBBA 1011 1011	5
	A	 1000 101A 1011 1011	0
000FAC	8ABB	BSF LATB,5,ACCESS
		ENDIF32
	S	1111 DDDD DDDD DDDD:1100 SSSS SSSS SSSS	70
	D	1111 DDDD DDDD DDDD:1100 0000 0100 0110	5
000FAE	C046 F005	MOVFF GLCDY,SYSBYTETEMPA
	K	 0000 1110 KKKK KKKK	8
000FB2	0E08	MOVLW 8
	F	 0110 111A FFFF FFFF	9
	A	 0110 111A 0000 1001	0
000FB4	6E09	MOVWF SYSBYTETEMPB,ACCESS
	N	 1101 1NNN NNNN NNNN	94
000FB6	D85E	RCALL SYSDIVSUB
	S	1111 DDDD DDDD DDDD:1100 SSSS SSSS SSSS	5
	D	1111 DDDD DDDD DDDD:1100 0000 0000 0101	37
000FB8	C005 F025	MOVFF SYSBYTETEMPA,CURRPAGE
	F	 1001 BBBA FFFF FFFF	16315
	B	 1001 BBBA 1011 1011	3
	A	 1001 011A 1011 1011	0
000FBC	96BB	BCF LATB,3,ACCESS
	K	 0000 1110 KKKK KKKK	184
000FBE	0EB8	MOVLW 184
	F	 0001 00DA FFFF FFFF	37
	D	 0001 00DA 0010 0101	0
	A	 0001 000A 0010 0101	0
000FC0	1025	IORWF CURRPAGE,W,ACCESS
	F	 0110 111A FFFF FFFF	83
	A	 0110 111A 0101 0011	0
000FC2	6E53	MOVWF LCDBYTE,ACCESS
	N	 1101 1NNN NNNN NNNN	1636
000FC4	DE64	RCALL GLCDWRITEBYTE_KS0108
	F	 1001 BBBA FFFF FFFF	16315
	B	 1001 BBBA 1011 1011	3
	A	 1001 011A 1011 1011	0
000FC6	96BB	BCF LATB,3,ACCESS
	K	 0000 1110 KKKK KKKK	64
000FC8	0E40	MOVLW 64
	F	 0001 00DA FFFF FFFF	69
	D	 0001 00DA 0100 0101	0
	A	 0001 000A 0100 0101	0
000FCA	1045	IORWF GLCDX,W,ACCESS
	F	 0110 111A FFFF FFFF	83
	A	 0110 111A 0101 0011	0
000FCC	6E53	MOVWF LCDBYTE,ACCESS
	N	 1101 1NNN NNNN NNNN	1631
000FCE	DE5F	RCALL GLCDWRITEBYTE_KS0108
	F	 1000 BBBA FFFF FFFF	16315
	B	 1000 BBBA 1011 1011	3
	A	 1000 011A 1011 1011	0
000FD0	86BB	BSF LATB,3,ACCESS
	N	 1101 1NNN NNNN NNNN	1585
000FD2	DE31	RCALL FN_GLCDREADBYTE_KS0108
	S	1111 DDDD DDDD DDDD:1100 SSSS SSSS SSSS	68
	D	1111 DDDD DDDD DDDD:1100 0000 0100 0100	57
000FD4	C044 F039	MOVFF GLCDREADBYTE_KS0108,GLCDDATATEMPCACHE
	F	 1000 BBBA FFFF FFFF	16315
	B	 1000 BBBA 1011 1011	3
	A	 1000 011A 1011 1011	0
000FD8	86BB	BSF LATB,3,ACCESS
	N	 1101 1NNN NNNN NNNN	1581
000FDA	DE2D	RCALL FN_GLCDREADBYTE_KS0108
	S	1111 DDDD DDDD DDDD:1100 SSSS SSSS SSSS	68
	D	1111 DDDD DDDD DDDD:1100 0000 0100 0100	57
000FDC	C044 F039	MOVFF GLCDREADBYTE_KS0108,GLCDDATATEMPCACHE
	K	 0000 1110 KKKK KKKK	7
000FE0	0E07	MOVLW 7
	F	 0001 01DA FFFF FFFF	70
	D	 0001 01DA 0100 0110	0
	A	 0001 010A 0100 0110	0
000FE2	1446	ANDWF GLCDY,W,ACCESS
	F	 0110 111A FFFF FFFF	52
	A	 0110 111A 0011 0100	0
000FE4	6E34	MOVWF GLCDBITNO,ACCESS
	F	 1011 BBBA FFFF FFFF	54
	B	 1011 BBBA 0011 0110	0
	A	 1011 000A 0011 0110	0
000FE6	B036	BTFSC GLCDCOLOUR,0,ACCESS
	N	 1101 0NNN NNNN NNNN	4
000FE8	D004	BRA ELSE33_1
	K	 0000 1110 KKKK KKKK	254
000FEA	0EFE	MOVLW 254
	F	 0110 111A FFFF FFFF	53
	A	 0110 111A 0011 0101	0
000FEC	6E35	MOVWF GLCDCHANGE,ACCESS
	F	 1000 BBBA FFFF FFFF	16344
	B	 1000 BBBA 1101 1000	0
	A	 1000 000A 1101 1000	0
000FEE	80D8	BSF STATUS,C,ACCESS
	N	 1101 0NNN NNNN NNNN	3
000FF0	D003	BRA ENDIF33
		ELSE33_1
	K	 0000 1110 KKKK KKKK	1
000FF2	0E01	MOVLW 1
	F	 0110 111A FFFF FFFF	53
	A	 0110 111A 0011 0101	0
000FF4	6E35	MOVWF GLCDCHANGE,ACCESS
	F	 1001 BBBA FFFF FFFF	16344
	B	 1001 BBBA 1101 1000	0
	A	 1001 000A 1101 1000	0
000FF6	90D8	BCF STATUS,C,ACCESS
		ENDIF33
	S	1111 DDDD DDDD DDDD:1100 SSSS SSSS SSSS	52
	D	1111 DDDD DDDD DDDD:1100 0000 0011 0100	122
000FF8	C034 F07A	MOVFF GLCDBITNO,SYSREPEATTEMP1
	F	 0101 00DA FFFF FFFF	122
	D	 0101 00DA 0111 1010	1
	A	 0101 001A 0111 1010	1
000FFC	537A	MOVF SYSREPEATTEMP1,F,BANKED
	F	 1011 BBBA FFFF FFFF	16344
	B	 1011 BBBA 1101 1000	2
	A	 1011 010A 1101 1000	0
000FFE	B4D8	BTFSC STATUS, Z,ACCESS
	N	 1101 0NNN NNNN NNNN	3
001000	D003	BRA SYSREPEATLOOPEND1
		SYSREPEATLOOP1
	F	 0011 01DA FFFF FFFF	53
	D	 0011 01DA 0011 0101	1
	A	 0011 011A 0011 0101	0
001002	3635	RLCF GLCDCHANGE,F,ACCESS
	F	 0010 11DA FFFF FFFF	122
	D	 0010 11DA 0111 1010	1
	A	 0010 111A 0111 1010	1
001004	2F7A	DECFSZ SYSREPEATTEMP1,F,BANKED
	N	 1101 0NNN NNNN NNNN	2045
001006	D7FD	BRA SYSREPEATLOOP1
		SYSREPEATLOOPEND1
	F	 1011 BBBA FFFF FFFF	54
	B	 1011 BBBA 0011 0110	0
	A	 1011 000A 0011 0110	0
001008	B036	BTFSC GLCDCOLOUR,0,ACCESS
	N	 1101 0NNN NNNN NNNN	4
00100A	D004	BRA ELSE34_1
	F	 0101 00DA FFFF FFFF	57
	D	 0101 00DA 0011 1001	0
	A	 0101 000A 0011 1001	0
00100C	5039	MOVF GLCDDATATEMPCACHE,W,ACCESS
	F	 0001 01DA FFFF FFFF	53
	D	 0001 01DA 0011 0101	0
	A	 0001 010A 0011 0101	0
00100E	1435	ANDWF GLCDCHANGE,W,ACCESS
	F	 0110 111A FFFF FFFF	56
	A	 0110 111A 0011 1000	0
001010	6E38	MOVWF GLCDDATATEMP,ACCESS
	N	 1101 0NNN NNNN NNNN	3
001012	D003	BRA ENDIF34
		ELSE34_1
	F	 0101 00DA FFFF FFFF	57
	D	 0101 00DA 0011 1001	0
	A	 0101 000A 0011 1001	0
001014	5039	MOVF GLCDDATATEMPCACHE,W,ACCESS
	F	 0001 00DA FFFF FFFF	53
	D	 0001 00DA 0011 0101	0
	A	 0001 000A 0011 0101	0
001016	1035	IORWF GLCDCHANGE,W,ACCESS
	F	 0110 111A FFFF FFFF	56
	A	 0110 111A 0011 1000	0
001018	6E38	MOVWF GLCDDATATEMP,ACCESS
		ENDIF34
	F	 0101 00DA FFFF FFFF	56
	D	 0101 00DA 0011 1000	0
	A	 0101 000A 0011 1000	0
00101A	5038	MOVF GLCDDATATEMP,W,ACCESS
	F	 0101 11DA FFFF FFFF	57
	D	 0101 11DA 0011 1001	0
	A	 0101 110A 0011 1001	0
00101C	5C39	SUBWF GLCDDATATEMPCACHE,W,ACCESS
	F	 1011 BBBA FFFF FFFF	16344
	B	 1011 BBBA 1101 1000	2
	A	 1011 010A 1101 1000	0
00101E	B4D8	BTFSC STATUS, Z,ACCESS
	N	 1101 0NNN NNNN NNNN	9
001020	D009	BRA ENDIF35
	F	 1001 BBBA FFFF FFFF	16315
	B	 1001 BBBA 1011 1011	3
	A	 1001 011A 1011 1011	0
001022	96BB	BCF LATB,3,ACCESS
	K	 0000 1110 KKKK KKKK	64
001024	0E40	MOVLW 64
	F	 0001 00DA FFFF FFFF	69
	D	 0001 00DA 0100 0101	0
	A	 0001 000A 0100 0101	0
001026	1045	IORWF GLCDX,W,ACCESS
	F	 0110 111A FFFF FFFF	83
	A	 0110 111A 0101 0011	0
001028	6E53	MOVWF LCDBYTE,ACCESS
	N	 1101 1NNN NNNN NNNN	1585
00102A	DE31	RCALL GLCDWRITEBYTE_KS0108
	F	 1000 BBBA FFFF FFFF	16315
	B	 1000 BBBA 1011 1011	3
	A	 1000 011A 1011 1011	0
00102C	86BB	BSF LATB,3,ACCESS
	S	1111 DDDD DDDD DDDD:1100 SSSS SSSS SSSS	56
	D	1111 DDDD DDDD DDDD:1100 0000 0011 1000	83
00102E	C038 F053	MOVFF GLCDDATATEMP,LCDBYTE
	N	 1101 1NNN NNNN NNNN	1581
001032	DE2D	RCALL GLCDWRITEBYTE_KS0108
		ENDIF35
	F	 1000 BBBA FFFF FFFF	16315
	B	 1000 BBBA 1011 1011	4
	A	 1000 100A 1011 1011	0
001034	88BB	BSF LATB,4,ACCESS
	F	 1000 BBBA FFFF FFFF	16315
	B	 1000 BBBA 1011 1011	5
	A	 1000 101A 1011 1011	0
001036	8ABB	BSF LATB,5,ACCESS
	S	 0000 0000 0001 001S	0
001038	0012	RETURN


		SYSCOMPEQUAL16
	F	 0110 101A FFFF FFFF	0
	A	 0110 101A 0000 0000	0
00103A	6A00	CLRF SYSBYTETEMPX,ACCESS
	F	 0101 00DA FFFF FFFF	9
	D	 0101 00DA 0000 1001	0
	A	 0101 000A 0000 1001	0
00103C	5009	MOVF SYSWORDTEMPB, W,ACCESS
	F	 0110 001A FFFF FFFF	5
	A	 0110 001A 0000 0101	0
00103E	6205	CPFSEQ SYSWORDTEMPA,ACCESS
	S	 0000 0000 0001 001S	0
001040	0012	RETURN
	F	 0101 00DA FFFF FFFF	10
	D	 0101 00DA 0000 1010	0
	A	 0101 000A 0000 1010	0
001042	500A	MOVF SYSWORDTEMPB_H, W,ACCESS
	F	 0110 001A FFFF FFFF	6
	A	 0110 001A 0000 0110	0
001044	6206	CPFSEQ SYSWORDTEMPA_H,ACCESS
	S	 0000 0000 0001 001S	0
001046	0012	RETURN
	F	 0110 100A FFFF FFFF	0
	A	 0110 100A 0000 0000	0
001048	6800	SETF SYSBYTETEMPX,ACCESS
	S	 0000 0000 0001 001S	0
00104A	0012	RETURN


		SYSCOMPEQUAL32
	F	 0110 101A FFFF FFFF	0
	A	 0110 101A 0000 0000	0
00104C	6A00	CLRF SYSBYTETEMPX,ACCESS
	F	 0101 00DA FFFF FFFF	9
	D	 0101 00DA 0000 1001	0
	A	 0101 000A 0000 1001	0
00104E	5009	MOVF SYSLONGTEMPB, W,ACCESS
	F	 0110 001A FFFF FFFF	5
	A	 0110 001A 0000 0101	0
001050	6205	CPFSEQ SYSLONGTEMPA,ACCESS
	S	 0000 0000 0001 001S	0
001052	0012	RETURN
	F	 0101 00DA FFFF FFFF	10
	D	 0101 00DA 0000 1010	0
	A	 0101 000A 0000 1010	0
001054	500A	MOVF SYSLONGTEMPB_H, W,ACCESS
	F	 0110 001A FFFF FFFF	6
	A	 0110 001A 0000 0110	0
001056	6206	CPFSEQ SYSLONGTEMPA_H,ACCESS
	S	 0000 0000 0001 001S	0
001058	0012	RETURN
	F	 0101 00DA FFFF FFFF	11
	D	 0101 00DA 0000 1011	0
	A	 0101 000A 0000 1011	0
00105A	500B	MOVF SYSLONGTEMPB_U, W,ACCESS
	F	 0110 001A FFFF FFFF	7
	A	 0110 001A 0000 0111	0
00105C	6207	CPFSEQ SYSLONGTEMPA_U,ACCESS
	S	 0000 0000 0001 001S	0
00105E	0012	RETURN
	F	 0101 00DA FFFF FFFF	12
	D	 0101 00DA 0000 1100	0
	A	 0101 000A 0000 1100	0
001060	500C	MOVF SYSLONGTEMPB_E, W,ACCESS
	F	 0110 001A FFFF FFFF	8
	A	 0110 001A 0000 1000	0
001062	6208	CPFSEQ SYSLONGTEMPA_E,ACCESS
	S	 0000 0000 0001 001S	0
001064	0012	RETURN
	F	 0110 100A FFFF FFFF	0
	A	 0110 100A 0000 0000	0
001066	6800	SETF SYSBYTETEMPX,ACCESS
	S	 0000 0000 0001 001S	0
001068	0012	RETURN


		SYSCOMPLESSTHAN
	F	 0110 100A FFFF FFFF	0
	A	 0110 100A 0000 0000	0
00106A	6800	SETF SYSBYTETEMPX,ACCESS
	F	 0101 00DA FFFF FFFF	9
	D	 0101 00DA 0000 1001	0
	A	 0101 000A 0000 1001	0
00106C	5009	MOVF SYSBYTETEMPB, W,ACCESS
	F	 0110 000A FFFF FFFF	5
	A	 0110 000A 0000 0101	0
00106E	6005	CPFSLT SYSBYTETEMPA,ACCESS
	F	 0110 101A FFFF FFFF	0
	A	 0110 101A 0000 0000	0
001070	6A00	CLRF SYSBYTETEMPX,ACCESS
	S	 0000 0000 0001 001S	0
001072	0012	RETURN


		SYSDIVSUB
	F	 0101 00DA FFFF FFFF	9
	D	 0101 00DA 0000 1001	1
	A	 0101 001A 0000 1001	0
001074	5209	MOVF SYSBYTETEMPB, F,ACCESS
	F	 1011 BBBA FFFF FFFF	16344
	B	 1011 BBBA 1101 1000	2
	A	 1011 010A 1101 1000	0
001076	B4D8	BTFSC STATUS, Z,ACCESS
	S	 0000 0000 0001 001S	0
001078	0012	RETURN
	F	 0110 101A FFFF FFFF	0
	A	 0110 101A 0000 0000	0
00107A	6A00	CLRF SYSBYTETEMPX,ACCESS
	K	 0000 1110 KKKK KKKK	8
00107C	0E08	MOVLW 8
	F	 0110 111A FFFF FFFF	4
	A	 0110 111A 0000 0100	0
00107E	6E04	MOVWF SYSDIVLOOP,ACCESS
		SYSDIV8START
	F	 1001 BBBA FFFF FFFF	16344
	B	 1001 BBBA 1101 1000	0
	A	 1001 000A 1101 1000	0
001080	90D8	BCF STATUS, C,ACCESS
	F	 0011 01DA FFFF FFFF	5
	D	 0011 01DA 0000 0101	1
	A	 0011 011A 0000 0101	0
001082	3605	RLCF SYSBYTETEMPA, F,ACCESS
	F	 0011 01DA FFFF FFFF	0
	D	 0011 01DA 0000 0000	1
	A	 0011 011A 0000 0000	0
001084	3600	RLCF SYSBYTETEMPX, F,ACCESS
	F	 0101 00DA FFFF FFFF	9
	D	 0101 00DA 0000 1001	0
	A	 0101 000A 0000 1001	0
001086	5009	MOVF SYSBYTETEMPB, W,ACCESS
	F	 0101 11DA FFFF FFFF	0
	D	 0101 11DA 0000 0000	1
	A	 0101 111A 0000 0000	0
001088	5E00	SUBWF SYSBYTETEMPX, F,ACCESS
	F	 1000 BBBA FFFF FFFF	5
	B	 1000 BBBA 0000 0101	0
	A	 1000 000A 0000 0101	0
00108A	8005	BSF SYSBYTETEMPA, 0,ACCESS
	F	 1011 BBBA FFFF FFFF	16344
	B	 1011 BBBA 1101 1000	0
	A	 1011 000A 1101 1000	0
00108C	B0D8	BTFSC STATUS, C,ACCESS
	N	 1101 0NNN NNNN NNNN	3
00108E	D003	BRA DIV8NOTNEG
	F	 1001 BBBA FFFF FFFF	5
	B	 1001 BBBA 0000 0101	0
	A	 1001 000A 0000 0101	0
001090	9005	BCF SYSBYTETEMPA, 0,ACCESS
	F	 0101 00DA FFFF FFFF	9
	D	 0101 00DA 0000 1001	0
	A	 0101 000A 0000 1001	0
001092	5009	MOVF SYSBYTETEMPB, W,ACCESS
	F	 0010 01DA FFFF FFFF	0
	D	 0010 01DA 0000 0000	1
	A	 0010 011A 0000 0000	0
001094	2600	ADDWF SYSBYTETEMPX, F,ACCESS
		DIV8NOTNEG
	F	 0010 11DA FFFF FFFF	4
	D	 0010 11DA 0000 0100	1
	A	 0010 111A 0000 0100	0
001096	2E04	DECFSZ SYSDIVLOOP, F,ACCESS
	N	 1101 0NNN NNNN NNNN	2035
001098	D7F3	BRA SYSDIV8START
	S	 0000 0000 0001 001S	0
00109A	0012	RETURN


		SYSDIVSUB32
	S	1111 DDDD DDDD DDDD:1100 SSSS SSSS SSSS	5
	D	1111 DDDD DDDD DDDD:1100 0000 0000 0101	106
00109C	C005 F06A	MOVFF SYSLONGTEMPA,SYSLONGDIVMULTA
	S	1111 DDDD DDDD DDDD:1100 SSSS SSSS SSSS	6
	D	1111 DDDD DDDD DDDD:1100 0000 0000 0110	107
0010A0	C006 F06B	MOVFF SYSLONGTEMPA_H,SYSLONGDIVMULTA_H
	S	1111 DDDD DDDD DDDD:1100 SSSS SSSS SSSS	7
	D	1111 DDDD DDDD DDDD:1100 0000 0000 0111	108
0010A4	C007 F06C	MOVFF SYSLONGTEMPA_U,SYSLONGDIVMULTA_U
	S	1111 DDDD DDDD DDDD:1100 SSSS SSSS SSSS	8
	D	1111 DDDD DDDD DDDD:1100 0000 0000 1000	109
0010A8	C008 F06D	MOVFF SYSLONGTEMPA_E,SYSLONGDIVMULTA_E
	S	1111 DDDD DDDD DDDD:1100 SSSS SSSS SSSS	9
	D	1111 DDDD DDDD DDDD:1100 0000 0000 1001	110
0010AC	C009 F06E	MOVFF SYSLONGTEMPB,SYSLONGDIVMULTB
	S	1111 DDDD DDDD DDDD:1100 SSSS SSSS SSSS	10
	D	1111 DDDD DDDD DDDD:1100 0000 0000 1010	111
0010B0	C00A F06F	MOVFF SYSLONGTEMPB_H,SYSLONGDIVMULTB_H
	S	1111 DDDD DDDD DDDD:1100 SSSS SSSS SSSS	11
	D	1111 DDDD DDDD DDDD:1100 0000 0000 1011	112
0010B4	C00B F070	MOVFF SYSLONGTEMPB_U,SYSLONGDIVMULTB_U
	S	1111 DDDD DDDD DDDD:1100 SSSS SSSS SSSS	12
	D	1111 DDDD DDDD DDDD:1100 0000 0000 1100	113
0010B8	C00C F071	MOVFF SYSLONGTEMPB_E,SYSLONGDIVMULTB_E
	F	 0110 101A FFFF FFFF	114
	A	 0110 101A 0111 0010	1
0010BC	6B72	CLRF SYSLONGDIVMULTX,BANKED
	F	 0110 101A FFFF FFFF	115
	A	 0110 101A 0111 0011	1
0010BE	6B73	CLRF SYSLONGDIVMULTX_H,BANKED
	F	 0110 101A FFFF FFFF	116
	A	 0110 101A 0111 0100	1
0010C0	6B74	CLRF SYSLONGDIVMULTX_U,BANKED
	F	 0110 101A FFFF FFFF	117
	A	 0110 101A 0111 0101	1
0010C2	6B75	CLRF SYSLONGDIVMULTX_E,BANKED
	S	1111 DDDD DDDD DDDD:1100 SSSS SSSS SSSS	110
	D	1111 DDDD DDDD DDDD:1100 0000 0110 1110	5
0010C4	C06E F005	MOVFF SYSLONGDIVMULTB,SYSLONGTEMPA
	S	1111 DDDD DDDD DDDD:1100 SSSS SSSS SSSS	111
	D	1111 DDDD DDDD DDDD:1100 0000 0110 1111	6
0010C8	C06F F006	MOVFF SYSLONGDIVMULTB_H,SYSLONGTEMPA_H
	S	1111 DDDD DDDD DDDD:1100 SSSS SSSS SSSS	112
	D	1111 DDDD DDDD DDDD:1100 0000 0111 0000	7
0010CC	C070 F007	MOVFF SYSLONGDIVMULTB_U,SYSLONGTEMPA_U
	S	1111 DDDD DDDD DDDD:1100 SSSS SSSS SSSS	113
	D	1111 DDDD DDDD DDDD:1100 0000 0111 0001	8
0010D0	C071 F008	MOVFF SYSLONGDIVMULTB_E,SYSLONGTEMPA_E
	F	 0110 101A FFFF FFFF	9
	A	 0110 101A 0000 1001	0
0010D4	6A09	CLRF SYSLONGTEMPB,ACCESS
	F	 0110 101A FFFF FFFF	10
	A	 0110 101A 0000 1010	0
0010D6	6A0A	CLRF SYSLONGTEMPB_H,ACCESS
	F	 0110 101A FFFF FFFF	11
	A	 0110 101A 0000 1011	0
0010D8	6A0B	CLRF SYSLONGTEMPB_U,ACCESS
	F	 0110 101A FFFF FFFF	12
	A	 0110 101A 0000 1100	0
0010DA	6A0C	CLRF SYSLONGTEMPB_E,ACCESS
	N	 1101 1NNN NNNN NNNN	1975
0010DC	DFB7	RCALL SYSCOMPEQUAL32
	F	 1010 BBBA FFFF FFFF	0
	B	 1010 BBBA 0000 0000	0
	A	 1010 000A 0000 0000	0
0010DE	A000	BTFSS SYSBYTETEMPX,0,ACCESS
	N	 1101 0NNN NNNN NNNN	5
0010E0	D005	BRA ENDIF49
	F	 0110 101A FFFF FFFF	5
	A	 0110 101A 0000 0101	0
0010E2	6A05	CLRF SYSLONGTEMPA,ACCESS
	F	 0110 101A FFFF FFFF	6
	A	 0110 101A 0000 0110	0
0010E4	6A06	CLRF SYSLONGTEMPA_H,ACCESS
	F	 0110 101A FFFF FFFF	7
	A	 0110 101A 0000 0111	0
0010E6	6A07	CLRF SYSLONGTEMPA_U,ACCESS
	F	 0110 101A FFFF FFFF	8
	A	 0110 101A 0000 1000	0
0010E8	6A08	CLRF SYSLONGTEMPA_E,ACCESS
	S	 0000 0000 0001 001S	0
0010EA	0012	RETURN
		ENDIF49
	K	 0000 1110 KKKK KKKK	32
0010EC	0E20	MOVLW 32
	F	 0110 111A FFFF FFFF	4
	A	 0110 111A 0000 0100	0
0010EE	6E04	MOVWF SYSDIVLOOP,ACCESS
		SYSDIV32START
	F	 1001 BBBA FFFF FFFF	16344
	B	 1001 BBBA 1101 1000	0
	A	 1001 000A 1101 1000	0
0010F0	90D8	BCF STATUS,C,ACCESS
	F	 0011 01DA FFFF FFFF	106
	D	 0011 01DA 0110 1010	1
	A	 0011 011A 0110 1010	1
0010F2	376A	RLCF SYSLONGDIVMULTA,F,BANKED
	F	 0011 01DA FFFF FFFF	107
	D	 0011 01DA 0110 1011	1
	A	 0011 011A 0110 1011	1
0010F4	376B	RLCF SYSLONGDIVMULTA_H,F,BANKED
	F	 0011 01DA FFFF FFFF	108
	D	 0011 01DA 0110 1100	1
	A	 0011 011A 0110 1100	1
0010F6	376C	RLCF SYSLONGDIVMULTA_U,F,BANKED
	F	 0011 01DA FFFF FFFF	109
	D	 0011 01DA 0110 1101	1
	A	 0011 011A 0110 1101	1
0010F8	376D	RLCF SYSLONGDIVMULTA_E,F,BANKED
	F	 0011 01DA FFFF FFFF	114
	D	 0011 01DA 0111 0010	1
	A	 0011 011A 0111 0010	1
0010FA	3772	RLCF SYSLONGDIVMULTX,F,BANKED
	F	 0011 01DA FFFF FFFF	115
	D	 0011 01DA 0111 0011	1
	A	 0011 011A 0111 0011	1
0010FC	3773	RLCF SYSLONGDIVMULTX_H,F,BANKED
	F	 0011 01DA FFFF FFFF	116
	D	 0011 01DA 0111 0100	1
	A	 0011 011A 0111 0100	1
0010FE	3774	RLCF SYSLONGDIVMULTX_U,F,BANKED
	F	 0011 01DA FFFF FFFF	117
	D	 0011 01DA 0111 0101	1
	A	 0011 011A 0111 0101	1
001100	3775	RLCF SYSLONGDIVMULTX_E,F,BANKED
	F	 0101 00DA FFFF FFFF	110
	D	 0101 00DA 0110 1110	0
	A	 0101 000A 0110 1110	1
001102	516E	MOVF SYSLONGDIVMULTB,W,BANKED
	F	 0101 11DA FFFF FFFF	114
	D	 0101 11DA 0111 0010	1
	A	 0101 111A 0111 0010	1
001104	5F72	SUBWF SYSLONGDIVMULTX,F,BANKED
	F	 0101 00DA FFFF FFFF	111
	D	 0101 00DA 0110 1111	0
	A	 0101 000A 0110 1111	1
001106	516F	MOVF SYSLONGDIVMULTB_H,W,BANKED
	F	 0101 10DA FFFF FFFF	115
	D	 0101 10DA 0111 0011	1
	A	 0101 101A 0111 0011	1
001108	5B73	SUBWFB SYSLONGDIVMULTX_H,F,BANKED
	F	 0101 00DA FFFF FFFF	112
	D	 0101 00DA 0111 0000	0
	A	 0101 000A 0111 0000	1
00110A	5170	MOVF SYSLONGDIVMULTB_U,W,BANKED
	F	 0101 10DA FFFF FFFF	116
	D	 0101 10DA 0111 0100	1
	A	 0101 101A 0111 0100	1
00110C	5B74	SUBWFB SYSLONGDIVMULTX_U,F,BANKED
	F	 0101 00DA FFFF FFFF	113
	D	 0101 00DA 0111 0001	0
	A	 0101 000A 0111 0001	1
00110E	5171	MOVF SYSLONGDIVMULTB_E,W,BANKED
	F	 0101 10DA FFFF FFFF	117
	D	 0101 10DA 0111 0101	1
	A	 0101 101A 0111 0101	1
001110	5B75	SUBWFB SYSLONGDIVMULTX_E,F,BANKED
	F	 1000 BBBA FFFF FFFF	106
	B	 1000 BBBA 0110 1010	0
	A	 1000 000A 0110 1010	1
001112	816A	BSF SYSLONGDIVMULTA,0,BANKED
	F	 1011 BBBA FFFF FFFF	16344
	B	 1011 BBBA 1101 1000	0
	A	 1011 000A 1101 1000	0
001114	B0D8	BTFSC STATUS,C,ACCESS
	N	 1101 0NNN NNNN NNNN	9
001116	D009	BRA ENDIF50
	F	 1001 BBBA FFFF FFFF	106
	B	 1001 BBBA 0110 1010	0
	A	 1001 000A 0110 1010	1
001118	916A	BCF SYSLONGDIVMULTA,0,BANKED
	F	 0101 00DA FFFF FFFF	110
	D	 0101 00DA 0110 1110	0
	A	 0101 000A 0110 1110	1
00111A	516E	MOVF SYSLONGDIVMULTB,W,BANKED
	F	 0010 01DA FFFF FFFF	114
	D	 0010 01DA 0111 0010	1
	A	 0010 011A 0111 0010	1
00111C	2772	ADDWF SYSLONGDIVMULTX,F,BANKED
	F	 0101 00DA FFFF FFFF	111
	D	 0101 00DA 0110 1111	0
	A	 0101 000A 0110 1111	1
00111E	516F	MOVF SYSLONGDIVMULTB_H,W,BANKED
	F	 0010 00DA FFFF FFFF	115
	D	 0010 00DA 0111 0011	1
	A	 0010 001A 0111 0011	1
001120	2373	ADDWFC SYSLONGDIVMULTX_H,F,BANKED
	F	 0101 00DA FFFF FFFF	112
	D	 0101 00DA 0111 0000	0
	A	 0101 000A 0111 0000	1
001122	5170	MOVF SYSLONGDIVMULTB_U,W,BANKED
	F	 0010 00DA FFFF FFFF	116
	D	 0010 00DA 0111 0100	1
	A	 0010 001A 0111 0100	1
001124	2374	ADDWFC SYSLONGDIVMULTX_U,F,BANKED
	F	 0101 00DA FFFF FFFF	113
	D	 0101 00DA 0111 0001	0
	A	 0101 000A 0111 0001	1
001126	5171	MOVF SYSLONGDIVMULTB_E,W,BANKED
	F	 0010 00DA FFFF FFFF	117
	D	 0010 00DA 0111 0101	1
	A	 0010 001A 0111 0101	1
001128	2375	ADDWFC SYSLONGDIVMULTX_E,F,BANKED
		ENDIF50
	F	 0010 11DA FFFF FFFF	4
	D	 0010 11DA 0000 0100	1
	A	 0010 111A 0000 0100	0
00112A	2E04	DECFSZ SYSDIVLOOP, F,ACCESS
	N	 1101 0NNN NNNN NNNN	2017
00112C	D7E1	BRA SYSDIV32START
	S	1111 DDDD DDDD DDDD:1100 SSSS SSSS SSSS	106
	D	1111 DDDD DDDD DDDD:1100 0000 0110 1010	5
00112E	C06A F005	MOVFF SYSLONGDIVMULTA,SYSLONGTEMPA
	S	1111 DDDD DDDD DDDD:1100 SSSS SSSS SSSS	107
	D	1111 DDDD DDDD DDDD:1100 0000 0110 1011	6
001132	C06B F006	MOVFF SYSLONGDIVMULTA_H,SYSLONGTEMPA_H
	S	1111 DDDD DDDD DDDD:1100 SSSS SSSS SSSS	108
	D	1111 DDDD DDDD DDDD:1100 0000 0110 1100	7
001136	C06C F007	MOVFF SYSLONGDIVMULTA_U,SYSLONGTEMPA_U
	S	1111 DDDD DDDD DDDD:1100 SSSS SSSS SSSS	109
	D	1111 DDDD DDDD DDDD:1100 0000 0110 1101	8
00113A	C06D F008	MOVFF SYSLONGDIVMULTA_E,SYSLONGTEMPA_E
	S	1111 DDDD DDDD DDDD:1100 SSSS SSSS SSSS	114
	D	1111 DDDD DDDD DDDD:1100 0000 0111 0010	0
00113E	C072 F000	MOVFF SYSLONGDIVMULTX,SYSLONGTEMPX
	S	1111 DDDD DDDD DDDD:1100 SSSS SSSS SSSS	115
	D	1111 DDDD DDDD DDDD:1100 0000 0111 0011	1
001142	C073 F001	MOVFF SYSLONGDIVMULTX_H,SYSLONGTEMPX_H
	S	1111 DDDD DDDD DDDD:1100 SSSS SSSS SSSS	116
	D	1111 DDDD DDDD DDDD:1100 0000 0111 0100	2
001146	C074 F002	MOVFF SYSLONGDIVMULTX_U,SYSLONGTEMPX_U
	S	1111 DDDD DDDD DDDD:1100 SSSS SSSS SSSS	117
	D	1111 DDDD DDDD DDDD:1100 0000 0111 0101	3
00114A	C075 F003	MOVFF SYSLONGDIVMULTX_E,SYSLONGTEMPX_E
	S	 0000 0000 0001 001S	0
00114E	0012	RETURN


		SYSREADSTRING
001150	0009	TBLRD*+
	S	0000 0000 0110 SSSS:1111 SSSS SSSS SSDD:1111 DDDD DDDD DDDD	16373
	D	0000 0000 0110 1111:1111 1111 1101 01DD:1111 DDDD DDDD DDDD	5
001152	006F FFD4 F005	MOVFFL TABLAT,SYSCALCTEMPA
	S	0000 0000 0110 SSSS:1111 SSSS SSSS SSDD:1111 DDDD DDDD DDDD	16373
	D	0000 0000 0110 1111:1111 1111 1101 01DD:1111 DDDD DDDD DDDD	16359
001158	006F FFD7 FFE7	MOVFFL TABLAT,INDF1
	N	 1101 0NNN NNNN NNNN	4
00115E	D004	BRA SYSSTRINGREADCHECK
		SYSREADSTRINGPART
001160	0009	TBLRD*+
	F	 0101 00DA FFFF FFFF	16373
	D	 0101 00DA 1111 0101	0
	A	 0101 000A 1111 0101	0
001162	50F5	MOVF TABLAT, W,ACCESS
	F	 0110 111A FFFF FFFF	5
	A	 0110 111A 0000 0101	0
001164	6E05	MOVWF SYSCALCTEMPA,ACCESS
	F	 0010 01DA FFFF FFFF	6
	D	 0010 01DA 0000 0110	1
	A	 0010 011A 0000 0110	0
001166	2606	ADDWF SYSSTRINGLENGTH,F,ACCESS
		SYSSTRINGREADCHECK
	F	 0101 00DA FFFF FFFF	5
	D	 0101 00DA 0000 0101	1
	A	 0101 001A 0000 0101	0
001168	5205	MOVF SYSCALCTEMPA,F,ACCESS
	F	 1011 BBBA FFFF FFFF	16344
	B	 1011 BBBA 1101 1000	2
	A	 1011 010A 1101 1000	0
00116A	B4D8	BTFSC STATUS,Z,ACCESS
	S	 0000 0000 0001 001S	0
00116C	0012	RETURN
		SYSSTRINGREAD
00116E	0009	TBLRD*+
	S	0000 0000 0110 SSSS:1111 SSSS SSSS SSDD:1111 DDDD DDDD DDDD	16373
	D	0000 0000 0110 1111:1111 1111 1101 01DD:1111 DDDD DDDD DDDD	16356
001170	006F FFD7 FFE4	MOVFFL TABLAT,PREINC1
	F	 0010 11DA FFFF FFFF	5
	D	 0010 11DA 0000 0101	1
	A	 0010 111A 0000 0101	0
001176	2E05	DECFSZ SYSCALCTEMPA, F,ACCESS
	N	 1101 0NNN NNNN NNNN	2042
001178	D7FA	BRA SYSSTRINGREAD
	S	 0000 0000 0001 001S	0
00117A	0012	RETURN


		SYSSTRINGTABLES

		STRINGTABLE1
00117C	4411 3153 3033 2037 6E49 7073 6365 6974 6E6F	RAW 4411,3153,3033,2037,6E49,7073,6365,6974,6E6F


		STRINGTABLE2
00118E	4E09 206F 5344 3331 3730	RAW 4E09,206F,5344,3331,3730


		STRINGTABLE3
001198	5307 6F74 7070 6465	RAW 5307,6F74,7070,6465


		STRINGTABLE4
0011A0	4C06 616F 6564 0064	RAW 4C06,616F,6564,0064


		STRINGTABLE5
0011A8	6208 7469 3020 3A20 0020	RAW 6208,7469,3020,3A20,0020


		STRINGTABLE6
0011B2	6208 7469 3120 3A20 0020	RAW 6208,7469,3120,3A20,0020


		STRINGTABLE7
0011BC	6208 7469 3320 3A20 0020	RAW 6208,7469,3320,3A20,0020


		STRINGTABLE8
0011C6	6208 7469 3420 3A20 0020	RAW 6208,7469,3420,3A20,0020


		STRINGTABLE9
0011D0	2E01	RAW 2E01


		STRINGTABLE10
0011D2	2101	RAW 2101



