

Microchip MPLAB XC8 Assembler V2.46 build 20240104201356 
D:\GreatCowBASICGits\Demonstration_Sources.git\Vendor_Boards\Great_Cow_Basic_Demo_Board\18Fx6q20_ChipRange_Demonstrations\190_i2c_glcd_using_ssd1306_128_6 Sat Feb 17 18:49:13 2024

02-17-2024
     1                           	processor	18F16Q20
     2                           	pagewidth 180
     3                           	psect	udata_acs,global,class=COMRAM,space=1,delta=1,lowdata,noexec
     4                           	psect	udata_bank5,global,class=BANK5,space=1,delta=1,lowdata,noexec
     5                           	psect	udata_bank6,global,class=BANK6,space=1,delta=1,lowdata,noexec
     6                           	psect	udata_bank7,global,class=BANK7,space=1,delta=1,lowdata,noexec
     7                           	psect	udata_bank8,global,class=BANK8,space=1,delta=1,lowdata,noexec
     8                           	psect	udata_bank9,global,class=BANK9,space=1,delta=1,lowdata,noexec
     9                           	psect	udata_bank10,global,class=BANK10,space=1,delta=1,lowdata,noexec
    10                           	psect	udata_bank11,global,class=BANK11,space=1,delta=1,lowdata,noexec
    11                           	psect	udata_bank12,global,class=BANK12,space=1,delta=1,lowdata,noexec
    12                           	psect	udata_bank13,global,class=BANK13,space=1,delta=1,lowdata,noexec
    13                           	psect	udata_bank14,global,class=BANK14,space=1,delta=1,lowdata,noexec
    14                           	psect	udata_bank15,global,class=BANK15,space=1,delta=1,lowdata,noexec
    15                           	psect	udata_bank16,global,class=BANK16,space=1,delta=1,noexec
    16                           	psect	udata_bank17,global,class=BANK17,space=1,delta=1,noexec
    17                           	psect	udata_bank18,global,class=BANK18,space=1,delta=1,noexec
    18                           	psect	udata_bank19,global,class=BANK19,space=1,delta=1,noexec
    19                           	psect	udata_bank20,global,class=BANK20,space=1,delta=1,noexec
    20                           	psect	udata,global,class=RAM,space=1,delta=1,noexec
    21                           	psect	code,global,reloc=2,class=CODE,delta=1
    22                           	psect	data,global,reloc=2,class=CONST,delta=1,noexec
    23                           	psect	edata,global,class=EEDATA,space=3,delta=1,noexec
    24                           	psect	RESETVEC,global,abs,delta=1
    25                           	psect	config,global,abs,ovrld,class=CONFIG,space=4,delta=1,noexec
    26                           
    27                           ;'Program compiled by GCBASIC (2024.2.16 (Windows 64 bit) : Build 1337) for Microchip PIC-AS using FreeBASIC 1.07.1/2024-02-15 CRC247
    28                           ;'  See the GCBASIC forums at http://sourceforge.net/projects/gcbasic/forums,
    29                           ;'  Check the documentation and Help at http://gcbasic.sourceforge.net/help/,
    30                           ;'or, email:
    31                           ;'   evanvennn at users dot sourceforge dot net
    32                           ;'********************************************************************************
    33                           ;'Set up the assembler options (Chip type, clock source, other bits and pieces)
    34                           ;'PROCESSOR   18F16Q20
    35   000000                     
    36                           ;' Reverse lookup file(s)
    37                           ;' C:\Program Files\Microchip\xc8\v2.46\pic\include\proc\pic18f16q20.inc
    38                           ;' C:\Program Files\Microchip\xc8\v2.46\pic\dat\cfgmap\18f16q20.cfgmap
    39                           ;' Alternative CONFIG file is to be found at C:\Program Files\Microchip\xc8\vX.YY\pic\dat\cfgdata as per Microchip support ticket #00730936 
    40                           ;'********************************************************************************
    41                           ;'Explicit PIC-AS constants to resolve the crazyness of the PIC-AS syntax
    42                           ;'These are therefore the same as MPASM
    43                           ;'********************************************************************************
    44                           ;'Explicit CONFIG
    45                           ;'Inferred CONFIG
    46                           ;'********************************************************************************
    47                           ;' The XC8 xc.inc include file.  This MUST be placed after the CONFIG statements.
    48   000000                     
    49                           	psect	edata
    50   000000                     stk_offset	set	0
    51   000000                     auto_size	set	0
    52                           
    53                           ; stack_auto defines a symbol /name/_offset which equates to the
    54                           ; stack offset of the auto object in question
    55   000000                     
    56                           ; stack_param defines a symbol /name/_offset which equates to the
    57                           ; stack offset of the parameter object in question
    58   000000                     
    59                           ; alloc_stack adjusts the SP to allocate space for auto objects
    60                           ; it also links in to the btemp symbol so that can be used
    61   000000                     
    62                           ; restore_stack adjusts the SP to remove all auto and parameter
    63                           ; objects from the stack prior to returning from a function
    64   000000                     
    65                           ;'********************************************************************************
    66                           ;'Set aside RAM memory locations for variables. All variables are global.
    67   000000                     
    68                           ;'********************************************************************************
    69                           ;'ALIAS VARIABLES
    70   000000                     
    71                           ;'********************************************************************************
    72                           
    73                           	psect	RESETVEC
    74   000000                     RESETVEC:
    75                           
    76                           ;'VECTORS
    77   000000                     	org	0
    78   000000  EF06  F000         	goto	BASPROGRAMSTART
    79   000008                     	org	8
    80   000008  0010               	retfie	
    81                           
    82                           ;'********************************************************************************
    83                           ;'PROGRAM_MEMORY_PAGE: 0
    84   00000C                     	org	12
    85   00000C                     BASPROGRAMSTART:
    86                           	callstack 0
    87                           
    88                           ;'CALL INITIALISATION ROUTINES
    89   00000C  EC67  F00A         	call	INITSYS
    90   000010  EC59  F00A         	call	INITPPS
    91   000014  ECA2  F009         	call	HI2CINIT
    92   000018  ECA5  F009         	call	INITGLCD_SSD1306
    93                           
    94                           ;'START_OF_THE_MAIN_PROGRAM
    95                           ;''
    96                           ;''THIS DEMONSTRATION PROGRAM IS A SIMPLE GLCD DEMONSTRATION OF THE SSD1306 GLCD CAPABILITIES.
    97                           ;''
    98                           ;''THIS PROGRAM IS A SIMPLE GLCD DEMONSTRATION OF THE SSD1306 GLCD CAPABILITIES.
    99                           ;''THIS PROGRAM DRAWS LINES, BOXES, CIRCLES AND PRINTS STRINGS AND NUMBERS.
   100                           ;''THE SSD1306 CONTROLLER A SMALL GRAPHICAL OLED, SUITABLE FOR A LOT OF VARIOUS PROJECTS.
   101                           ;''THE DISPLAY IS 38*35 MM, WITH AN ACTIVE DISPLAY SURFACE OF 0.96INCHES, AND A 128*64 PIXEL RESOLUTION.
   102                           ;''THE DISPLAY IS EASY TO INTERFACE, USING AN I2C TYPE OF COMMUNICATION.
   103                           ;''THE GLCD IS CONNECTED TO THE MICROPROCESSOR AS SHOWN ((CWG1CON1) and 0FFh), 5, b THE HARDWARE SECTION OF THIS CODE.
   104                           ;''
   105                           ;''THIS VERSION IS COMPATIBLE WILL ALL VERSION OF GCBASIC AS THIS DEMONSTRATION USES ((CRCCON0) and 0FFh), 0, b MEMORY GLCD MODE ONLY. THIS CAN BE A
      +                          DAPTED TO LOW MEMORY GLCD MODE.
   106                           ;''
   107                           ;''************************************************************************
   108                           ;''AUTHOR EVANV
   109                           ;''LICENCE GPL
   110                           ;''VERSION 1.00
   111                           ;''DATE 31.11.2022
   112                           ;'----- CONFIGURATION
   113                           ;'CHIP SETTINGS.
   114                           ;'PIC PPS TOOL VERSION: 0.0.6.5
   115                           ;'ADD THIS CODE SEGMENT TO YOUR GCBASIC SOURCE PROGRAM
   116                           ;'
   117                           ;'HARDWARE
   118                           ;'-------------------PORTA----------------
   119                           ;'BIT#:  -7---6---5---4---3---2---1---0---
   120                           ;'IO:    -----------------SW---------ADC--
   121                           ;'-----------------------------------------
   122                           ;'
   123                           ;'
   124                           ;'-------------------PORTB----------------
   125                           ;'BIT#:  -7---6---5---4---3---2---1---0---
   126                           ;'IO:    TX--SCL-SDA----------------------
   127                           ;'----------------------------------------
   128                           ;'
   129                           ;'------------------PORTC-----------------
   130                           ;'BIT#:  -7---6---5---4---3---2---1---0---
   131                           ;'IO:    LED-LED-LED-LED------------------
   132                           ;'----------------------------------------
   133                           ;'
   134                           ;'DEFINE CONSTANTS TO MAKE THINGS EASIER. WE CAN REUSE THESE AT ANY TIME.
   135                           ;'SET THE PORTS AS AN OUTPUT
   136                           ;'DIR LEDD7 OUT
   137   00001C  9E8F               	bcf	1167,7,c
   138                           
   139                           ;'DIR LEDD6 OUT
   140   00001E  9C8F               	bcf	1167,6,c
   141                           
   142                           ;'DIR LEDD5 OUT
   143   000020  9A8F               	bcf	1167,5,c
   144                           
   145                           ;'DIR LEDD4 OUT
   146   000022  988F               	bcf	1167,4,c
   147                           
   148                           ;'THIS IS THE PORTA.0 PORT
   149                           ;'DIR POTENTIOMETER IN
   150   000024  808D               	bsf	1165,0,c
   151                           
   152                           ;'DIR     SWITCHIN      IN
   153   000026  868D               	bsf	1165,3,c
   154                           
   155                           ;'DEFINE I2C SETTINGS
   156                           ;'HI2CMODE (MASTER)
   157   000028  0E0C               	movlw	12
   158   00002A  6E43               	movwf	1347,c
   159   00002C  ECA4  F009         	call	HI2CMODE
   160                           
   161                           ;'A CONSTANT TO  ALLOW YOU TO CHANGE THE GLCD MEMORY USAGE.
   162                           ;'*****************************************************************************************************
   163                           ;'MAIN PROGRAM COMMENCES HERE.. EVERYTHING BEFORE THIS IS SETUP FOR THE BOARD.
   164                           ;'----- DEFINE VARIABLES
   165                           ;'DIM BYTENUMBER, CCOUNT AS BYTE
   166                           ;'CCOUNT = 0
   167   000030  6A0F               	clrf	1295,c
   168                           
   169                           ;'DIM LONGNUMBER AS LONG
   170                           ;'MAX VALUE = 4294967290
   171                           ;'LONGNUMBER = 123456
   172   000032  0E40               	movlw	64
   173   000034  0105               	banksel	1384
   174   000036  6F68               	movwf	1384,b
   175   000038  0EE2               	movlw	226
   176   00003A  6F69               	movwf	1385,b
   177   00003C  0E01               	movlw	1
   178   00003E  6F6A               	movwf	1386,b
   179   000040  6B6B               	clrf	1387,b
   180                           
   181                           ;'DIM WORDNUMBER AS WORD
   182                           ;'DIM OUTSTRING AS STRING
   183                           ;'WORDNUMBER = 0
   184   000042  6BA7               	clrf	1447,b
   185   000044  6BA8               	clrf	1448,b
   186                           
   187                           ;'BYTENUMBER = 0
   188   000046  6A0E               	clrf	1294,c
   189                           
   190                           ;'----- MAIN PROGRAM
   191                           ;'GLCDPRINT 2, 2,   "GCBASIC"
   192   000048  0E02               	movlw	2
   193   00004A  6F6F               	movwf	1391,b
   194   00004C  6B70               	clrf	1392,b
   195   00004E  0E02               	movlw	2
   196   000050  6F71               	movwf	1393,b
   197   000052  6B72               	clrf	1394,b
   198   000054  EE14 F097          	lfsr	1,4247
   199   000058  0E7C               	movlw	low STRINGTABLE1
   200   00005A  6EF6               	movwf	tblptrl,c
   201   00005C  0E1D               	movlw	high STRINGTABLE1
   202   00005E  6EF7               	movwf	tblptrh,c
   203   000060  0E00               	movlw	low (STRINGTABLE1 shr (0+16))
   204   000062  6EF8               	movwf	tblptru,c
   205   000064  0100               	banksel	0
   206   000066  ECAB  F00E         	call	SYSREADSTRING
   207   00006A  0E97               	movlw	151
   208   00006C  0105               	banksel	1414
   209   00006E  6F86               	movwf	1414,b
   210   000070  0E10               	movlw	16
   211   000072  6F87               	movwf	1415,b
   212                           
   213                           ;'USING SYSSTRINGPARAM1*7
   214   000074  0100               	banksel	0
   215   000076  ECBC  F008         	call	GLCDPRINT5
   216                           
   217                           ;'GLCDPRINT (2, 18, "ANOBIUM 2024")
   218   00007A  0E02               	movlw	2
   219   00007C  0105               	banksel	1391
   220   00007E  6F6F               	movwf	1391,b
   221   000080  6B70               	clrf	1392,b
   222   000082  0E12               	movlw	18
   223   000084  6F71               	movwf	1393,b
   224   000086  6B72               	clrf	1394,b
   225   000088  EE14 F097          	lfsr	1,4247
   226   00008C  0E84               	movlw	low STRINGTABLE2
   227   00008E  6EF6               	movwf	tblptrl,c
   228   000090  0E1D               	movlw	high STRINGTABLE2
   229   000092  6EF7               	movwf	tblptrh,c
   230   000094  0E00               	movlw	low (STRINGTABLE2 shr (0+16))
   231   000096  6EF8               	movwf	tblptru,c
   232   000098  0100               	banksel	0
   233   00009A  ECAB  F00E         	call	SYSREADSTRING
   234   00009E  0E97               	movlw	151
   235   0000A0  0105               	banksel	1414
   236   0000A2  6F86               	movwf	1414,b
   237   0000A4  0E10               	movlw	16
   238   0000A6  6F87               	movwf	1415,b
   239                           
   240                           ;'USING SYSSTRINGPARAM1*12
   241   0000A8  0100               	banksel	0
   242   0000AA  ECBC  F008         	call	GLCDPRINT5
   243                           
   244                           ;'GLCDPRINT (2, 34, "GLCD PORTABILITY DEMO")
   245   0000AE  0E02               	movlw	2
   246   0000B0  0105               	banksel	1391
   247   0000B2  6F6F               	movwf	1391,b
   248   0000B4  6B70               	clrf	1392,b
   249   0000B6  0E22               	movlw	34
   250   0000B8  6F71               	movwf	1393,b
   251   0000BA  6B72               	clrf	1394,b
   252   0000BC  EE14 F097          	lfsr	1,4247
   253   0000C0  0E92               	movlw	low STRINGTABLE3
   254   0000C2  6EF6               	movwf	tblptrl,c
   255   0000C4  0E1D               	movlw	high STRINGTABLE3
   256   0000C6  6EF7               	movwf	tblptrh,c
   257   0000C8  0E00               	movlw	low (STRINGTABLE3 shr (0+16))
   258   0000CA  6EF8               	movwf	tblptru,c
   259   0000CC  0100               	banksel	0
   260   0000CE  ECAB  F00E         	call	SYSREADSTRING
   261   0000D2  0E97               	movlw	151
   262   0000D4  0105               	banksel	1414
   263   0000D6  6F86               	movwf	1414,b
   264   0000D8  0E10               	movlw	16
   265   0000DA  6F87               	movwf	1415,b
   266                           
   267                           ;'USING SYSSTRINGPARAM1*21
   268   0000DC  0100               	banksel	0
   269   0000DE  ECBC  F008         	call	GLCDPRINT5
   270                           
   271                           ;'GLCDPRINT (2, 50, CHIPNAMESTR )
   272   0000E2  0E02               	movlw	2
   273   0000E4  0105               	banksel	1391
   274   0000E6  6F6F               	movwf	1391,b
   275   0000E8  6B70               	clrf	1392,b
   276   0000EA  0E32               	movlw	50
   277   0000EC  6F71               	movwf	1393,b
   278   0000EE  6B72               	clrf	1394,b
   279   0000F0  EE14 F097          	lfsr	1,4247
   280   0000F4  0EC6               	movlw	low STRINGTABLE134
   281   0000F6  6EF6               	movwf	tblptrl,c
   282   0000F8  0E1D               	movlw	high STRINGTABLE134
   283   0000FA  6EF7               	movwf	tblptrh,c
   284   0000FC  0E00               	movlw	low (STRINGTABLE134 shr (0+16))
   285   0000FE  6EF8               	movwf	tblptru,c
   286   000100  0100               	banksel	0
   287   000102  ECAB  F00E         	call	SYSREADSTRING
   288   000106  0E97               	movlw	151
   289   000108  0105               	banksel	1414
   290   00010A  6F86               	movwf	1414,b
   291   00010C  0E10               	movlw	16
   292   00010E  6F87               	movwf	1415,b
   293                           
   294                           ;'USING SYSSTRINGPARAM1*8
   295   000110  0100               	banksel	0
   296   000112  ECBC  F008         	call	GLCDPRINT5
   297                           
   298                           ;'BOX 0,0,127,63
   299   000116  6A5E               	clrf	1374,c
   300   000118  6A5F               	clrf	1375,c
   301   00011A  0105               	banksel	1378
   302   00011C  6B62               	clrf	1378,b
   303   00011E  6B63               	clrf	1379,b
   304   000120  0E7F               	movlw	127
   305   000122  6F60               	movwf	1376,b
   306   000124  6B61               	clrf	1377,b
   307   000126  0E3F               	movlw	63
   308   000128  6F64               	movwf	1380,b
   309   00012A  6B65               	clrf	1381,b
   310   00012C  C534 F54C          	movff	1332,1356
   311   000130  C535 F54D          	movff	1333,1357
   312   000134  0100               	banksel	0
   313   000136  DA38               	rcall	BOX17
   314                           
   315                           ;'WAIT 3 S
   316   000138  0E03               	movlw	3
   317   00013A  6E04               	movwf	1284,c
   318   00013C  DBDB               	rcall	DELAY_S
   319                           
   320                           ;'GLCDCLS
   321   00013E  EC07  F007         	call	GLCDCLS_SSD1306
   322                           
   323                           ;'PREPARE THE STATIC COMPONENTS OF THE SCREEN
   324                           ;'PRINT SOME TEXT
   325                           ;'GLCDPRINT ( 2,   1, "GLCDPRINT")
   326   000142  0E02               	movlw	2
   327   000144  0105               	banksel	1391
   328   000146  6F6F               	movwf	1391,b
   329   000148  6B70               	clrf	1392,b
   330   00014A  0E01               	movlw	1
   331   00014C  6F71               	movwf	1393,b
   332   00014E  6B72               	clrf	1394,b
   333   000150  EE14 F097          	lfsr	1,4247
   334   000154  0EA8               	movlw	low STRINGTABLE4
   335   000156  6EF6               	movwf	tblptrl,c
   336   000158  0E1D               	movlw	high STRINGTABLE4
   337   00015A  6EF7               	movwf	tblptrh,c
   338   00015C  0E00               	movlw	low (STRINGTABLE4 shr (0+16))
   339   00015E  6EF8               	movwf	tblptru,c
   340   000160  0100               	banksel	0
   341   000162  ECAB  F00E         	call	SYSREADSTRING
   342   000166  0E97               	movlw	151
   343   000168  0105               	banksel	1414
   344   00016A  6F86               	movwf	1414,b
   345   00016C  0E10               	movlw	16
   346   00016E  6F87               	movwf	1415,b
   347                           
   348                           ;'USING SYSSTRINGPARAM1*9
   349   000170  0100               	banksel	0
   350   000172  ECBC  F008         	call	GLCDPRINT5
   351                           
   352                           ;'PRINT SOME MORE TEXT
   353                           ;'GLCDPRINT ( 64,  1, "")
   354   000176  0E40               	movlw	64
   355   000178  0105               	banksel	1391
   356   00017A  6F6F               	movwf	1391,b
   357   00017C  6B70               	clrf	1392,b
   358   00017E  0E01               	movlw	1
   359   000180  6F71               	movwf	1393,b
   360   000182  6B72               	clrf	1394,b
   361   000184  EE14 F097          	lfsr	1,4247
   362   000188  0EB2               	movlw	low STRINGTABLE5
   363   00018A  6EF6               	movwf	tblptrl,c
   364   00018C  0E1D               	movlw	high STRINGTABLE5
   365   00018E  6EF7               	movwf	tblptrh,c
   366   000190  0E00               	movlw	low (STRINGTABLE5 shr (0+16))
   367   000192  6EF8               	movwf	tblptru,c
   368   000194  0100               	banksel	0
   369   000196  ECAB  F00E         	call	SYSREADSTRING
   370   00019A  0E97               	movlw	151
   371   00019C  0105               	banksel	1414
   372   00019E  6F86               	movwf	1414,b
   373   0001A0  0E10               	movlw	16
   374   0001A2  6F87               	movwf	1415,b
   375                           
   376                           ;'USING SYSSTRINGPARAM1*1
   377   0001A4  0100               	banksel	0
   378   0001A6  ECBC  F008         	call	GLCDPRINT5
   379                           
   380                           ;'PRINT CHIP SPEED
   381                           ;'GLCDPRINT ( 72,  1, CHIPMHZ)
   382   0001AA  0E48               	movlw	72
   383   0001AC  0105               	banksel	1391
   384   0001AE  6F6F               	movwf	1391,b
   385   0001B0  6B70               	clrf	1392,b
   386   0001B2  0E01               	movlw	1
   387   0001B4  6F71               	movwf	1393,b
   388   0001B6  6B72               	clrf	1394,b
   389   0001B8  0E40               	movlw	64
   390   0001BA  6E48               	movwf	1352,c
   391   0001BC  6A49               	clrf	1353,c
   392   0001BE  6A4A               	clrf	1354,c
   393   0001C0  6A4B               	clrf	1355,c
   394   0001C2  0100               	banksel	0
   395   0001C4  EC06  F009         	call	GLCDPRINT8
   396                           
   397                           ;'PRINT SOME TEXT
   398                           ;'GLCDPRINT ( 86, 1, "MHZ")
   399   0001C8  0E56               	movlw	86
   400   0001CA  0105               	banksel	1391
   401   0001CC  6F6F               	movwf	1391,b
   402   0001CE  6B70               	clrf	1392,b
   403   0001D0  0E01               	movlw	1
   404   0001D2  6F71               	movwf	1393,b
   405   0001D4  6B72               	clrf	1394,b
   406   0001D6  EE14 F097          	lfsr	1,4247
   407   0001DA  0EB4               	movlw	low STRINGTABLE6
   408   0001DC  6EF6               	movwf	tblptrl,c
   409   0001DE  0E1D               	movlw	high STRINGTABLE6
   410   0001E0  6EF7               	movwf	tblptrh,c
   411   0001E2  0E00               	movlw	low (STRINGTABLE6 shr (0+16))
   412   0001E4  6EF8               	movwf	tblptru,c
   413   0001E6  0100               	banksel	0
   414   0001E8  ECAB  F00E         	call	SYSREADSTRING
   415   0001EC  0E97               	movlw	151
   416   0001EE  0105               	banksel	1414
   417   0001F0  6F86               	movwf	1414,b
   418   0001F2  0E10               	movlw	16
   419   0001F4  6F87               	movwf	1415,b
   420                           
   421                           ;'USING SYSSTRINGPARAM1*3
   422   0001F6  0100               	banksel	0
   423   0001F8  ECBC  F008         	call	GLCDPRINT5
   424                           
   425                           ;'DRAW SOME TEXT
   426                           ;'GLCDDRAWSTRING( 2,9,"DRAWSTR")
   427   0001FC  0E02               	movlw	2
   428   0001FE  0105               	banksel	1401
   429   000200  6F79               	movwf	1401,b
   430   000202  0E09               	movlw	9
   431   000204  6E16               	movwf	1302,c
   432   000206  EE14 F097          	lfsr	1,4247
   433   00020A  0EB8               	movlw	low STRINGTABLE7
   434   00020C  6EF6               	movwf	tblptrl,c
   435   00020E  0E1D               	movlw	high STRINGTABLE7
   436   000210  6EF7               	movwf	tblptrh,c
   437   000212  0E00               	movlw	low (STRINGTABLE7 shr (0+16))
   438   000214  6EF8               	movwf	tblptru,c
   439   000216  0100               	banksel	0
   440   000218  ECAB  F00E         	call	SYSREADSTRING
   441   00021C  0E97               	movlw	151
   442   00021E  0105               	banksel	1406
   443   000220  6F7E               	movwf	1406,b
   444   000222  0E10               	movlw	16
   445   000224  6F7F               	movwf	1407,b
   446   000226  C534 F54C          	movff	1332,1356
   447   00022A  C535 F54D          	movff	1333,1357
   448                           
   449                           ;'USING SYSSTRINGPARAM1*7
   450   00022E  0100               	banksel	0
   451   000230  EC83  F008         	call	GLCDDRAWSTRING
   452                           
   453                           ;'DRAW A BOX
   454                           ;'BOX 0,0,GLCD_WIDTH-1, GLCD_HEIGHT-1
   455   000234  6A5E               	clrf	1374,c
   456   000236  6A5F               	clrf	1375,c
   457   000238  0105               	banksel	1378
   458   00023A  6B62               	clrf	1378,b
   459   00023C  6B63               	clrf	1379,b
   460   00023E  0E7F               	movlw	127
   461   000240  6F60               	movwf	1376,b
   462   000242  6B61               	clrf	1377,b
   463   000244  0E3F               	movlw	63
   464   000246  6F64               	movwf	1380,b
   465   000248  6B65               	clrf	1381,b
   466   00024A  C534 F54C          	movff	1332,1356
   467   00024E  C535 F54D          	movff	1333,1357
   468   000252  0100               	banksel	0
   469   000254  D9A9               	rcall	BOX17
   470                           
   471                           ;'DRAW A BOX
   472                           ;'BOX GLCD_WIDTH-5, GLCD_HEIGHT-5,GLCD_WIDTH-1, GLCD_HEIGHT-1
   473   000256  0E7B               	movlw	123
   474   000258  6E5E               	movwf	1374,c
   475   00025A  6A5F               	clrf	1375,c
   476   00025C  0E3B               	movlw	59
   477   00025E  0105               	banksel	1378
   478   000260  6F62               	movwf	1378,b
   479   000262  6B63               	clrf	1379,b
   480   000264  0E7F               	movlw	127
   481   000266  6F60               	movwf	1376,b
   482   000268  6B61               	clrf	1377,b
   483   00026A  0E3F               	movlw	63
   484   00026C  6F64               	movwf	1380,b
   485   00026E  6B65               	clrf	1381,b
   486   000270  C534 F54C          	movff	1332,1356
   487   000274  C535 F54D          	movff	1333,1357
   488   000278  0100               	banksel	0
   489   00027A  D996               	rcall	BOX17
   490                           
   491                           ;'DRAW A CIRCLE
   492                           ;'CIRCLE (44,41,15)
   493   00027C  0E2C               	movlw	44
   494   00027E  0105               	banksel	1450
   495   000280  6FAA               	movwf	1450,b
   496   000282  6BAB               	clrf	1451,b
   497   000284  0E29               	movlw	41
   498   000286  6FB2               	movwf	1458,b
   499   000288  6BB3               	clrf	1459,b
   500   00028A  0E0F               	movlw	15
   501   00028C  6E46               	movwf	1350,c
   502   00028E  6A47               	clrf	1351,c
   503   000290  C534 F54C          	movff	1332,1356
   504   000294  C535 F54D          	movff	1333,1357
   505   000298  C53E F5B4          	movff	1342,1460
   506   00029C  0100               	banksel	0
   507   00029E  DA13               	rcall	CIRCLE20
   508                           
   509                           ;'DRAW A LINE
   510                           ;'LINE 64,31,0,31
   511   0002A0  0E40               	movlw	64
   512   0002A2  6E5E               	movwf	1374,c
   513   0002A4  6A5F               	clrf	1375,c
   514   0002A6  0E1F               	movlw	31
   515   0002A8  0105               	banksel	1378
   516   0002AA  6F62               	movwf	1378,b
   517   0002AC  6B63               	clrf	1379,b
   518   0002AE  6B60               	clrf	1376,b
   519   0002B0  6B61               	clrf	1377,b
   520   0002B2  0E1F               	movlw	31
   521   0002B4  6F64               	movwf	1380,b
   522   0002B6  6B65               	clrf	1381,b
   523   0002B8  C534 F54C          	movff	1332,1356
   524   0002BC  C535 F54D          	movff	1333,1357
   525   0002C0  0100               	banksel	0
   526   0002C2  EC23  F00F         	call	_LINE69
   527   0002C6                     SYSDOLOOP_S1:
   528                           	callstack 0
   529                           
   530                           ;'FOR CCOUNT = 31 TO 127
   531                           ;'LEGACY METHOD
   532   0002C6  0E1E               	movlw	30
   533   0002C8  6E0F               	movwf	1295,c
   534   0002CA                     SYSFORLOOP1:
   535                           	callstack 0
   536   0002CA  2A0F               	incf	1295,f,c
   537                           
   538                           ;'PRINT A HEX STRING
   539                           ;'GLCDPRINT ( 64 ,  36,  HEX(LONGNUMBER_E ) )
   540   0002CC  0E40               	movlw	64
   541   0002CE  0105               	banksel	1391
   542   0002D0  6F6F               	movwf	1391,b
   543   0002D2  6B70               	clrf	1392,b
   544   0002D4  0E24               	movlw	36
   545   0002D6  6F71               	movwf	1393,b
   546   0002D8  6B72               	clrf	1394,b
   547   0002DA  C56B F5A5          	movff	1387,1445
   548   0002DE  0100               	banksel	0
   549   0002E0  ECFD  F00E         	call	FN__HEXPICAS
   550   0002E4  0E82               	movlw	130
   551   0002E6  0105               	banksel	1414
   552   0002E8  6F86               	movwf	1414,b
   553   0002EA  0E10               	movlw	16
   554   0002EC  6F87               	movwf	1415,b
   555   0002EE  0100               	banksel	0
   556   0002F0  ECBC  F008         	call	GLCDPRINT5
   557                           
   558                           ;'PRINT A HEX STRING
   559                           ;'GLCDPRINT ( 76 ,  36,  HEX(LONGNUMBER_U ) )
   560   0002F4  0E4C               	movlw	76
   561   0002F6  0105               	banksel	1391
   562   0002F8  6F6F               	movwf	1391,b
   563   0002FA  6B70               	clrf	1392,b
   564   0002FC  0E24               	movlw	36
   565   0002FE  6F71               	movwf	1393,b
   566   000300  6B72               	clrf	1394,b
   567   000302  C56A F5A5          	movff	1386,1445
   568   000306  0100               	banksel	0
   569   000308  ECFD  F00E         	call	FN__HEXPICAS
   570   00030C  0E82               	movlw	130
   571   00030E  0105               	banksel	1414
   572   000310  6F86               	movwf	1414,b
   573   000312  0E10               	movlw	16
   574   000314  6F87               	movwf	1415,b
   575   000316  0100               	banksel	0
   576   000318  ECBC  F008         	call	GLCDPRINT5
   577                           
   578                           ;'PRINT A HEX STRING
   579                           ;'GLCDPRINT ( 88 ,  36,  HEX(LONGNUMBER_H ) )
   580   00031C  0E58               	movlw	88
   581   00031E  0105               	banksel	1391
   582   000320  6F6F               	movwf	1391,b
   583   000322  6B70               	clrf	1392,b
   584   000324  0E24               	movlw	36
   585   000326  6F71               	movwf	1393,b
   586   000328  6B72               	clrf	1394,b
   587   00032A  C569 F5A5          	movff	1385,1445
   588   00032E  0100               	banksel	0
   589   000330  ECFD  F00E         	call	FN__HEXPICAS
   590   000334  0E82               	movlw	130
   591   000336  0105               	banksel	1414
   592   000338  6F86               	movwf	1414,b
   593   00033A  0E10               	movlw	16
   594   00033C  6F87               	movwf	1415,b
   595   00033E  0100               	banksel	0
   596   000340  ECBC  F008         	call	GLCDPRINT5
   597                           
   598                           ;'PRINT A HEX STRING
   599                           ;'GLCDPRINT ( 100 ,  36, HEX(LONGNUMBER   ) )
   600   000344  0E64               	movlw	100
   601   000346  0105               	banksel	1391
   602   000348  6F6F               	movwf	1391,b
   603   00034A  6B70               	clrf	1392,b
   604   00034C  0E24               	movlw	36
   605   00034E  6F71               	movwf	1393,b
   606   000350  6B72               	clrf	1394,b
   607   000352  C568 F5A5          	movff	1384,1445
   608   000356  0100               	banksel	0
   609   000358  ECFD  F00E         	call	FN__HEXPICAS
   610   00035C  0E82               	movlw	130
   611   00035E  0105               	banksel	1414
   612   000360  6F86               	movwf	1414,b
   613   000362  0E10               	movlw	16
   614   000364  6F87               	movwf	1415,b
   615   000366  0100               	banksel	0
   616   000368  ECBC  F008         	call	GLCDPRINT5
   617                           
   618                           ;'PRINT A HEX STRING
   619                           ;'GLCDPRINT ( 112 ,  36, "H" )
   620   00036C  0E70               	movlw	112
   621   00036E  0105               	banksel	1391
   622   000370  6F6F               	movwf	1391,b
   623   000372  6B70               	clrf	1392,b
   624   000374  0E24               	movlw	36
   625   000376  6F71               	movwf	1393,b
   626   000378  6B72               	clrf	1394,b
   627   00037A  EE14 F097          	lfsr	1,4247
   628   00037E  0EC0               	movlw	low STRINGTABLE8
   629   000380  6EF6               	movwf	tblptrl,c
   630   000382  0E1D               	movlw	high STRINGTABLE8
   631   000384  6EF7               	movwf	tblptrh,c
   632   000386  0E00               	movlw	low (STRINGTABLE8 shr (0+16))
   633   000388  6EF8               	movwf	tblptru,c
   634   00038A  0100               	banksel	0
   635   00038C  ECAB  F00E         	call	SYSREADSTRING
   636   000390  0E97               	movlw	151
   637   000392  0105               	banksel	1414
   638   000394  6F86               	movwf	1414,b
   639   000396  0E10               	movlw	16
   640   000398  6F87               	movwf	1415,b
   641                           
   642                           ;'USING SYSSTRINGPARAM1*1
   643   00039A  0100               	banksel	0
   644   00039C  ECBC  F008         	call	GLCDPRINT5
   645                           
   646                           ;'PRINT A PADDED STRING
   647                           ;'GLCDPRINT ( 64 ,  44, PAD(STR(WORDNUMBER), 5 ) )
   648   0003A0  0E40               	movlw	64
   649   0003A2  0105               	banksel	1391
   650   0003A4  6F6F               	movwf	1391,b
   651   0003A6  6B70               	clrf	1392,b
   652   0003A8  0E2C               	movlw	44
   653   0003AA  6F71               	movwf	1393,b
   654   0003AC  6B72               	clrf	1394,b
   655   0003AE  C5A7 F5A5          	movff	1447,1445
   656   0003B2  C5A8 F5A6          	movff	1448,1446
   657   0003B6  0100               	banksel	0
   658   0003B8  ECB5  F00C         	call	FN_STR
   659   0003BC  0E86               	movlw	134
   660   0003BE  0105               	banksel	1436
   661   0003C0  6F9C               	movwf	1436,b
   662   0003C2  0E10               	movlw	16
   663   0003C4  6F9D               	movwf	1437,b
   664   0003C6  0E05               	movlw	5
   665   0003C8  6F99               	movwf	1433,b
   666   0003CA  EE14 F097          	lfsr	1,4247
   667   0003CE  0EC2               	movlw	low STRINGTABLE52
   668   0003D0  6EF6               	movwf	tblptrl,c
   669   0003D2  0E1D               	movlw	high STRINGTABLE52
   670   0003D4  6EF7               	movwf	tblptrh,c
   671   0003D6  0E00               	movlw	low (STRINGTABLE52 shr (0+16))
   672   0003D8  6EF8               	movwf	tblptru,c
   673   0003DA  0100               	banksel	0
   674   0003DC  ECAB  F00E         	call	SYSREADSTRING
   675   0003E0  0E97               	movlw	151
   676   0003E2  0105               	banksel	1434
   677   0003E4  6F9A               	movwf	1434,b
   678   0003E6  0E10               	movlw	16
   679   0003E8  6F9B               	movwf	1435,b
   680                           
   681                           ;'USING SYSSTRINGPARAM1*1
   682   0003EA  0100               	banksel	0
   683   0003EC  EC7E  F00A         	call	FN_PAD
   684   0003F0  0EAD               	movlw	173
   685   0003F2  0105               	banksel	1414
   686   0003F4  6F86               	movwf	1414,b
   687   0003F6  0E10               	movlw	16
   688   0003F8  6F87               	movwf	1415,b
   689   0003FA  0100               	banksel	0
   690   0003FC  ECBC  F008         	call	GLCDPRINT5
   691                           
   692                           ;'PRINT A PADDED STRING
   693                           ;'GLCDPRINT ( 64 ,  52, PAD(STR(BYTENUMBER), 3 ) )
   694   000400  0E40               	movlw	64
   695   000402  0105               	banksel	1391
   696   000404  6F6F               	movwf	1391,b
   697   000406  6B70               	clrf	1392,b
   698   000408  0E34               	movlw	52
   699   00040A  6F71               	movwf	1393,b
   700   00040C  6B72               	clrf	1394,b
   701   00040E  C50E F5A5          	movff	1294,1445
   702   000412  6BA6               	clrf	1446,b
   703   000414  0100               	banksel	0
   704   000416  ECB5  F00C         	call	FN_STR
   705   00041A  0E86               	movlw	134
   706   00041C  0105               	banksel	1436
   707   00041E  6F9C               	movwf	1436,b
   708   000420  0E10               	movlw	16
   709   000422  6F9D               	movwf	1437,b
   710   000424  0E03               	movlw	3
   711   000426  6F99               	movwf	1433,b
   712   000428  EE14 F097          	lfsr	1,4247
   713   00042C  0EC2               	movlw	low STRINGTABLE52
   714   00042E  6EF6               	movwf	tblptrl,c
   715   000430  0E1D               	movlw	high STRINGTABLE52
   716   000432  6EF7               	movwf	tblptrh,c
   717   000434  0E00               	movlw	low (STRINGTABLE52 shr (0+16))
   718   000436  6EF8               	movwf	tblptru,c
   719   000438  0100               	banksel	0
   720   00043A  ECAB  F00E         	call	SYSREADSTRING
   721   00043E  0E97               	movlw	151
   722   000440  0105               	banksel	1434
   723   000442  6F9A               	movwf	1434,b
   724   000444  0E10               	movlw	16
   725   000446  6F9B               	movwf	1435,b
   726                           
   727                           ;'USING SYSSTRINGPARAM1*1
   728   000448  0100               	banksel	0
   729   00044A  EC7E  F00A         	call	FN_PAD
   730   00044E  0EAD               	movlw	173
   731   000450  0105               	banksel	1414
   732   000452  6F86               	movwf	1414,b
   733   000454  0E10               	movlw	16
   734   000456  6F87               	movwf	1415,b
   735   000458  0100               	banksel	0
   736   00045A  ECBC  F008         	call	GLCDPRINT5
   737                           
   738                           ;'DRAW A BOX
   739                           ;'BOX (46,9,56,19)
   740   00045E  0E2E               	movlw	46
   741   000460  6E5E               	movwf	1374,c
   742   000462  6A5F               	clrf	1375,c
   743   000464  0E09               	movlw	9
   744   000466  0105               	banksel	1378
   745   000468  6F62               	movwf	1378,b
   746   00046A  6B63               	clrf	1379,b
   747   00046C  0E38               	movlw	56
   748   00046E  6F60               	movwf	1376,b
   749   000470  6B61               	clrf	1377,b
   750   000472  0E13               	movlw	19
   751   000474  6F64               	movwf	1380,b
   752   000476  6B65               	clrf	1381,b
   753   000478  C534 F54C          	movff	1332,1356
   754   00047C  C535 F54D          	movff	1333,1357
   755   000480  0100               	banksel	0
   756   000482  D892               	rcall	BOX17
   757                           
   758                           ;'DRAW A CHARACTER
   759                           ;'GLCDDRAWCHAR(48, 10, CCOUNT )
   760   000484  0E30               	movlw	48
   761   000486  6E14               	movwf	1300,c
   762   000488  6A15               	clrf	1301,c
   763   00048A  0E0A               	movlw	10
   764   00048C  6E16               	movwf	1302,c
   765   00048E  6A17               	clrf	1303,c
   766   000490  C50F F510          	movff	1295,1296
   767   000494  C534 F54C          	movff	1332,1356
   768   000498  C535 F54D          	movff	1333,1357
   769   00049C  EC9E  F007         	call	GLCDDRAWCHAR_SSD1306
   770                           
   771                           ;'PREPARE A STRING
   772                           ;'OUTSTRING = STR( CCOUNT )
   773   0004A0  C50F F5A5          	movff	1295,1445
   774   0004A4  0105               	banksel	1446
   775   0004A6  6BA6               	clrf	1446,b
   776   0004A8  0100               	banksel	0
   777   0004AA  ECB5  F00C         	call	FN_STR
   778   0004AE  EE14 F0D6          	lfsr	1,4310
   779   0004B2  EE04 F086          	lfsr	0,4230
   780   0004B6  ECBF  F00D         	call	SYSCOPYSTRING
   781                           
   782                           ;'DRAW A STRING
   783                           ;'GLCDDRAWSTRING(64, 9, PAD(OUTSTRING,3) )
   784   0004BA  0E40               	movlw	64
   785   0004BC  0105               	banksel	1401
   786   0004BE  6F79               	movwf	1401,b
   787   0004C0  0E09               	movlw	9
   788   0004C2  6E16               	movwf	1302,c
   789   0004C4  0ED6               	movlw	214
   790   0004C6  6F9C               	movwf	1436,b
   791   0004C8  0E10               	movlw	16
   792   0004CA  6F9D               	movwf	1437,b
   793   0004CC  0E03               	movlw	3
   794   0004CE  6F99               	movwf	1433,b
   795   0004D0  EE14 F097          	lfsr	1,4247
   796   0004D4  0EC2               	movlw	low STRINGTABLE52
   797   0004D6  6EF6               	movwf	tblptrl,c
   798   0004D8  0E1D               	movlw	high STRINGTABLE52
   799   0004DA  6EF7               	movwf	tblptrh,c
   800   0004DC  0E00               	movlw	low (STRINGTABLE52 shr (0+16))
   801   0004DE  6EF8               	movwf	tblptru,c
   802   0004E0  0100               	banksel	0
   803   0004E2  ECAB  F00E         	call	SYSREADSTRING
   804   0004E6  0E97               	movlw	151
   805   0004E8  0105               	banksel	1434
   806   0004EA  6F9A               	movwf	1434,b
   807   0004EC  0E10               	movlw	16
   808   0004EE  6F9B               	movwf	1435,b
   809                           
   810                           ;'USING SYSSTRINGPARAM1*1
   811   0004F0  0100               	banksel	0
   812   0004F2  EC7E  F00A         	call	FN_PAD
   813   0004F6  0EAD               	movlw	173
   814   0004F8  0105               	banksel	1406
   815   0004FA  6F7E               	movwf	1406,b
   816   0004FC  0E10               	movlw	16
   817   0004FE  6F7F               	movwf	1407,b
   818   000500  C534 F54C          	movff	1332,1356
   819   000504  C535 F54D          	movff	1333,1357
   820   000508  0100               	banksel	0
   821   00050A  EC83  F008         	call	GLCDDRAWSTRING
   822                           
   823                           ;'DRAW A FILLED BOX
   824                           ;'FILLEDBOX 3,43,11,51, WORDNUMBER
   825   00050E  0E03               	movlw	3
   826   000510  6E5E               	movwf	1374,c
   827   000512  0E2B               	movlw	43
   828   000514  0105               	banksel	1378
   829   000516  6F62               	movwf	1378,b
   830   000518  0E0B               	movlw	11
   831   00051A  6F60               	movwf	1376,b
   832   00051C  0E33               	movlw	51
   833   00051E  6F64               	movwf	1380,b
   834   000520  C5A7 F54C          	movff	1447,1356
   835   000524  C5A8 F54D          	movff	1448,1357
   836   000528  0100               	banksel	0
   837   00052A  D9EC               	rcall	FILLEDBOX_SSD1306
   838                           
   839                           ;'DRAW A FILLED BOX
   840                           ;'FILLEDCIRCLE( 44,41,9, LONGNUMBER XOR 1)
   841   00052C  0E2C               	movlw	44
   842   00052E  0105               	banksel	1450
   843   000530  6FAA               	movwf	1450,b
   844   000532  6BAB               	clrf	1451,b
   845   000534  0E29               	movlw	41
   846   000536  6FB2               	movwf	1458,b
   847   000538  6BB3               	clrf	1459,b
   848   00053A  0E09               	movlw	9
   849   00053C  6FAC               	movwf	1452,b
   850   00053E  6BAD               	clrf	1453,b
   851   000540  0E01               	movlw	1
   852   000542  1968               	xorwf	1384,w,b
   853   000544  6E4C               	movwf	1356,c
   854   000546  C569 F54D          	movff	1385,1357
   855   00054A  C56A F54E          	movff	1386,1358
   856   00054E  C56B F54F          	movff	1387,1359
   857   000552  0100               	banksel	0
   858   000554  DA1A               	rcall	FILLEDCIRCLE23
   859                           
   860                           ;'DRAW A LINE
   861                           ;'LINE 0,63,64,31
   862   000556  6A5E               	clrf	1374,c
   863   000558  6A5F               	clrf	1375,c
   864   00055A  0E3F               	movlw	63
   865   00055C  0105               	banksel	1378
   866   00055E  6F62               	movwf	1378,b
   867   000560  6B63               	clrf	1379,b
   868   000562  0E40               	movlw	64
   869   000564  6F60               	movwf	1376,b
   870   000566  6B61               	clrf	1377,b
   871   000568  0E1F               	movlw	31
   872   00056A  6F64               	movwf	1380,b
   873   00056C  6B65               	clrf	1381,b
   874   00056E  C534 F54C          	movff	1332,1356
   875   000572  C535 F54D          	movff	1333,1357
   876   000576  0100               	banksel	0
   877   000578  EC23  F00F         	call	_LINE69
   878                           
   879                           ;'DO SOME SIMPLE MATHS
   880                           ;'LONGNUMBER = LONGNUMBER + 7 : WORDNUMBER = WORDNUMBER + 3 : BYTENUMBER++
   881   00057C  0E07               	movlw	7
   882   00057E  0105               	banksel	1384
   883   000580  2768               	addwf	1384,f,b
   884   000582  0E00               	movlw	0
   885   000584  2369               	addwfc	1385,f,b
   886   000586  0E00               	movlw	0
   887   000588  236A               	addwfc	1386,f,b
   888   00058A  0E00               	movlw	0
   889   00058C  236B               	addwfc	1387,f,b
   890                           
   891                           ;'LONGNUMBER = LONGNUMBER + 7 : WORDNUMBER = WORDNUMBER + 3 : BYTENUMBER++
   892   00058E  0E03               	movlw	3
   893   000590  27A7               	addwf	1447,f,b
   894   000592  0E00               	movlw	0
   895   000594  23A8               	addwfc	1448,f,b
   896                           
   897                           ;'LONGNUMBER = LONGNUMBER + 7 : WORDNUMBER = WORDNUMBER + 3 : BYTENUMBER++
   898   000596  2A0E               	incf	1294,f,c
   899                           
   900                           ;'NEXT
   901   000598  0E7F               	movlw	127
   902   00059A  5C0F               	subwf	1295,w,c
   903   00059C  A0D8               	btfss	status,0,c
   904   00059E  D695               	bra	SYSFORLOOP1
   905   0005A0                     SYSFORLOOPEND1:
   906                           	callstack 0
   907                           
   908                           ;'LOOP
   909   0005A0  D692               	bra	SYSDOLOOP_S1
   910   0005A2                     SYSDOLOOP_E1:
   911                           	callstack 0
   912                           
   913                           ;'END
   914   0005A2  D000               	bra	BASPROGRAMEND
   915   0005A4                     BASPROGRAMEND:
   916                           	callstack 0
   917   0005A4  0003               	sleep	
   918   0005A6  D7FE               	bra	BASPROGRAMEND
   919   0005A8                     BOX17:
   920                           	callstack 0
   921                           
   922                           ;'DIM GLCDTEMP AS WORD
   923                           ;'MAKE SURE THAT STARTING POINT (1) IS ALWAYS LESS THAN END POINT (2)
   924                           ;'IF LINEX1 > LINEX2 THEN
   925   0005A8  C55E F509          	movff	1374,1289
   926   0005AC  C55F F50A          	movff	1375,1290
   927   0005B0  C560 F505          	movff	1376,1285
   928   0005B4  C561 F506          	movff	1377,1286
   929   0005B8  EC88  F00D         	call	SYSCOMPLESSTHAN16
   930   0005BC  A000               	btfss	1280,0,c
   931   0005BE  D00C               	bra	ENDIF8
   932                           
   933                           ;'GLCDTEMP = LINEX1
   934   0005C0  C55E F53A          	movff	1374,1338
   935   0005C4  C55F F53B          	movff	1375,1339
   936                           
   937                           ;'LINEX1 = LINEX2
   938   0005C8  C560 F55E          	movff	1376,1374
   939   0005CC  C561 F55F          	movff	1377,1375
   940                           
   941                           ;'LINEX2 = GLCDTEMP
   942   0005D0  C53A F560          	movff	1338,1376
   943   0005D4  C53B F561          	movff	1339,1377
   944   0005D8                     ENDIF8:
   945                           	callstack 0
   946                           
   947                           ;'IF LINEY1 > LINEY2 THEN
   948   0005D8  C562 F509          	movff	1378,1289
   949   0005DC  C563 F50A          	movff	1379,1290
   950   0005E0  C564 F505          	movff	1380,1285
   951   0005E4  C565 F506          	movff	1381,1286
   952   0005E8  EC88  F00D         	call	SYSCOMPLESSTHAN16
   953   0005EC  A000               	btfss	1280,0,c
   954   0005EE  D00C               	bra	ENDIF9
   955                           
   956                           ;'GLCDTEMP = LINEY1
   957   0005F0  C562 F53A          	movff	1378,1338
   958   0005F4  C563 F53B          	movff	1379,1339
   959                           
   960                           ;'LINEY1 = LINEY2
   961   0005F8  C564 F562          	movff	1380,1378
   962   0005FC  C565 F563          	movff	1381,1379
   963                           
   964                           ;'LINEY2 = GLCDTEMP
   965   000600  C53A F564          	movff	1338,1380
   966   000604  C53B F565          	movff	1339,1381
   967   000608                     ENDIF9:
   968                           	callstack 0
   969                           
   970                           ;'DIM DRAWLINE AS WORD
   971                           ;'DRAW LINES GOING ACROSS
   972                           ;'FOR DRAWLINE = LINEX1 TO LINEX2
   973   000608  C55E F523          	movff	1374,1315
   974   00060C  C55F F524          	movff	1375,1316
   975   000610                     SYSFORLOOP5:
   976                           	callstack 0
   977                           
   978                           ;'PSET DRAWLINE, LINEY1, LINECOLOUR
   979   000610  C523 F53C          	movff	1315,1340
   980   000614  C562 F53D          	movff	1378,1341
   981   000618  C54C F52D          	movff	1356,1325
   982   00061C  C54D F52E          	movff	1357,1326
   983   000620  EC12  F00B         	call	PSET_SSD1306
   984                           
   985                           ;'PSET DRAWLINE, LINEY2, LINECOLOUR
   986   000624  C523 F53C          	movff	1315,1340
   987   000628  C564 F53D          	movff	1380,1341
   988   00062C  C54C F52D          	movff	1356,1325
   989   000630  C54D F52E          	movff	1357,1326
   990   000634  EC12  F00B         	call	PSET_SSD1306
   991                           
   992                           ;'NEXT
   993                           ;'POSITIVE VALUE STEP HANDLER IN FOR-NEXT STATEMENT :#4P 
   994   000638  5023               	movf	1315,w,c
   995   00063A  0105               	banksel	1376
   996   00063C  5D60               	subwf	1376,w,b
   997   00063E  6F9E               	movwf	1438,b
   998   000640  5024               	movf	1316,w,c
   999   000642  5961               	subwfb	1377,w,b
  1000   000644  6F9F               	movwf	1439,b
  1001   000646  C59E F505          	movff	1438,1285
  1002   00064A  C59F F506          	movff	1439,1286
  1003   00064E  6A09               	clrf	1289,c
  1004   000650  6A0A               	clrf	1290,c
  1005   000652  0100               	banksel	0
  1006   000654  EC6B  F00D         	call	SYSCOMPEQUAL16
  1007   000658  1E00               	comf	1280,f,c
  1008   00065A  A000               	btfss	1280,0,c
  1009   00065C  D004               	bra	ENDIF10
  1010                           
  1011                           ;'SET LOOPVAR TO LOOPVAR + STEPVALUE WHERE STEPVALUE IS A POSITIVE VALUE
  1012   00065E  2A23               	incf	1315,f,c
  1013   000660  B4D8               	btfsc	status,2,c
  1014   000662  2A24               	incf	1316,f,c
  1015   000664  D7D5               	bra	SYSFORLOOP5
  1016   000666                     ENDIF10:
  1017                           	callstack 0
  1018   000666                     SYSFORLOOPEND5:
  1019                           	callstack 0
  1020                           
  1021                           ;'DRAW LINES GOING DOWN
  1022                           ;'FOR DRAWLINE = LINEY1 TO LINEY2
  1023   000666  C562 F523          	movff	1378,1315
  1024   00066A  C563 F524          	movff	1379,1316
  1025   00066E                     SYSFORLOOP6:
  1026                           	callstack 0
  1027                           
  1028                           ;'PSET LINEX1, DRAWLINE, LINECOLOUR
  1029   00066E  C55E F53C          	movff	1374,1340
  1030   000672  C523 F53D          	movff	1315,1341
  1031   000676  C54C F52D          	movff	1356,1325
  1032   00067A  C54D F52E          	movff	1357,1326
  1033   00067E  EC12  F00B         	call	PSET_SSD1306
  1034                           
  1035                           ;'PSET LINEX2, DRAWLINE, LINECOLOUR
  1036   000682  C560 F53C          	movff	1376,1340
  1037   000686  C523 F53D          	movff	1315,1341
  1038   00068A  C54C F52D          	movff	1356,1325
  1039   00068E  C54D F52E          	movff	1357,1326
  1040   000692  EC12  F00B         	call	PSET_SSD1306
  1041                           
  1042                           ;'NEXT
  1043                           ;'POSITIVE VALUE STEP HANDLER IN FOR-NEXT STATEMENT :#4P 
  1044   000696  5023               	movf	1315,w,c
  1045   000698  0105               	banksel	1380
  1046   00069A  5D64               	subwf	1380,w,b
  1047   00069C  6F9E               	movwf	1438,b
  1048   00069E  5024               	movf	1316,w,c
  1049   0006A0  5965               	subwfb	1381,w,b
  1050   0006A2  6F9F               	movwf	1439,b
  1051   0006A4  C59E F505          	movff	1438,1285
  1052   0006A8  C59F F506          	movff	1439,1286
  1053   0006AC  6A09               	clrf	1289,c
  1054   0006AE  6A0A               	clrf	1290,c
  1055   0006B0  0100               	banksel	0
  1056   0006B2  EC6B  F00D         	call	SYSCOMPEQUAL16
  1057   0006B6  1E00               	comf	1280,f,c
  1058   0006B8  A000               	btfss	1280,0,c
  1059   0006BA  D004               	bra	ENDIF11
  1060                           
  1061                           ;'SET LOOPVAR TO LOOPVAR + STEPVALUE WHERE STEPVALUE IS A POSITIVE VALUE
  1062   0006BC  2A23               	incf	1315,f,c
  1063   0006BE  B4D8               	btfsc	status,2,c
  1064   0006C0  2A24               	incf	1316,f,c
  1065   0006C2  D7D5               	bra	SYSFORLOOP6
  1066   0006C4                     ENDIF11:
  1067                           	callstack 0
  1068   0006C4                     SYSFORLOOPEND6:
  1069                           	callstack 0
  1070   0006C4  0012               	return	
  1071   0006C6                     CIRCLE20:
  1072                           	callstack 0
  1073                           
  1074                           ;'DIM RADIUSERR, XRADIUS AS INTEGER
  1075                           ;'XRADIUS = INXRADIUS
  1076   0006C6  C546 F5AC          	movff	1350,1452
  1077   0006CA  C547 F5AD          	movff	1351,1453
  1078                           
  1079                           ;'RADIUSERR = -(XRADIUS/2)
  1080   0006CE  C5AC F505          	movff	1452,1285
  1081   0006D2  C5AD F506          	movff	1453,1286
  1082   0006D6  0E02               	movlw	2
  1083   0006D8  6E09               	movwf	1289,c
  1084   0006DA  6A0A               	clrf	1290,c
  1085   0006DC  EC61  F00E         	call	SYSDIVSUBINT
  1086   0006E0  C505 F5A2          	movff	1285,1442
  1087   0006E4  C506 F5A3          	movff	1286,1443
  1088   0006E8  0105               	banksel	1442
  1089   0006EA  1DA2               	comf	1442,w,b
  1090   0006EC  6F73               	movwf	1395,b
  1091   0006EE  1DA3               	comf	1443,w,b
  1092   0006F0  6F74               	movwf	1396,b
  1093   0006F2  2B73               	incf	1395,f,b
  1094   0006F4  B4D8               	btfsc	status,2,c
  1095   0006F6  2B74               	incf	1396,f,b
  1096   0006F8                     SYSDOLOOP_S3:
  1097                           	callstack 0
  1098   0006F8  C5AC F505          	movff	1452,1285
  1099   0006FC  C5AD F506          	movff	1453,1286
  1100   000700  C5B4 F509          	movff	1460,1289
  1101   000704  6A0A               	clrf	1290,c
  1102   000706  0100               	banksel	0
  1103   000708  EC96  F00D         	call	SYSCOMPLESSTHANINT
  1104   00070C  1E00               	comf	1280,f,c
  1105   00070E  A000               	btfss	1280,0,c
  1106   000710  D0AF               	bra	SYSDOLOOP_E3
  1107                           
  1108                           ;'PSET ((XOFFSET + XRADIUS), (YOFFSET + YORDINATE), LINECOLOUR)
  1109   000712  0105               	banksel	1452
  1110   000714  51AC               	movf	1452,w,b
  1111   000716  25AA               	addwf	1450,w,b
  1112   000718  6E3C               	movwf	1340,c
  1113   00071A  51B4               	movf	1460,w,b
  1114   00071C  25B2               	addwf	1458,w,b
  1115   00071E  6E3D               	movwf	1341,c
  1116   000720  C54C F52D          	movff	1356,1325
  1117   000724  C54D F52E          	movff	1357,1326
  1118   000728  0100               	banksel	0
  1119   00072A  EC12  F00B         	call	PSET_SSD1306
  1120                           
  1121                           ;'PSET ((XOFFSET + YORDINATE), (YOFFSET + XRADIUS), LINECOLOUR)
  1122   00072E  0105               	banksel	1460
  1123   000730  51B4               	movf	1460,w,b
  1124   000732  25AA               	addwf	1450,w,b
  1125   000734  6E3C               	movwf	1340,c
  1126   000736  51AC               	movf	1452,w,b
  1127   000738  25B2               	addwf	1458,w,b
  1128   00073A  6E3D               	movwf	1341,c
  1129   00073C  C54C F52D          	movff	1356,1325
  1130   000740  C54D F52E          	movff	1357,1326
  1131   000744  0100               	banksel	0
  1132   000746  EC12  F00B         	call	PSET_SSD1306
  1133                           
  1134                           ;'PSET ((XOFFSET - XRADIUS), (YOFFSET + YORDINATE), LINECOLOUR)
  1135   00074A  0105               	banksel	1452
  1136   00074C  51AC               	movf	1452,w,b
  1137   00074E  5DAA               	subwf	1450,w,b
  1138   000750  6E3C               	movwf	1340,c
  1139   000752  51B4               	movf	1460,w,b
  1140   000754  25B2               	addwf	1458,w,b
  1141   000756  6E3D               	movwf	1341,c
  1142   000758  C54C F52D          	movff	1356,1325
  1143   00075C  C54D F52E          	movff	1357,1326
  1144   000760  0100               	banksel	0
  1145   000762  EC12  F00B         	call	PSET_SSD1306
  1146                           
  1147                           ;'PSET ((XOFFSET - YORDINATE), (YOFFSET + XRADIUS), LINECOLOUR)
  1148   000766  0105               	banksel	1460
  1149   000768  51B4               	movf	1460,w,b
  1150   00076A  5DAA               	subwf	1450,w,b
  1151   00076C  6E3C               	movwf	1340,c
  1152   00076E  51AC               	movf	1452,w,b
  1153   000770  25B2               	addwf	1458,w,b
  1154   000772  6E3D               	movwf	1341,c
  1155   000774  C54C F52D          	movff	1356,1325
  1156   000778  C54D F52E          	movff	1357,1326
  1157   00077C  0100               	banksel	0
  1158   00077E  EC12  F00B         	call	PSET_SSD1306
  1159                           
  1160                           ;'PSET ((XOFFSET - XRADIUS), (YOFFSET - YORDINATE), LINECOLOUR)
  1161   000782  0105               	banksel	1452
  1162   000784  51AC               	movf	1452,w,b
  1163   000786  5DAA               	subwf	1450,w,b
  1164   000788  6E3C               	movwf	1340,c
  1165   00078A  51B4               	movf	1460,w,b
  1166   00078C  5DB2               	subwf	1458,w,b
  1167   00078E  6E3D               	movwf	1341,c
  1168   000790  C54C F52D          	movff	1356,1325
  1169   000794  C54D F52E          	movff	1357,1326
  1170   000798  0100               	banksel	0
  1171   00079A  EC12  F00B         	call	PSET_SSD1306
  1172                           
  1173                           ;'PSET ((XOFFSET - YORDINATE), (YOFFSET - XRADIUS), LINECOLOUR)
  1174   00079E  0105               	banksel	1460
  1175   0007A0  51B4               	movf	1460,w,b
  1176   0007A2  5DAA               	subwf	1450,w,b
  1177   0007A4  6E3C               	movwf	1340,c
  1178   0007A6  51AC               	movf	1452,w,b
  1179   0007A8  5DB2               	subwf	1458,w,b
  1180   0007AA  6E3D               	movwf	1341,c
  1181   0007AC  C54C F52D          	movff	1356,1325
  1182   0007B0  C54D F52E          	movff	1357,1326
  1183   0007B4  0100               	banksel	0
  1184   0007B6  EC12  F00B         	call	PSET_SSD1306
  1185                           
  1186                           ;'PSET ((XOFFSET + XRADIUS), (YOFFSET - YORDINATE), LINECOLOUR)
  1187   0007BA  0105               	banksel	1452
  1188   0007BC  51AC               	movf	1452,w,b
  1189   0007BE  25AA               	addwf	1450,w,b
  1190   0007C0  6E3C               	movwf	1340,c
  1191   0007C2  51B4               	movf	1460,w,b
  1192   0007C4  5DB2               	subwf	1458,w,b
  1193   0007C6  6E3D               	movwf	1341,c
  1194   0007C8  C54C F52D          	movff	1356,1325
  1195   0007CC  C54D F52E          	movff	1357,1326
  1196   0007D0  0100               	banksel	0
  1197   0007D2  EC12  F00B         	call	PSET_SSD1306
  1198                           
  1199                           ;'PSET ((XOFFSET + YORDINATE), (YOFFSET - XRADIUS), LINECOLOUR)
  1200   0007D6  0105               	banksel	1460
  1201   0007D8  51B4               	movf	1460,w,b
  1202   0007DA  25AA               	addwf	1450,w,b
  1203   0007DC  6E3C               	movwf	1340,c
  1204   0007DE  51AC               	movf	1452,w,b
  1205   0007E0  5DB2               	subwf	1458,w,b
  1206   0007E2  6E3D               	movwf	1341,c
  1207   0007E4  C54C F52D          	movff	1356,1325
  1208   0007E8  C54D F52E          	movff	1357,1326
  1209   0007EC  0100               	banksel	0
  1210   0007EE  EC12  F00B         	call	PSET_SSD1306
  1211                           
  1212                           ;'YORDINATE ++
  1213   0007F2  0105               	banksel	1460
  1214   0007F4  2BB4               	incf	1460,f,b
  1215                           
  1216                           ;'IF RADIUSERR < 0 THEN
  1217   0007F6  C573 F505          	movff	1395,1285
  1218   0007FA  C574 F506          	movff	1396,1286
  1219   0007FE  6A09               	clrf	1289,c
  1220   000800  6A0A               	clrf	1290,c
  1221   000802  0100               	banksel	0
  1222   000804  EC96  F00D         	call	SYSCOMPLESSTHANINT
  1223   000808  A000               	btfss	1280,0,c
  1224   00080A  D010               	bra	ELSE12_1
  1225                           
  1226                           ;'RADIUSERR = RADIUSERR + 2 * YORDINATE + 1
  1227   00080C  0105               	banksel	1460
  1228   00080E  51B4               	movf	1460,w,b
  1229   000810  0D02               	mullw	2
  1230   000812  50F3               	movf	prodl,w,c
  1231   000814  2573               	addwf	1395,w,b
  1232   000816  6FA2               	movwf	1442,b
  1233   000818  0E00               	movlw	0
  1234   00081A  2174               	addwfc	1396,w,b
  1235   00081C  6FA3               	movwf	1443,b
  1236   00081E  0E01               	movlw	1
  1237   000820  25A2               	addwf	1442,w,b
  1238   000822  6F73               	movwf	1395,b
  1239   000824  0E00               	movlw	0
  1240   000826  21A3               	addwfc	1443,w,b
  1241   000828  6F74               	movwf	1396,b
  1242                           
  1243                           ;'ELSE
  1244   00082A  D021               	bra	ENDIF12
  1245   00082C                     ELSE12_1:
  1246                           	callstack 0
  1247                           
  1248                           ;'XRADIUS --
  1249   00082C  0E01               	movlw	1
  1250   00082E  0105               	banksel	1452
  1251   000830  5FAC               	subwf	1452,f,b
  1252   000832  0E00               	movlw	0
  1253   000834  5BAD               	subwfb	1453,f,b
  1254                           
  1255                           ;'RADIUSERR = RADIUSERR + 2 * (YORDINATE - XRADIUS + 1)
  1256   000836  51AC               	movf	1452,w,b
  1257   000838  5DB4               	subwf	1460,w,b
  1258   00083A  6FA2               	movwf	1442,b
  1259   00083C  6BA4               	clrf	1444,b
  1260   00083E  51AD               	movf	1453,w,b
  1261   000840  59A4               	subwfb	1444,w,b
  1262   000842  6FA3               	movwf	1443,b
  1263   000844  0E01               	movlw	1
  1264   000846  25A2               	addwf	1442,w,b
  1265   000848  6F9E               	movwf	1438,b
  1266   00084A  0E00               	movlw	0
  1267   00084C  21A3               	addwfc	1443,w,b
  1268   00084E  6F9F               	movwf	1439,b
  1269   000850  C59E F505          	movff	1438,1285
  1270   000854  C59F F506          	movff	1439,1286
  1271   000858  0E02               	movlw	2
  1272   00085A  6E09               	movwf	1289,c
  1273   00085C  6A0A               	clrf	1290,c
  1274   00085E  0100               	banksel	0
  1275   000860  EC91  F00E         	call	SYSMULTSUBINT
  1276   000864  5000               	movf	1280,w,c
  1277   000866  0105               	banksel	1395
  1278   000868  2773               	addwf	1395,f,b
  1279   00086A  5001               	movf	1281,w,c
  1280   00086C  2374               	addwfc	1396,f,b
  1281   00086E                     ENDIF12:
  1282                           	callstack 0
  1283                           
  1284                           ;'LOOP
  1285   00086E  D744               	bra	SYSDOLOOP_S3
  1286   000870                     SYSDOLOOP_E3:
  1287                           	callstack 0
  1288   000870  0012               	return	
  1289   000872                     CURSOR_POSITION_SSD1306:
  1290                           	callstack 0
  1291                           
  1292                           ;'DIM POSCHARX, POSCHARX AS WORD
  1293                           ;'POSCHARY = LOCY / 8
  1294                           ;'FASTER THAN /8
  1295                           ;'POSCHARY = LOCY
  1296   000872  C567 F56E          	movff	1383,1390
  1297                           
  1298                           ;'REPEAT 3
  1299   000876  0E03               	movlw	3
  1300   000878  0105               	banksel	1430
  1301   00087A  6F96               	movwf	1430,b
  1302   00087C                     SYSREPEATLOOP4:
  1303                           	callstack 0
  1304                           
  1305                           ;'SET C OFF
  1306   00087C  90D8               	bcf	status,0,c
  1307                           
  1308                           ;'ROTATE POSCHARY RIGHT
  1309   00087E  336E               	rrcf	1390,f,b
  1310                           
  1311                           ;'END REPEAT
  1312   000880  2F96               	decfsz	1430,f,b
  1313   000882  D7FC               	bra	SYSREPEATLOOP4
  1314   000884                     SYSREPEATLOOPEND4:
  1315                           	callstack 0
  1316                           
  1317                           ;'WRITE_COMMAND_SSD1306( 0XB0 + POSCHARY )   ' SET PAGE ADDRESS
  1318   000884  0EB0               	movlw	176
  1319   000886  256E               	addwf	1390,w,b
  1320   000888  6F76               	movwf	1398,b
  1321   00088A  0100               	banksel	0
  1322   00088C  ECE8  F00E         	call	WRITE_COMMAND_SSD1306
  1323                           
  1324                           ;'POSCHARX = ( LOCX  & 0X0F )  ' LOWER NIBBLE
  1325   000890  0E0F               	movlw	15
  1326   000892  0105               	banksel	1382
  1327   000894  1566               	andwf	1382,w,b
  1328   000896  6F6C               	movwf	1388,b
  1329   000898  6B6D               	clrf	1389,b
  1330                           
  1331                           ;'WRITE_COMMAND_SSD1306( POSCHARX )
  1332   00089A  C56C F576          	movff	1388,1398
  1333   00089E  0100               	banksel	0
  1334   0008A0  ECE8  F00E         	call	WRITE_COMMAND_SSD1306
  1335                           
  1336                           ;'POSCHARX = LOCX
  1337   0008A4  C566 F56C          	movff	1382,1388
  1338   0008A8  0105               	banksel	1389
  1339   0008AA  6B6D               	clrf	1389,b
  1340                           
  1341                           ;'REPEAT 4
  1342   0008AC  0E04               	movlw	4
  1343   0008AE  6F96               	movwf	1430,b
  1344   0008B0                     SYSREPEATLOOP5:
  1345                           	callstack 0
  1346                           
  1347                           ;'SET C OFF
  1348   0008B0  90D8               	bcf	status,0,c
  1349                           
  1350                           ;'ROTATE POSCHARX RIGHT
  1351   0008B2  336D               	rrcf	1389,f,b
  1352   0008B4  336C               	rrcf	1388,f,b
  1353                           
  1354                           ;'END REPEAT
  1355   0008B6  2F96               	decfsz	1430,f,b
  1356   0008B8  D7FB               	bra	SYSREPEATLOOP5
  1357   0008BA                     SYSREPEATLOOPEND5:
  1358                           	callstack 0
  1359                           
  1360                           ;'POSCHARX = ( POSCHARX & 0X0F ) + 0X10
  1361   0008BA  0E0F               	movlw	15
  1362   0008BC  156C               	andwf	1388,w,b
  1363   0008BE  6F9E               	movwf	1438,b
  1364   0008C0  6B9F               	clrf	1439,b
  1365   0008C2  0E10               	movlw	16
  1366   0008C4  259E               	addwf	1438,w,b
  1367   0008C6  6F6C               	movwf	1388,b
  1368   0008C8  0E00               	movlw	0
  1369   0008CA  219F               	addwfc	1439,w,b
  1370   0008CC  6F6D               	movwf	1389,b
  1371                           
  1372                           ;'WRITE_COMMAND_SSD1306 ( POSCHARX )
  1373   0008CE  C56C F576          	movff	1388,1398
  1374   0008D2  0100               	banksel	0
  1375   0008D4  EFE8  F00E         	goto	WRITE_COMMAND_SSD1306
  1376   0008D8                     DELAY_MS:
  1377                           	callstack 0
  1378   0008D8  2A03               	incf	1283,f,c
  1379   0008DA                     DMS_START:
  1380                           	callstack 0
  1381   0008DA  0E81               	movlw	129
  1382   0008DC  6E01               	movwf	1281,c
  1383   0008DE                     DMS_OUTER:
  1384                           	callstack 0
  1385   0008DE  0E28               	movlw	40
  1386   0008E0  6E00               	movwf	1280,c
  1387   0008E2                     DMS_INNER:
  1388                           	callstack 0
  1389   0008E2  2E00               	decfsz	1280,f,c
  1390   0008E4  D7FE               	bra	DMS_INNER
  1391   0008E6  2E01               	decfsz	1281,f,c
  1392   0008E8  D7FA               	bra	DMS_OUTER
  1393   0008EA  2E02               	decfsz	1282,f,c
  1394   0008EC  D7F6               	bra	DMS_START
  1395   0008EE  2E03               	decfsz	1283,f,c
  1396   0008F0  D7F4               	bra	DMS_START
  1397   0008F2  0012               	return	
  1398   0008F4                     DELAY_S:
  1399                           	callstack 0
  1400   0008F4                     DS_START:
  1401                           	callstack 0
  1402   0008F4  0EE8               	movlw	232
  1403   0008F6  6E02               	movwf	1282,c
  1404   0008F8  0E03               	movlw	3
  1405   0008FA  6E03               	movwf	1283,c
  1406   0008FC  DFED               	rcall	DELAY_MS
  1407   0008FE  2E04               	decfsz	1284,f,c
  1408   000900  D7F9               	bra	DS_START
  1409   000902  0012               	return	
  1410   000904                     FILLEDBOX_SSD1306:
  1411                           	callstack 0
  1412                           
  1413                           ;'MAKE SURE THAT STARTING POINT (1) IS ALWAYS LESS THAN END POINT (2)
  1414                           ;'IF LINEX1 > LINEX2 THEN
  1415   000904  505E               	movf	1374,w,c
  1416   000906  0105               	banksel	1376
  1417   000908  5D60               	subwf	1376,w,b
  1418   00090A  B0D8               	btfsc	status,0,c
  1419   00090C  D006               	bra	ENDIF58
  1420                           
  1421                           ;'GLCDTEMP = LINEX1
  1422   00090E  C55E F53A          	movff	1374,1338
  1423                           
  1424                           ;'LINEX1 = LINEX2
  1425   000912  C560 F55E          	movff	1376,1374
  1426                           
  1427                           ;'LINEX2 = GLCDTEMP
  1428   000916  C53A F560          	movff	1338,1376
  1429   00091A                     ENDIF58:
  1430                           	callstack 0
  1431                           
  1432                           ;'IF LINEY1 > LINEY2 THEN
  1433   00091A  5162               	movf	1378,w,b
  1434   00091C  5D64               	subwf	1380,w,b
  1435   00091E  B0D8               	btfsc	status,0,c
  1436   000920  D006               	bra	ENDIF59
  1437                           
  1438                           ;'GLCDTEMP = LINEY1
  1439   000922  C562 F53A          	movff	1378,1338
  1440                           
  1441                           ;'LINEY1 = LINEY2
  1442   000926  C564 F562          	movff	1380,1378
  1443                           
  1444                           ;'LINEY2 = GLCDTEMP
  1445   00092A  C53A F564          	movff	1338,1380
  1446   00092E                     ENDIF59:
  1447                           	callstack 0
  1448                           
  1449                           ;'DRAW LINES GOING ACROSS
  1450                           ;'FOR DRAWLINE = LINEX1 TO LINEX2
  1451   00092E  C55E F523          	movff	1374,1315
  1452   000932                     SYSFORLOOP18:
  1453                           	callstack 0
  1454                           
  1455                           ;'FOR GLCDTEMP = LINEY1 TO LINEY2
  1456   000932  C562 F53A          	movff	1378,1338
  1457   000936                     SYSFORLOOP19:
  1458                           	callstack 0
  1459                           
  1460                           ;'PSET DRAWLINE, GLCDTEMP, LINECOLOUR
  1461   000936  C523 F53C          	movff	1315,1340
  1462   00093A  C53A F53D          	movff	1338,1341
  1463   00093E  C54C F52D          	movff	1356,1325
  1464   000942  C54D F52E          	movff	1357,1326
  1465   000946  0100               	banksel	0
  1466   000948  EC12  F00B         	call	PSET_SSD1306
  1467                           
  1468                           ;'NEXT
  1469                           ;'POSITIVE VALUE STEP HANDLER IN FOR-NEXT STATEMENT :#4P 
  1470   00094C  503A               	movf	1338,w,c
  1471   00094E  0105               	banksel	1380
  1472   000950  5D64               	subwf	1380,w,b
  1473   000952  6FA4               	movwf	1444,b
  1474   000954  C5A4 F505          	movff	1444,1285
  1475   000958  6A09               	clrf	1289,c
  1476   00095A  0100               	banksel	0
  1477   00095C  EC66  F00D         	call	SYSCOMPEQUAL
  1478   000960  1E00               	comf	1280,f,c
  1479   000962  A000               	btfss	1280,0,c
  1480   000964  D002               	bra	ENDIF60
  1481                           
  1482                           ;'SET LOOPVAR TO LOOPVAR + STEPVALUE WHERE STEPVALUE IS A POSITIVE VALUE
  1483   000966  2A3A               	incf	1338,f,c
  1484   000968  D7E6               	bra	SYSFORLOOP19
  1485   00096A                     ENDIF60:
  1486                           	callstack 0
  1487   00096A                     SYSFORLOOPEND19:
  1488                           	callstack 0
  1489                           
  1490                           ;'NEXT
  1491                           ;'POSITIVE VALUE STEP HANDLER IN FOR-NEXT STATEMENT :#4P 
  1492   00096A  5023               	movf	1315,w,c
  1493   00096C  0105               	banksel	1376
  1494   00096E  5D60               	subwf	1376,w,b
  1495   000970  6FA4               	movwf	1444,b
  1496   000972  C5A4 F505          	movff	1444,1285
  1497   000976  6A09               	clrf	1289,c
  1498   000978  0100               	banksel	0
  1499   00097A  EC66  F00D         	call	SYSCOMPEQUAL
  1500   00097E  1E00               	comf	1280,f,c
  1501   000980  A000               	btfss	1280,0,c
  1502   000982  D002               	bra	ENDIF61
  1503                           
  1504                           ;'SET LOOPVAR TO LOOPVAR + STEPVALUE WHERE STEPVALUE IS A POSITIVE VALUE
  1505   000984  2A23               	incf	1315,f,c
  1506   000986  D7D5               	bra	SYSFORLOOP18
  1507   000988                     ENDIF61:
  1508                           	callstack 0
  1509   000988                     SYSFORLOOPEND18:
  1510                           	callstack 0
  1511   000988  0012               	return	
  1512   00098A                     FILLEDCIRCLE23:
  1513                           	callstack 0
  1514                           
  1515                           ;'CIRCLE FILL CODE IS MERELY A MODIFICATION OF THE MIDPOINT
  1516                           ;'CIRCLE ALGORITHEM WHICH IS AN ADAPTION OF BRESENHAM'S LINE ALGORITHM
  1517                           ;'HTTP://EN.WIKIPEDIA.ORG/WIKI/MIDPOINT_CIRCLE_ALGORITHM
  1518                           ;'HTTP://EN.WIKIPEDIA.ORG/WIKI/BRESENHAM%27S_LINE_ALGORITHM
  1519                           ;'DIM FF, DDF_X, DDF_Y AS INTEGER
  1520                           ;'DIM YCALC2, YCALC1 AS WORD
  1521                           ;'FF = 1 - XRADIUS
  1522   00098A  0105               	banksel	1452
  1523   00098C  51AC               	movf	1452,w,b
  1524   00098E  0801               	sublw	1
  1525   000990  6E25               	movwf	1317,c
  1526   000992  6BA4               	clrf	1444,b
  1527   000994  51AD               	movf	1453,w,b
  1528   000996  59A4               	subwfb	1444,w,b
  1529   000998  6E26               	movwf	1318,c
  1530                           
  1531                           ;'DDF_X = 1
  1532   00099A  0E01               	movlw	1
  1533   00099C  6E1F               	movwf	1311,c
  1534   00099E  6A20               	clrf	1312,c
  1535                           
  1536                           ;'DDF_Y = -2 * XRADIUS
  1537   0009A0  C5AC F505          	movff	1452,1285
  1538   0009A4  C5AD F506          	movff	1453,1286
  1539   0009A8  0EFE               	movlw	254
  1540   0009AA  6E09               	movwf	1289,c
  1541   0009AC  680A               	setf	1290,c
  1542   0009AE  0100               	banksel	0
  1543   0009B0  EC91  F00E         	call	SYSMULTSUBINT
  1544   0009B4  C500 F521          	movff	1280,1313
  1545   0009B8  C501 F522          	movff	1281,1314
  1546                           
  1547                           ;'FILLCIRCLEXX = 0
  1548   0009BC  6A27               	clrf	1319,c
  1549                           
  1550                           ;'FILLCIRCLEYY = XRADIUS
  1551   0009BE  C5AC F528          	movff	1452,1320
  1552                           
  1553                           ;'FILL IN THE CENTER BETWEEN THE TWO HALVES
  1554                           ;'YCALC2 = YOFFSET+XRADIUS
  1555   0009C2  0105               	banksel	1452
  1556   0009C4  51AC               	movf	1452,w,b
  1557   0009C6  25B2               	addwf	1458,w,b
  1558   0009C8  6FB0               	movwf	1456,b
  1559   0009CA  51AD               	movf	1453,w,b
  1560   0009CC  21B3               	addwfc	1459,w,b
  1561   0009CE  6FB1               	movwf	1457,b
  1562                           
  1563                           ;'YCALC1 = YOFFSET-XRADIUS
  1564   0009D0  51AC               	movf	1452,w,b
  1565   0009D2  5DB2               	subwf	1458,w,b
  1566   0009D4  6FAE               	movwf	1454,b
  1567   0009D6  51AD               	movf	1453,w,b
  1568   0009D8  59B3               	subwfb	1459,w,b
  1569   0009DA  6FAF               	movwf	1455,b
  1570                           
  1571                           ;'LINE( XOFFSET, YCALC1 , XOFFSET, YCALC2, LINECOLOUR)
  1572   0009DC  C5AA F55E          	movff	1450,1374
  1573   0009E0  C5AB F55F          	movff	1451,1375
  1574   0009E4  C5AE F562          	movff	1454,1378
  1575   0009E8  C5AF F563          	movff	1455,1379
  1576   0009EC  C5AA F560          	movff	1450,1376
  1577   0009F0  C5AB F561          	movff	1451,1377
  1578   0009F4  C5B0 F564          	movff	1456,1380
  1579   0009F8  C5B1 F565          	movff	1457,1381
  1580   0009FC  0100               	banksel	0
  1581   0009FE  EC31  F010         	call	_LINE70
  1582   000A02                     SYSDOLOOP_S4:
  1583                           	callstack 0
  1584   000A02  5028               	movf	1320,w,c
  1585   000A04  5C27               	subwf	1319,w,c
  1586   000A06  B0D8               	btfsc	status,0,c
  1587   000A08  D08F               	bra	SYSDOLOOP_E4
  1588                           
  1589                           ;'IF FF >= 0 THEN
  1590   000A0A  C525 F505          	movff	1317,1285
  1591   000A0E  C526 F506          	movff	1318,1286
  1592   000A12  6A09               	clrf	1289,c
  1593   000A14  6A0A               	clrf	1290,c
  1594   000A16  EC96  F00D         	call	SYSCOMPLESSTHANINT
  1595   000A1A  1E00               	comf	1280,f,c
  1596   000A1C  A000               	btfss	1280,0,c
  1597   000A1E  D009               	bra	ENDIF13
  1598                           
  1599                           ;'FILLCIRCLEYY--
  1600   000A20  0628               	decf	1320,f,c
  1601                           
  1602                           ;'DDF_Y += 2
  1603   000A22  0E02               	movlw	2
  1604   000A24  2621               	addwf	1313,f,c
  1605   000A26  0E00               	movlw	0
  1606   000A28  2222               	addwfc	1314,f,c
  1607                           
  1608                           ;'FF += DDF_Y
  1609   000A2A  5021               	movf	1313,w,c
  1610   000A2C  2625               	addwf	1317,f,c
  1611   000A2E  5022               	movf	1314,w,c
  1612   000A30  2226               	addwfc	1318,f,c
  1613   000A32                     ENDIF13:
  1614                           	callstack 0
  1615                           
  1616                           ;'FILLCIRCLEXX++
  1617   000A32  2A27               	incf	1319,f,c
  1618                           
  1619                           ;'DDF_X += 2
  1620   000A34  0E02               	movlw	2
  1621   000A36  261F               	addwf	1311,f,c
  1622   000A38  0E00               	movlw	0
  1623   000A3A  2220               	addwfc	1312,f,c
  1624                           
  1625                           ;'FF += DDF_X
  1626   000A3C  501F               	movf	1311,w,c
  1627   000A3E  2625               	addwf	1317,f,c
  1628   000A40  5020               	movf	1312,w,c
  1629   000A42  2226               	addwfc	1318,f,c
  1630                           
  1631                           ;'NOW DRAW VERTICAL LINES BETWEEN THE POINTS ON THE CIRCLE RATHER THAN
  1632                           ;'DRAW THE POINTS OF THE CIRCLE. THIS DRAWS LINES BETWEEN THE
  1633                           ;'PERIMETER POINTS ON THE UPPER AND LOWER QUADRANTS OF THE 2 HALVES OF THE CIRCLE.
  1634                           ;'LINE(XOFFSET+FILLCIRCLEXX, YOFFSET+FILLCIRCLEYY, XOFFSET+FILLCIRCLEXX, YOFFSET-FILLCIRCLEYY, LINECOLOUR);
  1635   000A44  5027               	movf	1319,w,c
  1636   000A46  0105               	banksel	1450
  1637   000A48  25AA               	addwf	1450,w,b
  1638   000A4A  6E5E               	movwf	1374,c
  1639   000A4C  0E00               	movlw	0
  1640   000A4E  21AB               	addwfc	1451,w,b
  1641   000A50  6E5F               	movwf	1375,c
  1642   000A52  5028               	movf	1320,w,c
  1643   000A54  25B2               	addwf	1458,w,b
  1644   000A56  6F62               	movwf	1378,b
  1645   000A58  0E00               	movlw	0
  1646   000A5A  21B3               	addwfc	1459,w,b
  1647   000A5C  6F63               	movwf	1379,b
  1648   000A5E  5027               	movf	1319,w,c
  1649   000A60  25AA               	addwf	1450,w,b
  1650   000A62  6F60               	movwf	1376,b
  1651   000A64  0E00               	movlw	0
  1652   000A66  21AB               	addwfc	1451,w,b
  1653   000A68  6F61               	movwf	1377,b
  1654   000A6A  5028               	movf	1320,w,c
  1655   000A6C  5DB2               	subwf	1458,w,b
  1656   000A6E  6F64               	movwf	1380,b
  1657   000A70  0E00               	movlw	0
  1658   000A72  59B3               	subwfb	1459,w,b
  1659   000A74  6F65               	movwf	1381,b
  1660   000A76  0100               	banksel	0
  1661   000A78  EC31  F010         	call	_LINE70
  1662                           
  1663                           ;'LINE(XOFFSET-FILLCIRCLEXX, YOFFSET+FILLCIRCLEYY, XOFFSET-FILLCIRCLEXX, YOFFSET-FILLCIRCLEYY, LINECOLOUR);
  1664   000A7C  5027               	movf	1319,w,c
  1665   000A7E  0105               	banksel	1450
  1666   000A80  5DAA               	subwf	1450,w,b
  1667   000A82  6E5E               	movwf	1374,c
  1668   000A84  0E00               	movlw	0
  1669   000A86  59AB               	subwfb	1451,w,b
  1670   000A88  6E5F               	movwf	1375,c
  1671   000A8A  5028               	movf	1320,w,c
  1672   000A8C  25B2               	addwf	1458,w,b
  1673   000A8E  6F62               	movwf	1378,b
  1674   000A90  0E00               	movlw	0
  1675   000A92  21B3               	addwfc	1459,w,b
  1676   000A94  6F63               	movwf	1379,b
  1677   000A96  5027               	movf	1319,w,c
  1678   000A98  5DAA               	subwf	1450,w,b
  1679   000A9A  6F60               	movwf	1376,b
  1680   000A9C  0E00               	movlw	0
  1681   000A9E  59AB               	subwfb	1451,w,b
  1682   000AA0  6F61               	movwf	1377,b
  1683   000AA2  5028               	movf	1320,w,c
  1684   000AA4  5DB2               	subwf	1458,w,b
  1685   000AA6  6F64               	movwf	1380,b
  1686   000AA8  0E00               	movlw	0
  1687   000AAA  59B3               	subwfb	1459,w,b
  1688   000AAC  6F65               	movwf	1381,b
  1689   000AAE  0100               	banksel	0
  1690   000AB0  EC31  F010         	call	_LINE70
  1691                           
  1692                           ;'LINE(XOFFSET+FILLCIRCLEYY, YOFFSET+FILLCIRCLEXX, FILLCIRCLEYY+XOFFSET, YOFFSET-FILLCIRCLEXX, LINECOLOUR);
  1693   000AB4  5028               	movf	1320,w,c
  1694   000AB6  0105               	banksel	1450
  1695   000AB8  25AA               	addwf	1450,w,b
  1696   000ABA  6E5E               	movwf	1374,c
  1697   000ABC  0E00               	movlw	0
  1698   000ABE  21AB               	addwfc	1451,w,b
  1699   000AC0  6E5F               	movwf	1375,c
  1700   000AC2  5027               	movf	1319,w,c
  1701   000AC4  25B2               	addwf	1458,w,b
  1702   000AC6  6F62               	movwf	1378,b
  1703   000AC8  0E00               	movlw	0
  1704   000ACA  21B3               	addwfc	1459,w,b
  1705   000ACC  6F63               	movwf	1379,b
  1706   000ACE  51AA               	movf	1450,w,b
  1707   000AD0  2428               	addwf	1320,w,c
  1708   000AD2  6F60               	movwf	1376,b
  1709   000AD4  6BA4               	clrf	1444,b
  1710   000AD6  51AB               	movf	1451,w,b
  1711   000AD8  21A4               	addwfc	1444,w,b
  1712   000ADA  6F61               	movwf	1377,b
  1713   000ADC  5027               	movf	1319,w,c
  1714   000ADE  5DB2               	subwf	1458,w,b
  1715   000AE0  6F64               	movwf	1380,b
  1716   000AE2  0E00               	movlw	0
  1717   000AE4  59B3               	subwfb	1459,w,b
  1718   000AE6  6F65               	movwf	1381,b
  1719   000AE8  0100               	banksel	0
  1720   000AEA  EC31  F010         	call	_LINE70
  1721                           
  1722                           ;'LINE(XOFFSET-FILLCIRCLEYY, YOFFSET+FILLCIRCLEXX, XOFFSET-FILLCIRCLEYY, YOFFSET-FILLCIRCLEXX, LINECOLOUR);
  1723   000AEE  5028               	movf	1320,w,c
  1724   000AF0  0105               	banksel	1450
  1725   000AF2  5DAA               	subwf	1450,w,b
  1726   000AF4  6E5E               	movwf	1374,c
  1727   000AF6  0E00               	movlw	0
  1728   000AF8  59AB               	subwfb	1451,w,b
  1729   000AFA  6E5F               	movwf	1375,c
  1730   000AFC  5027               	movf	1319,w,c
  1731   000AFE  25B2               	addwf	1458,w,b
  1732   000B00  6F62               	movwf	1378,b
  1733   000B02  0E00               	movlw	0
  1734   000B04  21B3               	addwfc	1459,w,b
  1735   000B06  6F63               	movwf	1379,b
  1736   000B08  5028               	movf	1320,w,c
  1737   000B0A  5DAA               	subwf	1450,w,b
  1738   000B0C  6F60               	movwf	1376,b
  1739   000B0E  0E00               	movlw	0
  1740   000B10  59AB               	subwfb	1451,w,b
  1741   000B12  6F61               	movwf	1377,b
  1742   000B14  5027               	movf	1319,w,c
  1743   000B16  5DB2               	subwf	1458,w,b
  1744   000B18  6F64               	movwf	1380,b
  1745   000B1A  0E00               	movlw	0
  1746   000B1C  59B3               	subwfb	1459,w,b
  1747   000B1E  6F65               	movwf	1381,b
  1748   000B20  0100               	banksel	0
  1749   000B22  EC31  F010         	call	_LINE70
  1750                           
  1751                           ;'LOOP
  1752   000B26  D76D               	bra	SYSDOLOOP_S4
  1753   000B28                     SYSDOLOOP_E4:
  1754                           	callstack 0
  1755   000B28  0012               	return	
  1756   000B2A                     GLCDCHARCOL3:
  1757                           	callstack 0
  1758   000B2A  0E71               	movlw	113
  1759   000B2C  6007               	cpfslt	1287,c
  1760   000B2E  0C00               	retlw	0
  1761   000B30  5007               	movf	1287,w,c
  1762   000B32  0F4C               	addlw	low TABLEGLCDCHARCOL3
  1763   000B34  6EF6               	movwf	tblptrl,c
  1764   000B36  0E0B               	movlw	high TABLEGLCDCHARCOL3
  1765   000B38  B0D8               	btfsc	status,0,c
  1766   000B3A  0F01               	addlw	1
  1767   000B3C  6EF7               	movwf	tblptrh,c
  1768   000B3E  0E00               	movlw	low (TABLEGLCDCHARCOL3 shr (0+16))
  1769   000B40  B0D8               	btfsc	status,0,c
  1770   000B42  0F01               	addlw	1
  1771   000B44  6EF8               	movwf	tblptru,c
  1772   000B46  0008               	tblrd		*
  1773   000B48  50F5               	movf	tablat,w,c
  1774   000B4A  0012               	return	
  1775   000B4C                     TABLEGLCDCHARCOL3:
  1776                           	callstack 0
  1777   000B4C  70 00 10 0C 0A 88 22 38 20 08 20 10 10 80 80 40 04 00 00 00 28 48 46 6C 00 00 00 28 	db	112,0,16,12,10,136,34,56,32,8,32,16,16,128,128,64,4,0,0,0,40,72,70,108,0,0,0,40
  1778   000B68  10 00 10 00 40 7C 00 84 82 30 4E 78 06 6C 0C 00 00 10 28 00 04 64 F8 FE 7C FE 	db	16,0,16,0,64,124,0,132,130,48,78,120,6,108,12,0,0,16,40,0,4,100,248,254,124,254
  1779   000B82  FE FE 7C FE 00 40 FE FE FE FE 7C FE 7C FE 4C 02 7E 3E 7E C6 0E C2 	db	254,254,124,254,0,64,254,254,254,254,124,254,124,254,76,2,126,62,126,198,14,194
  1780   000B98  00 04 00 08 80 00 40 FE 70 70 70 10 10 FE 00 40 FE 00 F8 F8 70 F8 10 F8 	db	0,4,0,8,128,0,64,254,112,112,112,16,16,254,0,64,254,0,248,248,112,248,16,248
  1781   000BB0  90 10 78 38 78 88 18 88 00 00 00 20 78 	db	144,16,120,56,120,136,24,136,0,0,0,32,120
  1782   000BBD  00                 	align	2	;X4
  1783   000BBE                     GLCDCHARCOL4:
  1784                           	callstack 0
  1785   000BBE  0E71               	movlw	113
  1786   000BC0  6007               	cpfslt	1287,c
  1787   000BC2  0C00               	retlw	0
  1788   000BC4  5007               	movf	1287,w,c
  1789   000BC6  0FE0               	addlw	low TABLEGLCDCHARCOL4
  1790   000BC8  6EF6               	movwf	tblptrl,c
  1791   000BCA  0E0B               	movlw	high TABLEGLCDCHARCOL4
  1792   000BCC  B0D8               	btfsc	status,0,c
  1793   000BCE  0F01               	addlw	1
  1794   000BD0  6EF7               	movwf	tblptrh,c
  1795   000BD2  0E00               	movlw	low (TABLEGLCDCHARCOL4 shr (0+16))
  1796   000BD4  B0D8               	btfsc	status,0,c
  1797   000BD6  0F01               	addlw	1
  1798   000BD8  6EF8               	movwf	tblptru,c
  1799   000BDA  0008               	tblrd		*
  1800   000BDC  50F5               	movf	tablat,w,c
  1801   000BDE  0012               	return	
  1802   000BE0                     TABLEGLCDCHARCOL4:
  1803                           	callstack 0
  1804   000BE0  70 FE 38 0A 06 CC 66 7C 70 04 40 10 38 88 A2 70 1C 00 00 0E FE 54 26 92 	db	112,254,56,10,6,204,102,124,112,4,64,16,56,136,162,112,28,0,0,14,254,84,38,146
  1805   000BF8  0A 38 82 10 10 A0 10 C0 20 A2 84 C2 82 28 8A 94 02 92 92 6C AC 28 	db	10,56,130,16,16,160,16,192,32,162,132,194,130,40,138,148,2,146,146,108,172,40
  1806   000C0E  28 82 02 92 24 92 82 82 92 12 82 10 82 80 10 80 04 08 82 12 82 12 92 02 	db	40,130,2,146,36,146,130,130,146,18,130,16,130,128,16,128,4,8,130,18,130,18,146,2
  1807   000C26  80 40 80 28 10 A2 FE 08 82 04 80 02 A8 90 88 88 A8 FC A8 10 90 80 	db	128,64,128,40,16,162,254,8,130,4,128,2,168,144,136,136,168,252,168,16,144,128
  1808   000C3C  20 82 08 10 88 28 28 10 A8 7C 80 40 80 50 A0 C8 10 00 82 10 44 	db	32,130,8,16,136,40,40,16,168,124,128,64,128,80,160,200,16,0,130,16,68
  1809   000C51  00                 	align	2	;X4
  1810   000C52                     GLCDCHARCOL5:
  1811                           	callstack 0
  1812   000C52  0E71               	movlw	113
  1813   000C54  6007               	cpfslt	1287,c
  1814   000C56  0C00               	retlw	0
  1815   000C58  5007               	movf	1287,w,c
  1816   000C5A  0F74               	addlw	low TABLEGLCDCHARCOL5
  1817   000C5C  6EF6               	movwf	tblptrl,c
  1818   000C5E  0E0C               	movlw	high TABLEGLCDCHARCOL5
  1819   000C60  B0D8               	btfsc	status,0,c
  1820   000C62  0F01               	addlw	1
  1821   000C64  6EF7               	movwf	tblptrh,c
  1822   000C66  0E00               	movlw	low (TABLEGLCDCHARCOL5 shr (0+16))
  1823   000C68  B0D8               	btfsc	status,0,c
  1824   000C6A  0F01               	addlw	1
  1825   000C6C  6EF8               	movwf	tblptru,c
  1826   000C6E  0008               	tblrd		*
  1827   000C70  50F5               	movf	tablat,w,c
  1828   000C72  0012               	return	
  1829   000C74                     TABLEGLCDCHARCOL5:
  1830                           	callstack 0
  1831   000C74  70 7C 7C 00 00 EE EE 7C A8 FE FE 54 54 94 94 7C 7C 00 9E 00 28 FE 10 AA 	db	112,124,124,0,0,238,238,124,168,254,254,84,84,148,148,124,124,0,158,0,40,254,16,170
  1832   000C8C  06 44 44 7C 7C 60 10 C0 10 92 FE A2 8A 24 8A 92 E2 92 92 6C 6C 44 	db	6,68,68,124,124,96,16,192,16,146,254,162,138,36,138,146,226,146,146,108,108,68
  1833   000CA2  28 44 A2 F2 22 92 82 82 92 12 92 10 FE 82 28 80 18 10 82 12 A2 32 	db	40,68,162,242,34,146,130,130,146,18,146,16,254,130,40,128,24,16,130,18,162,50
  1834   000CB8  92 FE 80 80 70 10 E0 92 82 10 82 02 80 04 A8 88 88 88 A8 12 A8 08 	db	146,254,128,128,112,16,224,146,130,16,130,2,128,4,168,136,136,136,168,18,168,8
  1835   000CCE  FA 88 50 FE F0 08 88 28 28 08 A8 90 80 80 60 20 A0 A8 6C FE 6C 10 	db	250,136,80,254,240,8,136,40,40,8,168,144,128,128,96,32,160,168,108,254,108,16
  1836   000CE4  42                 	db	66
  1837   000CE5  00                 	align	2	;X4
  1838   000CE6                     GLCDCHARCOL6:
  1839                           	callstack 0
  1840   000CE6  0E71               	movlw	113
  1841   000CE8  6007               	cpfslt	1287,c
  1842   000CEA  0C00               	retlw	0
  1843   000CEC  5007               	movf	1287,w,c
  1844   000CEE  0F08               	addlw	low TABLEGLCDCHARCOL6
  1845   000CF0  6EF6               	movwf	tblptrl,c
  1846   000CF2  0E0D               	movlw	high TABLEGLCDCHARCOL6
  1847   000CF4  B0D8               	btfsc	status,0,c
  1848   000CF6  0F01               	addlw	1
  1849   000CF8  6EF7               	movwf	tblptrh,c
  1850   000CFA  0E00               	movlw	low (TABLEGLCDCHARCOL6 shr (0+16))
  1851   000CFC  B0D8               	btfsc	status,0,c
  1852   000CFE  0F01               	addlw	1
  1853   000D00  6EF8               	movwf	tblptru,c
  1854   000D02  0008               	tblrd		*
  1855   000D04  50F5               	movf	tablat,w,c
  1856   000D06  0012               	return	
  1857   000D08                     TABLEGLCDCHARCOL6:
  1858                           	callstack 0
  1859   000D08  70 38 FE 0C 0A CC 66 7C 20 04 40 38 10 A2 88 70 1C 00 00 0E FE 54 C8 44 	db	112,56,254,12,10,204,102,124,32,4,64,56,16,162,136,112,28,0,0,14,254,84,200,68
  1860   000D20  00 82 38 10 10 00 10 00 08 8A 80 92 96 FE 8A 92 12 92 52 00 00 82 28 28 12 82 	db	0,130,56,16,16,0,16,0,8,138,128,146,150,254,138,146,18,146,82,0,0,130,40,40,18,130
  1861   000D3A  24 92 82 44 92 12 92 10 82 7E 44 80 04 20 82 12 42 52 92 02 80 40 80 28 	db	36,146,130,68,146,18,146,16,130,126,68,128,4,32,130,18,66,82,146,2,128,64,128,40
  1862   000D52  10 8A 82 20 FE 04 80 08 A8 88 88 90 A8 02 A8 08 80 7A 88 80 08 08 88 28 	db	16,138,130,32,254,4,128,8,168,136,136,144,168,2,168,8,128,122,136,128,8,8,136,40
  1863   000D6A  30 08 A8 80 40 40 80 50 A0 98 82 00 10 20 44 	db	48,8,168,128,64,64,128,80,160,152,130,0,16,32,68
  1864   000D79  00                 	align	2	;X4
  1865   000D7A                     GLCDCHARCOL7:
  1866                           	callstack 0
  1867   000D7A  0E71               	movlw	113
  1868   000D7C  6007               	cpfslt	1287,c
  1869   000D7E  0C00               	retlw	0
  1870   000D80  5007               	movf	1287,w,c
  1871   000D82  0F9C               	addlw	low TABLEGLCDCHARCOL7
  1872   000D84  6EF6               	movwf	tblptrl,c
  1873   000D86  0E0D               	movlw	high TABLEGLCDCHARCOL7
  1874   000D88  B0D8               	btfsc	status,0,c
  1875   000D8A  0F01               	addlw	1
  1876   000D8C  6EF7               	movwf	tblptrh,c
  1877   000D8E  0E00               	movlw	low (TABLEGLCDCHARCOL7 shr (0+16))
  1878   000D90  B0D8               	btfsc	status,0,c
  1879   000D92  0F01               	addlw	1
  1880   000D94  6EF8               	movwf	tblptru,c
  1881   000D96  0008               	tblrd		*
  1882   000D98  50F5               	movf	tablat,w,c
  1883   000D9A  0012               	return	
  1884   000D9C                     TABLEGLCDCHARCOL7:
  1885                           	callstack 0
  1886   000D9C  70 10 00 0A 06 88 22 38 3E 08 20 10 10 80 80 40 04 00 00 00 28 24 C4 A0 00 00 00 28 	db	112,16,0,10,6,136,34,56,62,8,32,16,16,128,128,64,4,0,0,0,40,36,196,160,0,0,0,40
  1887   000DB8  10 00 10 00 04 7C 00 8C 62 20 72 60 0E 6C 3C 00 00 00 28 10 0C 7C F8 6C 44 38 	db	16,0,16,0,4,124,0,140,98,32,114,96,14,108,60,0,0,0,40,16,12,124,248,108,68,56
  1888   000DD2  82 02 F4 FE 00 02 82 80 FE FE 7C 0C BC 8C 64 02 7E 3E 7E C6 0E 86 00 40 	db	130,2,244,254,0,2,130,128,254,254,124,12,188,140,100,2,126,62,126,198,14,134,0,64
  1889   000DEA  00 08 80 00 F0 70 40 FE 30 04 78 F0 00 00 00 00 F0 F0 70 10 F8 10 40 40 F8 38 	db	0,8,128,0,240,112,64,254,48,4,120,240,0,0,0,0,240,240,112,16,248,16,64,64,248,56
  1890   000E04  78 88 78 88 00 00 00 10 78 	db	120,136,120,136,0,0,0,16,120
  1891   000E0D  00                 	align	2	;X4
  1892   000E0E                     GLCDCLS_SSD1306:
  1893                           	callstack 0
  1894                           
  1895                           ;'INITIALISE GLOBAL VARIABLE. REQUIRED VARIABLE FOR CIRCLE IN ALL DEVICE DRIVERS- DO NOT DELETE
  1896                           ;'GLCD_YORDINATE = 0
  1897   000E0E  6A3E               	clrf	1342,c
  1898   000E10  6A3F               	clrf	1343,c
  1899                           
  1900                           ;'FOR SSD1306_BUFFERLOCATIONCALC = 1 TO GLCD_HEIGHT * GLCD_WIDTH / 8
  1901   000E12  0E01               	movlw	1
  1902   000E14  0105               	banksel	1399
  1903   000E16  6F77               	movwf	1399,b
  1904   000E18  6B78               	clrf	1400,b
  1905   000E1A                     SYSFORLOOP11:
  1906                           	callstack 0
  1907                           
  1908                           ;'SSD1306_BUFFERALIAS(SSD1306_BUFFERLOCATIONCALC) = 0
  1909   000E1A  EE04 F0FF          	lfsr	0,4351
  1910   000E1E  5177               	movf	1399,w,b
  1911   000E20  26E9               	addwf	fsr0l,f,c
  1912   000E22  5178               	movf	1400,w,b
  1913   000E24  22EA               	addwfc	fsr0h,f,c
  1914   000E26  6AEF               	clrf	indf0,c
  1915                           
  1916                           ;'NEXT
  1917                           ;'POSITIVE VALUE STEP HANDLER IN FOR-NEXT STATEMENT :#4P 
  1918   000E28  5177               	movf	1399,w,b
  1919   000E2A  0800               	sublw	0
  1920   000E2C  6F9E               	movwf	1438,b
  1921   000E2E  0E04               	movlw	4
  1922   000E30  6FA4               	movwf	1444,b
  1923   000E32  5178               	movf	1400,w,b
  1924   000E34  59A4               	subwfb	1444,w,b
  1925   000E36  6F9F               	movwf	1439,b
  1926   000E38  C59E F505          	movff	1438,1285
  1927   000E3C  C59F F506          	movff	1439,1286
  1928   000E40  6A09               	clrf	1289,c
  1929   000E42  6A0A               	clrf	1290,c
  1930   000E44  0100               	banksel	0
  1931   000E46  EC6B  F00D         	call	SYSCOMPEQUAL16
  1932   000E4A  1E00               	comf	1280,f,c
  1933   000E4C  A000               	btfss	1280,0,c
  1934   000E4E  D005               	bra	ENDIF46
  1935                           
  1936                           ;'SET LOOPVAR TO LOOPVAR + STEPVALUE WHERE STEPVALUE IS A POSITIVE VALUE
  1937   000E50  0105               	banksel	1399
  1938   000E52  2B77               	incf	1399,f,b
  1939   000E54  B4D8               	btfsc	status,2,c
  1940   000E56  2B78               	incf	1400,f,b
  1941   000E58  D7E0               	bra	SYSFORLOOP11
  1942   000E5A                     ENDIF46:
  1943                           	callstack 0
  1944   000E5A                     SYSFORLOOPEND11:
  1945                           	callstack 0
  1946                           
  1947                           ;'1.14 CHANGED TO TRANSACTION
  1948                           ;'FOR SSD1306_BUFFERLOCATIONCALC = 0 TO GLCD_HEIGHT-1 STEP 8
  1949   000E5A  0105               	banksel	1399
  1950   000E5C  6B77               	clrf	1399,b
  1951   000E5E  6B78               	clrf	1400,b
  1952   000E60                     SYSFORLOOP12:
  1953                           	callstack 0
  1954                           
  1955                           ;'INIT SYSFORLOOPSTEP11 :#0
  1956   000E60  0E08               	movlw	8
  1957   000E62  6F82               	movwf	1410,b
  1958   000E64  6B83               	clrf	1411,b
  1959                           
  1960                           ;'CURSOR_POSITION_SSD1306 ( 0 , SSD1306_BUFFERLOCATIONCALC )
  1961   000E66  6B66               	clrf	1382,b
  1962   000E68  C577 F567          	movff	1399,1383
  1963   000E6C  0100               	banksel	0
  1964   000E6E  DD01               	rcall	CURSOR_POSITION_SSD1306
  1965                           
  1966                           ;'OPEN_TRANSACTION_SSD1306
  1967                           ;'MACRO SOURCE: GLCD_SSD1306.H (1241)
  1968                           ;'4WIRE NOT SUPPORTED, SEE WRITE_TRANSACTION_DATA_SSD1306
  1969                           ;'HI2CSTART
  1970   000E70  EC39  F00C         	call	SI2CSTART
  1971                           
  1972                           ;'HI2CSEND GLCD_I2C_ADDRESS
  1973   000E74  0E78               	movlw	120
  1974   000E76  6E45               	movwf	1349,c
  1975   000E78  ECAD  F00B         	call	SI2CSEND
  1976                           
  1977                           ;'HI2CSEND 0X40
  1978   000E7C  0E40               	movlw	64
  1979   000E7E  6E45               	movwf	1349,c
  1980   000E80  ECAD  F00B         	call	SI2CSEND
  1981                           
  1982                           ;'FOR GLCDTEMP = 0 TO 127
  1983                           ;'LEGACY METHOD
  1984   000E84  683A               	setf	1338,c
  1985   000E86                     SYSFORLOOP13:
  1986                           	callstack 0
  1987   000E86  2A3A               	incf	1338,f,c
  1988                           
  1989                           ;'WRITE_TRANSACTION_DATA_SSD1306(GLCDBACKGROUND)
  1990                           ;'MACRO SOURCE: GLCD_SSD1306.H (1272)
  1991                           ;'HI2CSEND SSD1306SENDBYTE
  1992   000E88  C529 F545          	movff	1321,1349
  1993   000E8C  ECAD  F00B         	call	SI2CSEND
  1994                           
  1995                           ;'NEXT
  1996   000E90  0E7F               	movlw	127
  1997   000E92  5C3A               	subwf	1338,w,c
  1998   000E94  A0D8               	btfss	status,0,c
  1999   000E96  D7F7               	bra	SYSFORLOOP13
  2000   000E98                     SYSFORLOOPEND13:
  2001                           	callstack 0
  2002                           
  2003                           ;'CLOSE_TRANSACTION_SSD1306
  2004                           ;'MACRO SOURCE: GLCD_SSD1306.H (1305)
  2005                           ;'4WIRE NOT SUPPORTED, SEE WRITE_TRANSACTION_DATA_SSD1306
  2006                           ;'HI2CSTOP
  2007   000E98  EC3E  F00C         	call	SI2CSTOP
  2008                           
  2009                           ;'NEXT
  2010                           ;'INTEGER NEGATIVE STEP HANDLER IN FOR-NEXT STATEMENT
  2011   000E9C  0105               	banksel	1411
  2012   000E9E  AF83               	btfss	1411,7,b
  2013   000EA0  D028               	bra	ELSE48_1
  2014                           
  2015                           ;'SET SYSFORLOOPABSVALUE TO -STEPVALUE :#1 
  2016   000EA2  1D82               	comf	1410,w,b
  2017   000EA4  6F80               	movwf	1408,b
  2018   000EA6  1D83               	comf	1411,w,b
  2019   000EA8  6F81               	movwf	1409,b
  2020   000EAA  2B80               	incf	1408,f,b
  2021   000EAC  B4D8               	btfsc	status,2,c
  2022   000EAE  2B81               	incf	1409,f,b
  2023                           
  2024                           ;'IF ( SSD1306_BUFFERLOCATIONCALC - 64-1) } [WORD]SYSFORLOOPABSVALUE12 THEN  :#1N 
  2025   000EB0  0E40               	movlw	64
  2026   000EB2  5D77               	subwf	1399,w,b
  2027   000EB4  6F9E               	movwf	1438,b
  2028   000EB6  0E00               	movlw	0
  2029   000EB8  5978               	subwfb	1400,w,b
  2030   000EBA  6F9F               	movwf	1439,b
  2031   000EBC  0E01               	movlw	1
  2032   000EBE  5D9E               	subwf	1438,w,b
  2033   000EC0  6FA2               	movwf	1442,b
  2034   000EC2  0E00               	movlw	0
  2035   000EC4  599F               	subwfb	1439,w,b
  2036   000EC6  6FA3               	movwf	1443,b
  2037   000EC8  C5A2 F505          	movff	1442,1285
  2038   000ECC  C5A3 F506          	movff	1443,1286
  2039   000ED0  C580 F509          	movff	1408,1289
  2040   000ED4  C581 F50A          	movff	1409,1290
  2041   000ED8  0100               	banksel	0
  2042   000EDA  EC88  F00D         	call	SYSCOMPLESSTHAN16
  2043   000EDE  1E00               	comf	1280,f,c
  2044   000EE0  A000               	btfss	1280,0,c
  2045   000EE2  D006               	bra	ENDIF49
  2046                           
  2047                           ;'SET LOOPVAR TO LOOPVAR + STEPVALUE WHERE STEPVALUE IS A NEGATIVE VALUE
  2048   000EE4  0105               	banksel	1410
  2049   000EE6  5182               	movf	1410,w,b
  2050   000EE8  2777               	addwf	1399,f,b
  2051   000EEA  5183               	movf	1411,w,b
  2052   000EEC  2378               	addwfc	1400,f,b
  2053   000EEE  D7B8               	bra	SYSFORLOOP12
  2054   000EF0                     ENDIF49:
  2055                           	callstack 0
  2056   000EF0  D01B               	bra	ENDIF48
  2057   000EF2                     ELSE48_1:
  2058                           	callstack 0
  2059                           
  2060                           ;'INTEGER POSITIVE STEP HANDLER IN FOR-NEXT STATEMENT
  2061                           ;'IF ([WORD]64-1 - [WORD]SSD1306_BUFFERLOCATIONCALC) } [WORD]SYSFORLOOPSTEP11 THEN :#1P 
  2062   000EF2  5177               	movf	1399,w,b
  2063   000EF4  083F               	sublw	63
  2064   000EF6  6F9E               	movwf	1438,b
  2065   000EF8  6BA4               	clrf	1444,b
  2066   000EFA  5178               	movf	1400,w,b
  2067   000EFC  59A4               	subwfb	1444,w,b
  2068   000EFE  6F9F               	movwf	1439,b
  2069   000F00  C59E F505          	movff	1438,1285
  2070   000F04  C59F F506          	movff	1439,1286
  2071   000F08  C582 F509          	movff	1410,1289
  2072   000F0C  C583 F50A          	movff	1411,1290
  2073   000F10  0100               	banksel	0
  2074   000F12  EC88  F00D         	call	SYSCOMPLESSTHAN16
  2075   000F16  1E00               	comf	1280,f,c
  2076   000F18  A000               	btfss	1280,0,c
  2077   000F1A  D006               	bra	ENDIF50
  2078                           
  2079                           ;'SET LOOPVAR TO LOOPVAR + STEPVALUE WHERE STEPVALUE IS A POSITIVE VALUE
  2080   000F1C  0105               	banksel	1410
  2081   000F1E  5182               	movf	1410,w,b
  2082   000F20  2777               	addwf	1399,f,b
  2083   000F22  5183               	movf	1411,w,b
  2084   000F24  2378               	addwfc	1400,f,b
  2085   000F26  D79C               	bra	SYSFORLOOP12
  2086   000F28                     ENDIF50:
  2087                           	callstack 0
  2088   000F28                     ENDIF48:
  2089                           	callstack 0
  2090   000F28                     SYSFORLOOPEND12:
  2091                           	callstack 0
  2092                           
  2093                           ;'REMOVED AT 1.14. RETAINED FOR DOCUMENTATION ONLY
  2094                           ;'CURSOR_POSITION_SSD1306 ( 0 , 0 )
  2095                           ;'FOR SSD1306_BUFFERLOCATIONCALC = 0 TO GLCD_HEIGHT-1 STEP 8
  2096                           ;'FOR GLCDTEMP = 0 TO 127
  2097                           ;'WRITE_DATA_SSD1306(GLCDBACKGROUND)
  2098                           ;'NEXT
  2099                           ;'NEXT
  2100                           ;'CURSOR_POSITION_SSD1306 ( 0 , 0 )
  2101   000F28  0105               	banksel	1382
  2102   000F2A  6B66               	clrf	1382,b
  2103   000F2C  6B67               	clrf	1383,b
  2104   000F2E  0100               	banksel	0
  2105   000F30  DCA0               	rcall	CURSOR_POSITION_SSD1306
  2106                           
  2107                           ;'PRINTLOCX =0
  2108   000F32  0105               	banksel	1391
  2109   000F34  6B6F               	clrf	1391,b
  2110                           
  2111                           ;'PRINTLOCY =0
  2112   000F36  6B71               	clrf	1393,b
  2113   000F38  0100               	banksel	0
  2114   000F3A  0012               	return	
  2115   000F3C                     GLCDDRAWCHAR_SSD1306:
  2116                           	callstack 0
  2117                           
  2118                           ;'THIS IS NOW IN FOUR PARTS
  2119                           ;'1. HANDLER FOR GLCD LM MODE
  2120                           ;'2. PREAMBLE
  2121                           ;'3. GCB FONT SET HANDLER
  2122                           ;'4. OLED FONT SET HANDLER
  2123                           ;'***** HANDLER FOR GLCD LM MODE
  2124                           ;'****** PREAMBLE
  2125                           ;'INVERT COLORS IF REQUIRED
  2126                           ;'IF LINECOLOUR <> GLCDFOREGROUND  THEN
  2127   000F3C  C54C F505          	movff	1356,1285
  2128   000F40  C54D F506          	movff	1357,1286
  2129   000F44  C534 F509          	movff	1332,1289
  2130   000F48  C535 F50A          	movff	1333,1290
  2131   000F4C  EC6B  F00D         	call	SYSCOMPEQUAL16
  2132   000F50  1E00               	comf	1280,f,c
  2133   000F52  A000               	btfss	1280,0,c
  2134   000F54  D005               	bra	ENDIF51
  2135                           
  2136                           ;'INVERTED COLOURS
  2137                           ;'GLCDBACKGROUND = 1
  2138   000F56  0E01               	movlw	1
  2139   000F58  6E29               	movwf	1321,c
  2140   000F5A  6A2A               	clrf	1322,c
  2141                           
  2142                           ;'GLCDFOREGROUND = 0
  2143   000F5C  6A34               	clrf	1332,c
  2144   000F5E  6A35               	clrf	1333,c
  2145   000F60                     ENDIF51:
  2146                           	callstack 0
  2147                           
  2148                           ;'DIM CHARCOL, CHARROW AS WORD
  2149                           ;'CHARCODE -= 15
  2150   000F60  0E0F               	movlw	15
  2151   000F62  5E10               	subwf	1296,f,c
  2152                           
  2153                           ;'CHARCOL=0
  2154   000F64  6A11               	clrf	1297,c
  2155   000F66  6A12               	clrf	1298,c
  2156                           
  2157                           ;'CURSOR_POSITION_SSD1306 ( CHARLOCX , CHARLOCY )
  2158   000F68  C514 F566          	movff	1300,1382
  2159   000F6C  C516 F567          	movff	1302,1383
  2160   000F70  DC80               	rcall	CURSOR_POSITION_SSD1306
  2161                           
  2162                           ;'1.14 ADDED TRANSACTION
  2163                           ;'****** GCB FONT SET HANDLER
  2164                           ;'IF CHARCODE>=178 AND CHARCODE<=202 THEN
  2165   000F72  C510 F505          	movff	1296,1285
  2166   000F76  0EB2               	movlw	178
  2167   000F78  6E09               	movwf	1289,c
  2168   000F7A  EC83  F00D         	call	SYSCOMPLESSTHAN
  2169   000F7E  1E00               	comf	1280,f,c
  2170   000F80  C500 F5A4          	movff	1280,1444
  2171   000F84  C510 F509          	movff	1296,1289
  2172   000F88  0ECA               	movlw	202
  2173   000F8A  6E05               	movwf	1285,c
  2174   000F8C  EC83  F00D         	call	SYSCOMPLESSTHAN
  2175   000F90  1E00               	comf	1280,f,c
  2176   000F92  0105               	banksel	1444
  2177   000F94  51A4               	movf	1444,w,b
  2178   000F96  1400               	andwf	1280,w,c
  2179   000F98  6F9E               	movwf	1438,b
  2180   000F9A  A19E               	btfss	1438,0,b
  2181   000F9C  D004               	bra	ENDIF52
  2182                           
  2183                           ;'CHARLOCY=CHARLOCY-1
  2184   000F9E  0E01               	movlw	1
  2185   000FA0  5E16               	subwf	1302,f,c
  2186   000FA2  0E00               	movlw	0
  2187   000FA4  5A17               	subwfb	1303,f,c
  2188   000FA6                     ENDIF52:
  2189                           	callstack 0
  2190                           
  2191                           ;'FOR CURRCHARCOL = 1 TO 5
  2192                           ;'LEGACY METHOD
  2193   000FA6  6A1C               	clrf	1308,c
  2194   000FA8                     SYSFORLOOP14:
  2195                           	callstack 0
  2196   000FA8  2A1C               	incf	1308,f,c
  2197   000FAA                     SYSSELECT1CASE1:
  2198                           	callstack 0
  2199   000FAA  041C               	decf	1308,w,c
  2200   000FAC  A4D8               	btfss	status,2,c
  2201   000FAE  D006               	bra	SYSSELECT1CASE2
  2202                           
  2203                           ;'CASE 1: READTABLE GLCDCHARCOL3, CHARCODE, CURRCHARVAL
  2204   000FB0  C510 F507          	movff	1296,1287
  2205   000FB4  0100               	banksel	0
  2206   000FB6  DDB9               	rcall	GLCDCHARCOL3
  2207   000FB8  6E1E               	movwf	1310,c
  2208                           
  2209                           ;'CASE 2: READTABLE GLCDCHARCOL4, CHARCODE, CURRCHARVAL
  2210   000FBA  D027               	bra	SYSSELECTEND1
  2211   000FBC                     SYSSELECT1CASE2:
  2212                           	callstack 0
  2213   000FBC  0E02               	movlw	2
  2214   000FBE  5C1C               	subwf	1308,w,c
  2215   000FC0  A4D8               	btfss	status,2,c
  2216   000FC2  D006               	bra	SYSSELECT1CASE3
  2217                           
  2218                           ;'CASE 2: READTABLE GLCDCHARCOL4, CHARCODE, CURRCHARVAL
  2219   000FC4  C510 F507          	movff	1296,1287
  2220   000FC8  0100               	banksel	0
  2221   000FCA  DDF9               	rcall	GLCDCHARCOL4
  2222   000FCC  6E1E               	movwf	1310,c
  2223                           
  2224                           ;'CASE 3: READTABLE GLCDCHARCOL5, CHARCODE, CURRCHARVAL
  2225   000FCE  D01D               	bra	SYSSELECTEND1
  2226   000FD0                     SYSSELECT1CASE3:
  2227                           	callstack 0
  2228   000FD0  0E03               	movlw	3
  2229   000FD2  5C1C               	subwf	1308,w,c
  2230   000FD4  A4D8               	btfss	status,2,c
  2231   000FD6  D006               	bra	SYSSELECT1CASE4
  2232                           
  2233                           ;'CASE 3: READTABLE GLCDCHARCOL5, CHARCODE, CURRCHARVAL
  2234   000FD8  C510 F507          	movff	1296,1287
  2235   000FDC  0100               	banksel	0
  2236   000FDE  DE39               	rcall	GLCDCHARCOL5
  2237   000FE0  6E1E               	movwf	1310,c
  2238                           
  2239                           ;'CASE 4: READTABLE GLCDCHARCOL6, CHARCODE, CURRCHARVAL
  2240   000FE2  D013               	bra	SYSSELECTEND1
  2241   000FE4                     SYSSELECT1CASE4:
  2242                           	callstack 0
  2243   000FE4  0E04               	movlw	4
  2244   000FE6  5C1C               	subwf	1308,w,c
  2245   000FE8  A4D8               	btfss	status,2,c
  2246   000FEA  D006               	bra	SYSSELECT1CASE5
  2247                           
  2248                           ;'CASE 4: READTABLE GLCDCHARCOL6, CHARCODE, CURRCHARVAL
  2249   000FEC  C510 F507          	movff	1296,1287
  2250   000FF0  0100               	banksel	0
  2251   000FF2  DE79               	rcall	GLCDCHARCOL6
  2252   000FF4  6E1E               	movwf	1310,c
  2253                           
  2254                           ;'CASE 5: READTABLE GLCDCHARCOL7, CHARCODE, CURRCHARVAL
  2255   000FF6  D009               	bra	SYSSELECTEND1
  2256   000FF8                     SYSSELECT1CASE5:
  2257                           	callstack 0
  2258   000FF8  0E05               	movlw	5
  2259   000FFA  5C1C               	subwf	1308,w,c
  2260   000FFC  A4D8               	btfss	status,2,c
  2261   000FFE  D005               	bra	SYSSELECTEND1
  2262                           
  2263                           ;'CASE 5: READTABLE GLCDCHARCOL7, CHARCODE, CURRCHARVAL
  2264   001000  C510 F507          	movff	1296,1287
  2265   001004  0100               	banksel	0
  2266   001006  DEB9               	rcall	GLCDCHARCOL7
  2267   001008  6E1E               	movwf	1310,c
  2268   00100A                     SYSSELECTEND1:
  2269                           	callstack 0
  2270                           
  2271                           ;'FULL MEMORY GLCD MODE
  2272                           ;'CHARROW=0
  2273   00100A  6A18               	clrf	1304,c
  2274   00100C  6A19               	clrf	1305,c
  2275                           
  2276                           ;'FOR CURRCHARROW = 1 TO 8
  2277                           ;'LEGACY METHOD
  2278   00100E  6A1D               	clrf	1309,c
  2279   001010                     SYSFORLOOP15:
  2280                           	callstack 0
  2281   001010  2A1D               	incf	1309,f,c
  2282                           
  2283                           ;'CHARCOLS=0
  2284   001012  6A13               	clrf	1299,c
  2285                           
  2286                           ;'FOR COL=1 TO GLCDFNTDEFAULTSIZE
  2287   001014  0E01               	movlw	1
  2288   001016  6E1B               	movwf	1307,c
  2289   001018                     SYSFORLOOP16:
  2290                           	callstack 0
  2291                           
  2292                           ;'CHARROWS=0
  2293   001018  6A1A               	clrf	1306,c
  2294                           
  2295                           ;'FOR ROW=1 TO GLCDFNTDEFAULTSIZE
  2296   00101A  0E01               	movlw	1
  2297   00101C  0105               	banksel	1397
  2298   00101E  6F75               	movwf	1397,b
  2299   001020                     SYSFORLOOP17:
  2300                           	callstack 0
  2301                           
  2302                           ;'IF CURRCHARVAL.0=1 THEN
  2303   001020  A01E               	btfss	1310,0,c
  2304   001022  D013               	bra	ELSE53_1
  2305                           
  2306                           ;'PSET [WORD]CHARLOCX + CHARCOL + CHARCOLS, [WORD]CHARLOCY + CHARROW + CHARROWS, LINECOLOUR
  2307   001024  5011               	movf	1297,w,c
  2308   001026  2414               	addwf	1300,w,c
  2309   001028  6FA4               	movwf	1444,b
  2310   00102A  5013               	movf	1299,w,c
  2311   00102C  25A4               	addwf	1444,w,b
  2312   00102E  6E3C               	movwf	1340,c
  2313   001030  5018               	movf	1304,w,c
  2314   001032  2416               	addwf	1302,w,c
  2315   001034  6FA4               	movwf	1444,b
  2316   001036  501A               	movf	1306,w,c
  2317   001038  25A4               	addwf	1444,w,b
  2318   00103A  6E3D               	movwf	1341,c
  2319   00103C  C54C F52D          	movff	1356,1325
  2320   001040  C54D F52E          	movff	1357,1326
  2321   001044  0100               	banksel	0
  2322   001046  DAEE               	rcall	PSET_SSD1306
  2323                           
  2324                           ;'ELSE
  2325   001048  D012               	bra	ENDIF53
  2326   00104A                     ELSE53_1:
  2327                           	callstack 0
  2328                           
  2329                           ;'PSET [WORD]CHARLOCX + CHARCOL + CHARCOLS, [WORD]CHARLOCY + CHARROW + CHARROWS, GLCDBACKGROUND
  2330   00104A  5011               	movf	1297,w,c
  2331   00104C  2414               	addwf	1300,w,c
  2332   00104E  6FA4               	movwf	1444,b
  2333   001050  5013               	movf	1299,w,c
  2334   001052  25A4               	addwf	1444,w,b
  2335   001054  6E3C               	movwf	1340,c
  2336   001056  5018               	movf	1304,w,c
  2337   001058  2416               	addwf	1302,w,c
  2338   00105A  6FA4               	movwf	1444,b
  2339   00105C  501A               	movf	1306,w,c
  2340   00105E  25A4               	addwf	1444,w,b
  2341   001060  6E3D               	movwf	1341,c
  2342   001062  C529 F52D          	movff	1321,1325
  2343   001066  C52A F52E          	movff	1322,1326
  2344   00106A  0100               	banksel	0
  2345   00106C  DADB               	rcall	PSET_SSD1306
  2346   00106E                     ENDIF53:
  2347                           	callstack 0
  2348                           
  2349                           ;'PUT OUT A WHITE INTERCHARACTER PIXEL/SPACE
  2350                           ;'PSET [WORD]CHARLOCX + ( GLCDFONTWIDTH * GLCDFNTDEFAULTSIZE) , [WORD]CHARLOCY + CHARROW + CHARROWS , GLCDBACKGROUND
  2351   00106E  5033               	movf	1331,w,c
  2352   001070  0232               	mulwf	1330,c
  2353   001072  C4F3 F5A4          	movff	prodl,1444
  2354   001076  0105               	banksel	1444
  2355   001078  51A4               	movf	1444,w,b
  2356   00107A  2414               	addwf	1300,w,c
  2357   00107C  6E3C               	movwf	1340,c
  2358   00107E  5018               	movf	1304,w,c
  2359   001080  2416               	addwf	1302,w,c
  2360   001082  6FA4               	movwf	1444,b
  2361   001084  501A               	movf	1306,w,c
  2362   001086  25A4               	addwf	1444,w,b
  2363   001088  6E3D               	movwf	1341,c
  2364   00108A  C529 F52D          	movff	1321,1325
  2365   00108E  C52A F52E          	movff	1322,1326
  2366   001092  0100               	banksel	0
  2367   001094  DAC7               	rcall	PSET_SSD1306
  2368                           
  2369                           ;'CHARROWS +=1
  2370   001096  2A1A               	incf	1306,f,c
  2371                           
  2372                           ;'NEXT ROW
  2373                           ;'POSITIVE VALUE STEP HANDLER IN FOR-NEXT STATEMENT :#4P 
  2374   001098  0105               	banksel	1397
  2375   00109A  5175               	movf	1397,w,b
  2376   00109C  5C32               	subwf	1330,w,c
  2377   00109E  6FA4               	movwf	1444,b
  2378   0010A0  C5A4 F505          	movff	1444,1285
  2379   0010A4  6A09               	clrf	1289,c
  2380   0010A6  0100               	banksel	0
  2381   0010A8  EC66  F00D         	call	SYSCOMPEQUAL
  2382   0010AC  1E00               	comf	1280,f,c
  2383   0010AE  A000               	btfss	1280,0,c
  2384   0010B0  D003               	bra	ENDIF54
  2385                           
  2386                           ;'SET LOOPVAR TO LOOPVAR + STEPVALUE WHERE STEPVALUE IS A POSITIVE VALUE
  2387   0010B2  0105               	banksel	1397
  2388   0010B4  2B75               	incf	1397,f,b
  2389   0010B6  D7B4               	bra	SYSFORLOOP17
  2390   0010B8                     ENDIF54:
  2391                           	callstack 0
  2392   0010B8                     SYSFORLOOPEND17:
  2393                           	callstack 0
  2394                           
  2395                           ;'CHARCOLS +=1
  2396   0010B8  2A13               	incf	1299,f,c
  2397                           
  2398                           ;'NEXT COL
  2399                           ;'POSITIVE VALUE STEP HANDLER IN FOR-NEXT STATEMENT :#4P 
  2400   0010BA  501B               	movf	1307,w,c
  2401   0010BC  5C32               	subwf	1330,w,c
  2402   0010BE  0105               	banksel	1444
  2403   0010C0  6FA4               	movwf	1444,b
  2404   0010C2  C5A4 F505          	movff	1444,1285
  2405   0010C6  6A09               	clrf	1289,c
  2406   0010C8  0100               	banksel	0
  2407   0010CA  EC66  F00D         	call	SYSCOMPEQUAL
  2408   0010CE  1E00               	comf	1280,f,c
  2409   0010D0  A000               	btfss	1280,0,c
  2410   0010D2  D002               	bra	ENDIF55
  2411                           
  2412                           ;'SET LOOPVAR TO LOOPVAR + STEPVALUE WHERE STEPVALUE IS A POSITIVE VALUE
  2413   0010D4  2A1B               	incf	1307,f,c
  2414   0010D6  D7A0               	bra	SYSFORLOOP16
  2415   0010D8                     ENDIF55:
  2416                           	callstack 0
  2417   0010D8                     SYSFORLOOPEND16:
  2418                           	callstack 0
  2419                           
  2420                           ;'ROTATE CURRCHARVAL RIGHT
  2421   0010D8  321E               	rrcf	1310,f,c
  2422                           
  2423                           ;'CHARROW +=GLCDFNTDEFAULTSIZE
  2424   0010DA  5032               	movf	1330,w,c
  2425   0010DC  2618               	addwf	1304,f,c
  2426   0010DE  0E00               	movlw	0
  2427   0010E0  2219               	addwfc	1305,f,c
  2428                           
  2429                           ;'NEXT
  2430   0010E2  0E08               	movlw	8
  2431   0010E4  5C1D               	subwf	1309,w,c
  2432   0010E6  A0D8               	btfss	status,0,c
  2433   0010E8  D793               	bra	SYSFORLOOP15
  2434   0010EA                     SYSFORLOOPEND15:
  2435                           	callstack 0
  2436                           
  2437                           ;'CHARCOL +=GLCDFNTDEFAULTSIZE
  2438   0010EA  5032               	movf	1330,w,c
  2439   0010EC  2611               	addwf	1297,f,c
  2440   0010EE  0E00               	movlw	0
  2441   0010F0  2212               	addwfc	1298,f,c
  2442                           
  2443                           ;'1.14 LOW MEMORY GLCD MODE
  2444                           ;'1.12 CHARACTER GLCD MODE
  2445                           ;'HANDLES SPECIFIC DRAW SEQUENCE. THIS CATERS FOR WRITE ONLY OF A BIT VALUE. NO READ OPERATION.
  2446                           ;'NEXT
  2447   0010F2  0E05               	movlw	5
  2448   0010F4  5C1C               	subwf	1308,w,c
  2449   0010F6  A0D8               	btfss	status,0,c
  2450   0010F8  D757               	bra	SYSFORLOOP14
  2451   0010FA                     SYSFORLOOPEND14:
  2452                           	callstack 0
  2453                           
  2454                           ;'****** OLED FONT SET HANDLER
  2455                           ;'1.14 ADDED TRANSACTION
  2456                           ;'RESTORE
  2457                           ;'GLCDBACKGROUND = 0
  2458   0010FA  6A29               	clrf	1321,c
  2459   0010FC  6A2A               	clrf	1322,c
  2460                           
  2461                           ;'GLCDFOREGROUND = 1
  2462   0010FE  0E01               	movlw	1
  2463   001100  6E34               	movwf	1332,c
  2464   001102  6A35               	clrf	1333,c
  2465   001104  0012               	return	
  2466   001106                     GLCDDRAWSTRING:
  2467                           	callstack 0
  2468                           
  2469                           ;'DIM GLCDPRINTLOC AS WORD
  2470                           ;'GLCDPRINTLOC = STRINGLOCX
  2471   001106  C579 F537          	movff	1401,1335
  2472   00110A  6A38               	clrf	1336,c
  2473                           
  2474                           ;'FOR XCHAR = 1 TO CHARS(0)
  2475   00110C  0E01               	movlw	1
  2476   00110E  0105               	banksel	1449
  2477   001110  6FA9               	movwf	1449,b
  2478   001112                     SYSFORLOOP4:
  2479                           	callstack 0
  2480                           
  2481                           ;'GLCDDRAWCHAR GLCDPRINTLOC , CHARLOCY , CHARS(XCHAR), LINECOLOUR
  2482   001112  C537 F514          	movff	1335,1300
  2483   001116  C538 F515          	movff	1336,1301
  2484   00111A  51A9               	movf	1449,w,b
  2485   00111C  257E               	addwf	1406,w,b
  2486   00111E  6EE9               	movwf	fsr0l,c
  2487   001120  0E00               	movlw	0
  2488   001122  217F               	addwfc	1407,w,b
  2489   001124  6EEA               	movwf	fsr0h,c
  2490   001126  C4EF F510          	movff	indf0,1296
  2491   00112A  0100               	banksel	0
  2492   00112C  DF07               	rcall	GLCDDRAWCHAR_SSD1306
  2493                           
  2494                           ;'GLCDPRINTINCREMENTPIXELPOSITIONMACRO
  2495                           ;'MACRO SOURCE: GLCD.H (1462)
  2496                           ;'GLCDPRINTLOC = GLCDPRINTLOC + ( GLCDFONTWIDTH * GLCDFNTDEFAULTSIZE )+1
  2497   00112E  5033               	movf	1331,w,c
  2498   001130  0232               	mulwf	1330,c
  2499   001132  C4F3 F5A4          	movff	prodl,1444
  2500   001136  0105               	banksel	1444
  2501   001138  51A4               	movf	1444,w,b
  2502   00113A  2437               	addwf	1335,w,c
  2503   00113C  6F9E               	movwf	1438,b
  2504   00113E  0E00               	movlw	0
  2505   001140  2038               	addwfc	1336,w,c
  2506   001142  6F9F               	movwf	1439,b
  2507   001144  0E01               	movlw	1
  2508   001146  259E               	addwf	1438,w,b
  2509   001148  6E37               	movwf	1335,c
  2510   00114A  0E00               	movlw	0
  2511   00114C  219F               	addwfc	1439,w,b
  2512   00114E  6E38               	movwf	1336,c
  2513                           
  2514                           ;'NEXT
  2515                           ;'POSITIVE VALUE STEP HANDLER IN FOR-NEXT STATEMENT :#4P 
  2516   001150  C57E F4E9          	movff	1406,fsr0l
  2517   001154  C57F F4EA          	movff	1407,fsr0h
  2518   001158  51A9               	movf	1449,w,b
  2519   00115A  5CEF               	subwf	indf0,w,c
  2520   00115C  6FA4               	movwf	1444,b
  2521   00115E  C5A4 F505          	movff	1444,1285
  2522   001162  6A09               	clrf	1289,c
  2523   001164  0100               	banksel	0
  2524   001166  EC66  F00D         	call	SYSCOMPEQUAL
  2525   00116A  1E00               	comf	1280,f,c
  2526   00116C  A000               	btfss	1280,0,c
  2527   00116E  D003               	bra	ENDIF7
  2528                           
  2529                           ;'SET LOOPVAR TO LOOPVAR + STEPVALUE WHERE STEPVALUE IS A POSITIVE VALUE
  2530   001170  0105               	banksel	1449
  2531   001172  2BA9               	incf	1449,f,b
  2532   001174  D7CE               	bra	SYSFORLOOP4
  2533   001176                     ENDIF7:
  2534                           	callstack 0
  2535   001176                     SYSFORLOOPEND4:
  2536                           	callstack 0
  2537   001176  0012               	return	
  2538   001178                     GLCDPRINT5:
  2539                           	callstack 0
  2540                           
  2541                           ;'GLCD.H SUB GLCDPRINT
  2542                           ;'DIM GLCDPRINTLOC  AS WORD
  2543                           ;'DIM GLCDPRINT_STRING_COUNTER, GLCDPRINTLEN AS BYTE
  2544                           ;'GLCDPRINTLEN = LCDPRINTDATA(0)
  2545   001178  C586 F4E9          	movff	1414,fsr0l
  2546   00117C  C587 F4EA          	movff	1415,fsr0h
  2547   001180  C4EF F536          	movff	indf0,1334
  2548                           
  2549                           ;'IF GLCDPRINTLEN = 0 THEN EXIT SUB
  2550   001184  5236               	movf	1334,f,c
  2551   001186  B4D8               	btfsc	status,2,c
  2552                           
  2553                           ;'IF GLCDPRINTLEN = 0 THEN EXIT SUB
  2554   001188  0012               	return	
  2555                           
  2556                           ;'IF GLCDPRINTLEN = 0 THEN EXIT SUB
  2557                           ;'GLCDPRINTLOC = PRINTLOCX
  2558   00118A  C56F F537          	movff	1391,1335
  2559   00118E  C570 F538          	movff	1392,1336
  2560                           
  2561                           ;'WRITE DATA
  2562                           ;'FOR GLCDPRINT_STRING_COUNTER = 1 TO GLCDPRINTLEN
  2563   001192  0E01               	movlw	1
  2564   001194  6E39               	movwf	1337,c
  2565   001196                     SYSFORLOOP2:
  2566                           	callstack 0
  2567                           
  2568                           ;'GLCDDRAWCHAR  GLCDPRINTLOC, PRINTLOCY, LCDPRINTDATA(GLCDPRINT_STRING_COUNTER)
  2569   001196  C537 F514          	movff	1335,1300
  2570   00119A  C538 F515          	movff	1336,1301
  2571   00119E  C571 F516          	movff	1393,1302
  2572   0011A2  C572 F517          	movff	1394,1303
  2573   0011A6  5039               	movf	1337,w,c
  2574   0011A8  0105               	banksel	1414
  2575   0011AA  2586               	addwf	1414,w,b
  2576   0011AC  6EE9               	movwf	fsr0l,c
  2577   0011AE  0E00               	movlw	0
  2578   0011B0  2187               	addwfc	1415,w,b
  2579   0011B2  6EEA               	movwf	fsr0h,c
  2580   0011B4  C4EF F510          	movff	indf0,1296
  2581   0011B8  C534 F54C          	movff	1332,1356
  2582   0011BC  C535 F54D          	movff	1333,1357
  2583   0011C0  0100               	banksel	0
  2584   0011C2  DEBC               	rcall	GLCDDRAWCHAR_SSD1306
  2585                           
  2586                           ;'GLCDPRINTINCREMENTPIXELPOSITIONMACRO
  2587                           ;'MACRO SOURCE: GLCD.H (1462)
  2588                           ;'GLCDPRINTLOC = GLCDPRINTLOC + ( GLCDFONTWIDTH * GLCDFNTDEFAULTSIZE )+1
  2589   0011C4  5033               	movf	1331,w,c
  2590   0011C6  0232               	mulwf	1330,c
  2591   0011C8  C4F3 F59E          	movff	prodl,1438
  2592   0011CC  0105               	banksel	1438
  2593   0011CE  519E               	movf	1438,w,b
  2594   0011D0  2437               	addwf	1335,w,c
  2595   0011D2  6FA2               	movwf	1442,b
  2596   0011D4  0E00               	movlw	0
  2597   0011D6  2038               	addwfc	1336,w,c
  2598   0011D8  6FA3               	movwf	1443,b
  2599   0011DA  0E01               	movlw	1
  2600   0011DC  25A2               	addwf	1442,w,b
  2601   0011DE  6E37               	movwf	1335,c
  2602   0011E0  0E00               	movlw	0
  2603   0011E2  21A3               	addwfc	1443,w,b
  2604   0011E4  6E38               	movwf	1336,c
  2605                           
  2606                           ;'NEXT
  2607                           ;'POSITIVE VALUE STEP HANDLER IN FOR-NEXT STATEMENT :#4P 
  2608   0011E6  5039               	movf	1337,w,c
  2609   0011E8  5C36               	subwf	1334,w,c
  2610   0011EA  6F9E               	movwf	1438,b
  2611   0011EC  C59E F505          	movff	1438,1285
  2612   0011F0  6A09               	clrf	1289,c
  2613   0011F2  0100               	banksel	0
  2614   0011F4  EC66  F00D         	call	SYSCOMPEQUAL
  2615   0011F8  1E00               	comf	1280,f,c
  2616   0011FA  A000               	btfss	1280,0,c
  2617   0011FC  D002               	bra	ENDIF3
  2618                           
  2619                           ;'SET LOOPVAR TO LOOPVAR + STEPVALUE WHERE STEPVALUE IS A POSITIVE VALUE
  2620   0011FE  2A39               	incf	1337,f,c
  2621   001200  D7CA               	bra	SYSFORLOOP2
  2622   001202                     ENDIF3:
  2623                           	callstack 0
  2624   001202                     SYSFORLOOPEND2:
  2625                           	callstack 0
  2626                           
  2627                           ;'UPDATE THE CURRENT X POSITION FOR GLCDPRINTSTRING
  2628                           ;'PRINTLOCX = GLCDPRINTLOC
  2629   001202  C537 F56F          	movff	1335,1391
  2630   001206  C538 F570          	movff	1336,1392
  2631   00120A  0012               	return	
  2632   00120C                     GLCDPRINT8:
  2633                           	callstack 0
  2634                           
  2635                           ;'DIM SYSCALCTEMPA AS LONG
  2636                           ;'DIM GLCDPRINTLOC AS WORD
  2637                           ;'DIM SYSPRINTBUFFER(10)
  2638                           ;'SYSPRINTBUFFLEN = 0
  2639   00120C  0105               	banksel	1428
  2640   00120E  6B94               	clrf	1428,b
  2641   001210                     SYSDOLOOP_S2:
  2642                           	callstack 0
  2643                           
  2644                           ;'DIVIDE NUMBER BY 10, REMAINDER INTO BUFFER
  2645                           ;'SYSPRINTBUFFLEN += 1
  2646   001210  0105               	banksel	1428
  2647   001212  2B94               	incf	1428,f,b
  2648                           
  2649                           ;'SYSPRINTBUFFER(SYSPRINTBUFFLEN) = LCDVALUE % 10
  2650   001214  EE04 F08C          	lfsr	0,4236
  2651   001218  5194               	movf	1428,w,b
  2652   00121A  26E9               	addwf	fsr0l,f,c
  2653   00121C  0E00               	movlw	0
  2654   00121E  22EA               	addwfc	fsr0h,f,c
  2655   001220  C548 F505          	movff	1352,1285
  2656   001224  C549 F506          	movff	1353,1286
  2657   001228  C54A F507          	movff	1354,1287
  2658   00122C  C54B F508          	movff	1355,1288
  2659   001230  0E0A               	movlw	10
  2660   001232  6E09               	movwf	1289,c
  2661   001234  6A0A               	clrf	1290,c
  2662   001236  6A0B               	clrf	1291,c
  2663   001238  6A0C               	clrf	1292,c
  2664   00123A  0100               	banksel	0
  2665   00123C  EC03  F00E         	call	SYSDIVSUB32
  2666   001240  C500 F4EF          	movff	1280,indf0
  2667                           
  2668                           ;'LCDVALUE = SYSCALCTEMPA
  2669   001244  C505 F548          	movff	1285,1352
  2670   001248  C506 F549          	movff	1286,1353
  2671   00124C  C507 F54A          	movff	1287,1354
  2672   001250  C508 F54B          	movff	1288,1355
  2673                           
  2674                           ;'LOOP WHILE LCDVALUE <> 0
  2675   001254  C548 F505          	movff	1352,1285
  2676   001258  C549 F506          	movff	1353,1286
  2677   00125C  C54A F507          	movff	1354,1287
  2678   001260  C54B F508          	movff	1355,1288
  2679   001264  6A09               	clrf	1289,c
  2680   001266  6A0A               	clrf	1290,c
  2681   001268  6A0B               	clrf	1291,c
  2682   00126A  6A0C               	clrf	1292,c
  2683   00126C  EC74  F00D         	call	SYSCOMPEQUAL32
  2684   001270  1E00               	comf	1280,f,c
  2685   001272  B000               	btfsc	1280,0,c
  2686   001274  D7CD               	bra	SYSDOLOOP_S2
  2687   001276                     SYSDOLOOP_E2:
  2688                           	callstack 0
  2689                           
  2690                           ;'DISPLAY
  2691                           ;'GLCDPRINTLOC = PRINTLOCX
  2692   001276  C56F F537          	movff	1391,1335
  2693   00127A  C570 F538          	movff	1392,1336
  2694                           
  2695                           ;'FOR GLCDPRINT_STRING_COUNTER = SYSPRINTBUFFLEN TO 1 STEP -1
  2696   00127E  C594 F539          	movff	1428,1337
  2697   001282                     SYSFORLOOP3:
  2698                           	callstack 0
  2699                           
  2700                           ;'INIT SYSFORLOOPSTEP2 :#0
  2701   001282  0105               	banksel	1412
  2702   001284  6984               	setf	1412,b
  2703   001286  6985               	setf	1413,b
  2704                           
  2705                           ;'GLCDDRAWCHAR GLCDPRINTLOC, PRINTLOCY, SYSPRINTBUFFER(GLCDPRINT_STRING_COUNTER) + 48
  2706   001288  C537 F514          	movff	1335,1300
  2707   00128C  C538 F515          	movff	1336,1301
  2708   001290  C571 F516          	movff	1393,1302
  2709   001294  C572 F517          	movff	1394,1303
  2710   001298  EE04 F08C          	lfsr	0,4236
  2711   00129C  5039               	movf	1337,w,c
  2712   00129E  26E9               	addwf	fsr0l,f,c
  2713   0012A0  0E00               	movlw	0
  2714   0012A2  22EA               	addwfc	fsr0h,f,c
  2715   0012A4  0E30               	movlw	48
  2716   0012A6  24EF               	addwf	indf0,w,c
  2717   0012A8  6E10               	movwf	1296,c
  2718   0012AA  C534 F54C          	movff	1332,1356
  2719   0012AE  C535 F54D          	movff	1333,1357
  2720   0012B2  0100               	banksel	0
  2721   0012B4  DE43               	rcall	GLCDDRAWCHAR_SSD1306
  2722                           
  2723                           ;'GLCDPRINTINCREMENTPIXELPOSITIONMACRO
  2724                           ;'MACRO SOURCE: GLCD.H (1462)
  2725                           ;'GLCDPRINTLOC = GLCDPRINTLOC + ( GLCDFONTWIDTH * GLCDFNTDEFAULTSIZE )+1
  2726   0012B6  5033               	movf	1331,w,c
  2727   0012B8  0232               	mulwf	1330,c
  2728   0012BA  C4F3 F5A4          	movff	prodl,1444
  2729   0012BE  0105               	banksel	1444
  2730   0012C0  51A4               	movf	1444,w,b
  2731   0012C2  2437               	addwf	1335,w,c
  2732   0012C4  6F9E               	movwf	1438,b
  2733   0012C6  0E00               	movlw	0
  2734   0012C8  2038               	addwfc	1336,w,c
  2735   0012CA  6F9F               	movwf	1439,b
  2736   0012CC  0E01               	movlw	1
  2737   0012CE  259E               	addwf	1438,w,b
  2738   0012D0  6E37               	movwf	1335,c
  2739   0012D2  0E00               	movlw	0
  2740   0012D4  219F               	addwfc	1439,w,b
  2741   0012D6  6E38               	movwf	1336,c
  2742                           
  2743                           ;'NEXT
  2744                           ;'INTEGER NEGATIVE STEP HANDLER IN FOR-NEXT STATEMENT
  2745   0012D8  AF85               	btfss	1413,7,b
  2746   0012DA  D01B               	bra	ELSE4_1
  2747                           
  2748                           ;'IF ( GLCDPRINT_STRING_COUNTER - 1) } -SYSFORLOOPSTEP2 THEN :#3N
  2749   0012DC  0439               	decf	1337,w,c
  2750   0012DE  6F9E               	movwf	1438,b
  2751   0012E0  1D84               	comf	1412,w,b
  2752   0012E2  6FA2               	movwf	1442,b
  2753   0012E4  1D85               	comf	1413,w,b
  2754   0012E6  6FA3               	movwf	1443,b
  2755   0012E8  2BA2               	incf	1442,f,b
  2756   0012EA  B4D8               	btfsc	status,2,c
  2757   0012EC  2BA3               	incf	1443,f,b
  2758   0012EE  C59E F505          	movff	1438,1285
  2759   0012F2  6A06               	clrf	1286,c
  2760   0012F4  C5A2 F509          	movff	1442,1289
  2761   0012F8  C5A3 F50A          	movff	1443,1290
  2762   0012FC  0100               	banksel	0
  2763   0012FE  EC96  F00D         	call	SYSCOMPLESSTHANINT
  2764   001302  1E00               	comf	1280,f,c
  2765   001304  A000               	btfss	1280,0,c
  2766   001306  D004               	bra	ENDIF5
  2767                           
  2768                           ;'SET LOOPVAR TO LOOPVAR + STEPVALUE WHERE STEPVALUE IS A NEGATIVE VALUE
  2769   001308  0105               	banksel	1412
  2770   00130A  5184               	movf	1412,w,b
  2771   00130C  2639               	addwf	1337,f,c
  2772   00130E  D7B9               	bra	SYSFORLOOP3
  2773   001310                     ENDIF5:
  2774                           	callstack 0
  2775   001310  D014               	bra	ENDIF4
  2776   001312                     ELSE4_1:
  2777                           	callstack 0
  2778                           
  2779                           ;'INTEGER POSITIVE STEP HANDLER IN FOR-NEXT STATEMENT
  2780                           ;'IF (1 - GLCDPRINT_STRING_COUNTER) } SYSFORLOOPSTEP2 THEN :#3P
  2781   001312  5039               	movf	1337,w,c
  2782   001314  0801               	sublw	1
  2783   001316  6F9E               	movwf	1438,b
  2784   001318  C59E F505          	movff	1438,1285
  2785   00131C  6A06               	clrf	1286,c
  2786   00131E  C584 F509          	movff	1412,1289
  2787   001322  C585 F50A          	movff	1413,1290
  2788   001326  0100               	banksel	0
  2789   001328  EC96  F00D         	call	SYSCOMPLESSTHANINT
  2790   00132C  1E00               	comf	1280,f,c
  2791   00132E  A000               	btfss	1280,0,c
  2792   001330  D004               	bra	ENDIF6
  2793                           
  2794                           ;'SET LOOPVAR TO LOOPVAR + STEPVALUE WHERE STEPVALUE IS A POSITIVE VALUE
  2795   001332  0105               	banksel	1412
  2796   001334  5184               	movf	1412,w,b
  2797   001336  2639               	addwf	1337,f,c
  2798   001338  D7A4               	bra	SYSFORLOOP3
  2799   00133A                     ENDIF6:
  2800                           	callstack 0
  2801   00133A                     ENDIF4:
  2802                           	callstack 0
  2803   00133A                     SYSFORLOOPEND3:
  2804                           	callstack 0
  2805                           
  2806                           ;'UPDATE THE CURRENT X POSITION FOR GLCDPRINTSTRING
  2807                           ;'PRINTLOCX = GLCDPRINTLOC
  2808   00133A  C537 F56F          	movff	1335,1391
  2809   00133E  C538 F570          	movff	1336,1392
  2810   001342  0012               	return	
  2811   001344                     HI2CINIT:
  2812                           	callstack 0
  2813                           
  2814                           ;'ASM SHOWDEBUG  THIS METHOD SETS THE VARIABLE `HI2CCURRENTMODE`, AND, IF REQUIRED CALLS THE METHOD `SI2CINIT` TO SET UP NEW MSSP MODULES - AKA K-MO
      +                          DE FAMILY CHIPS
  2815                           ;'HI2CCURRENTMODE = 0
  2816   001344  6A43               	clrf	1347,c
  2817                           
  2818                           ;'INITIALISE THE I2C MODULE
  2819                           ;'SI2CINIT
  2820   001346  D1F1               	bra	SI2CINIT
  2821   001348                     HI2CMODE:
  2822                           	callstack 0
  2823                           
  2824                           ;'ASM SHOWDEBUG  THIS METHOD SETS THE VARIABLE `HI2CCURRENTMODE`, AND, IF REQUIRED, SETS THE SSPCON1.BITS
  2825   001348  0012               	return	
  2826   00134A                     INITGLCD_SSD1306:
  2827                           	callstack 0
  2828                           
  2829                           ;'COLOURS //SET THESE FIRST
  2830                           ;'GLCDBACKGROUND = 0
  2831   00134A  6A29               	clrf	1321,c
  2832   00134C  6A2A               	clrf	1322,c
  2833                           
  2834                           ;'GLCDFOREGROUND = 1
  2835   00134E  0E01               	movlw	1
  2836   001350  6E34               	movwf	1332,c
  2837   001352  6A35               	clrf	1333,c
  2838                           
  2839                           ;'GLCDFONTWIDTH = 5
  2840   001354  0E05               	movlw	5
  2841   001356  6E33               	movwf	1331,c
  2842                           
  2843                           ;'GLCDFNTDEFAULTHEIGHT = 7  'USED BY GLCDPRINTSTRING AND GLCDPRINTSTRINGLN
  2844   001358  0E07               	movlw	7
  2845   00135A  6E31               	movwf	1329,c
  2846                           
  2847                           ;'DIM PRINTLOCX, PRINTLOCY AS WORD
  2848                           ;'GLCDFNTDEFAULT = 0
  2849   00135C  6A30               	clrf	1328,c
  2850                           
  2851                           ;'GLCDFNTDEFAULTSIZE = 1
  2852   00135E  0E01               	movlw	1
  2853   001360  6E32               	movwf	1330,c
  2854                           
  2855                           ;'WAIT 255 MS             'ADDED TO ENSURE THE CHARGE PUMP AND POWER IS OPERATIONAL.
  2856   001362  6802               	setf	1282,c
  2857   001364  6A03               	clrf	1283,c
  2858   001366  EC6C  F004         	call	DELAY_MS
  2859                           
  2860                           ;'HI2CMODE MASTER
  2861   00136A  0E0C               	movlw	12
  2862   00136C  6E43               	movwf	1347,c
  2863   00136E  DFEC               	rcall	HI2CMODE
  2864                           
  2865                           ;'WAIT 15 MS  'WAIT FOR POWER-UP AND RESET
  2866   001370  0E0F               	movlw	15
  2867   001372  6E02               	movwf	1282,c
  2868   001374  6A03               	clrf	1283,c
  2869   001376  EC6C  F004         	call	DELAY_MS
  2870                           
  2871                           ;'SETUP CODE FOR SSD1306 CONTROLLERS
  2872                           ;'INIT SEQUENCE FOR 128X64 OLED MODULE
  2873                           ;'WRITE_COMMAND_SSD1306(SSD1306_DISPLAYOFF)                    ' 0XAE
  2874   00137A  0EAE               	movlw	174
  2875   00137C  0105               	banksel	1398
  2876   00137E  6F76               	movwf	1398,b
  2877   001380  0100               	banksel	0
  2878   001382  ECE8  F00E         	call	WRITE_COMMAND_SSD1306
  2879                           
  2880                           ;'WRITE_COMMAND_SSD1306(SSD1306_DEACTIVATE_SCROLL)
  2881   001386  0E2E               	movlw	46
  2882   001388  0105               	banksel	1398
  2883   00138A  6F76               	movwf	1398,b
  2884   00138C  0100               	banksel	0
  2885   00138E  ECE8  F00E         	call	WRITE_COMMAND_SSD1306
  2886                           
  2887                           ;'WRITE_COMMAND_SSD1306(SSD1306_SETDISPLAYCLOCKDIV)            ' 0XD5
  2888   001392  0ED5               	movlw	213
  2889   001394  0105               	banksel	1398
  2890   001396  6F76               	movwf	1398,b
  2891   001398  0100               	banksel	0
  2892   00139A  ECE8  F00E         	call	WRITE_COMMAND_SSD1306
  2893                           
  2894                           ;'WRITE_COMMAND_SSD1306(0X80)                                  ' THE SUGGESTED RATIO 0X80
  2895   00139E  0E80               	movlw	128
  2896   0013A0  0105               	banksel	1398
  2897   0013A2  6F76               	movwf	1398,b
  2898   0013A4  0100               	banksel	0
  2899   0013A6  ECE8  F00E         	call	WRITE_COMMAND_SSD1306
  2900                           
  2901                           ;'WRITE_COMMAND_SSD1306(SSD1306_SETMULTIPLEX)                  ' 0XA8
  2902   0013AA  0EA8               	movlw	168
  2903   0013AC  0105               	banksel	1398
  2904   0013AE  6F76               	movwf	1398,b
  2905   0013B0  0100               	banksel	0
  2906   0013B2  ECE8  F00E         	call	WRITE_COMMAND_SSD1306
  2907                           
  2908                           ;'WRITE_COMMAND_SSD1306(0X3F)                                 '64 PIXELS
  2909   0013B6  0E3F               	movlw	63
  2910   0013B8  0105               	banksel	1398
  2911   0013BA  6F76               	movwf	1398,b
  2912   0013BC  0100               	banksel	0
  2913   0013BE  ECE8  F00E         	call	WRITE_COMMAND_SSD1306
  2914                           
  2915                           ;'WRITE_COMMAND_SSD1306(SSD1306_SETDISPLAYOFFSET)              ' 0XD3
  2916   0013C2  0ED3               	movlw	211
  2917   0013C4  0105               	banksel	1398
  2918   0013C6  6F76               	movwf	1398,b
  2919   0013C8  0100               	banksel	0
  2920   0013CA  ECE8  F00E         	call	WRITE_COMMAND_SSD1306
  2921                           
  2922                           ;'WRITE_COMMAND_SSD1306(0X00)                                   ' NO OFFSET
  2923   0013CE  0105               	banksel	1398
  2924   0013D0  6B76               	clrf	1398,b
  2925   0013D2  0100               	banksel	0
  2926   0013D4  ECE8  F00E         	call	WRITE_COMMAND_SSD1306
  2927                           
  2928                           ;'WRITE_COMMAND_SSD1306(SSD1306_SETSTARTLINE | 0X00)            ' LINE #0
  2929   0013D8  0E40               	movlw	64
  2930   0013DA  0105               	banksel	1398
  2931   0013DC  6F76               	movwf	1398,b
  2932   0013DE  0100               	banksel	0
  2933   0013E0  ECE8  F00E         	call	WRITE_COMMAND_SSD1306
  2934                           
  2935                           ;'WRITE_COMMAND_SSD1306(SSD1306_CHARGEPUMP)                    ' 0X8D
  2936   0013E4  0E8D               	movlw	141
  2937   0013E6  0105               	banksel	1398
  2938   0013E8  6F76               	movwf	1398,b
  2939   0013EA  0100               	banksel	0
  2940   0013EC  ECE8  F00E         	call	WRITE_COMMAND_SSD1306
  2941                           
  2942                           ;'IF (SSD1306_VCCSTATE = SSD1306_EXTERNALVCC) THEN
  2943                           ;'WRITE_COMMAND_SSD1306(0X14)
  2944   0013F0  0E14               	movlw	20
  2945   0013F2  0105               	banksel	1398
  2946   0013F4  6F76               	movwf	1398,b
  2947   0013F6  0100               	banksel	0
  2948   0013F8  ECE8  F00E         	call	WRITE_COMMAND_SSD1306
  2949                           
  2950                           ;'END IF
  2951                           ;'WRITE_COMMAND_SSD1306(SSD1306_MEMORYMODE)                    ' 0X20
  2952   0013FC  0E20               	movlw	32
  2953   0013FE  0105               	banksel	1398
  2954   001400  6F76               	movwf	1398,b
  2955   001402  0100               	banksel	0
  2956   001404  ECE8  F00E         	call	WRITE_COMMAND_SSD1306
  2957                           
  2958                           ;'WRITE_COMMAND_SSD1306(0X00)                                  ' 0X00 ACT LIKE KS0108 - DO NOT SELECT!!
  2959                           ;'WRITE_COMMAND_SSD1306(0X10)                                  ' 0X01 ACT LIKE PCD8544
  2960   001408  0E10               	movlw	16
  2961   00140A  0105               	banksel	1398
  2962   00140C  6F76               	movwf	1398,b
  2963   00140E  0100               	banksel	0
  2964   001410  ECE8  F00E         	call	WRITE_COMMAND_SSD1306
  2965                           
  2966                           ;'WRITE_COMMAND_SSD1306(SSD1306_SEGREMAP | 0X1)
  2967   001414  0EA1               	movlw	161
  2968   001416  0105               	banksel	1398
  2969   001418  6F76               	movwf	1398,b
  2970   00141A  0100               	banksel	0
  2971   00141C  ECE8  F00E         	call	WRITE_COMMAND_SSD1306
  2972                           
  2973                           ;'WRITE_COMMAND_SSD1306(SSD1306_COMSCANDEC)
  2974   001420  0EC8               	movlw	200
  2975   001422  0105               	banksel	1398
  2976   001424  6F76               	movwf	1398,b
  2977   001426  0100               	banksel	0
  2978   001428  ECE8  F00E         	call	WRITE_COMMAND_SSD1306
  2979                           
  2980                           ;'WRITE_COMMAND_SSD1306(SSD1306_SETCOMPINS)                    ' 0XDA
  2981   00142C  0EDA               	movlw	218
  2982   00142E  0105               	banksel	1398
  2983   001430  6F76               	movwf	1398,b
  2984   001432  0100               	banksel	0
  2985   001434  ECE8  F00E         	call	WRITE_COMMAND_SSD1306
  2986                           
  2987                           ;'WRITE_COMMAND_SSD1306(0X12)                                 '64 PIXELS
  2988   001438  0E12               	movlw	18
  2989   00143A  0105               	banksel	1398
  2990   00143C  6F76               	movwf	1398,b
  2991   00143E  0100               	banksel	0
  2992   001440  ECE8  F00E         	call	WRITE_COMMAND_SSD1306
  2993                           
  2994                           ;'WRITE_COMMAND_SSD1306(SSD1306_SETCONTRAST)                   ' 0X81
  2995   001444  0E81               	movlw	129
  2996   001446  0105               	banksel	1398
  2997   001448  6F76               	movwf	1398,b
  2998   00144A  0100               	banksel	0
  2999   00144C  ECE8  F00E         	call	WRITE_COMMAND_SSD1306
  3000                           
  3001                           ;'IF SSD1306_VCCSTATE = SSD1306_EXTERNALVCC THEN
  3002                           ;'WRITE_COMMAND_SSD1306(0XCF)
  3003   001450  0ECF               	movlw	207
  3004   001452  0105               	banksel	1398
  3005   001454  6F76               	movwf	1398,b
  3006   001456  0100               	banksel	0
  3007   001458  ECE8  F00E         	call	WRITE_COMMAND_SSD1306
  3008                           
  3009                           ;'END IF
  3010                           ;'WRITE_COMMAND_SSD1306(SSD1306_SETPRECHARGE)                  ' 0XD9
  3011   00145C  0ED9               	movlw	217
  3012   00145E  0105               	banksel	1398
  3013   001460  6F76               	movwf	1398,b
  3014   001462  0100               	banksel	0
  3015   001464  ECE8  F00E         	call	WRITE_COMMAND_SSD1306
  3016                           
  3017                           ;'IF SSD1306_VCCSTATE = SSD1306_EXTERNALVCC THEN
  3018                           ;'WRITE_COMMAND_SSD1306(0XF1)
  3019   001468  0EF1               	movlw	241
  3020   00146A  0105               	banksel	1398
  3021   00146C  6F76               	movwf	1398,b
  3022   00146E  0100               	banksel	0
  3023   001470  ECE8  F00E         	call	WRITE_COMMAND_SSD1306
  3024                           
  3025                           ;'END IF
  3026                           ;'WRITE_COMMAND_SSD1306(SSD1306_SETVCOMDETECT)                 ' 0XDB
  3027   001474  0EDB               	movlw	219
  3028   001476  0105               	banksel	1398
  3029   001478  6F76               	movwf	1398,b
  3030   00147A  0100               	banksel	0
  3031   00147C  ECE8  F00E         	call	WRITE_COMMAND_SSD1306
  3032                           
  3033                           ;'WRITE_COMMAND_SSD1306(0X40)
  3034   001480  0E40               	movlw	64
  3035   001482  0105               	banksel	1398
  3036   001484  6F76               	movwf	1398,b
  3037   001486  0100               	banksel	0
  3038   001488  ECE8  F00E         	call	WRITE_COMMAND_SSD1306
  3039                           
  3040                           ;'WRITE_COMMAND_SSD1306(SSD1306_DISPLAYALLON_RESUME)           ' 0XA4
  3041   00148C  0EA4               	movlw	164
  3042   00148E  0105               	banksel	1398
  3043   001490  6F76               	movwf	1398,b
  3044   001492  0100               	banksel	0
  3045   001494  ECE8  F00E         	call	WRITE_COMMAND_SSD1306
  3046                           
  3047                           ;'WRITE_COMMAND_SSD1306(SSD1306_NORMALDISPLAY)                 ' 0XA6
  3048   001498  0EA6               	movlw	166
  3049   00149A  0105               	banksel	1398
  3050   00149C  6F76               	movwf	1398,b
  3051   00149E  0100               	banksel	0
  3052   0014A0  ECE8  F00E         	call	WRITE_COMMAND_SSD1306
  3053                           
  3054                           ;'CLEAR SCREEN HERE
  3055                           ;'GLCDCLS_SSD1306
  3056   0014A4  DCB4               	rcall	GLCDCLS_SSD1306
  3057                           
  3058                           ;'WRITE_COMMAND_SSD1306(SSD1306_DISPLAYON)                     '--TURN ON OLED PANEL
  3059   0014A6  0EAF               	movlw	175
  3060   0014A8  0105               	banksel	1398
  3061   0014AA  6F76               	movwf	1398,b
  3062   0014AC  0100               	banksel	0
  3063   0014AE  EFE8  F00E         	goto	WRITE_COMMAND_SSD1306
  3064   0014B2                     INITPPS:
  3065                           	callstack 0
  3066                           
  3067                           ;'MODULE: I2C1
  3068                           ;'RB6PPS = 0X001C    // SCL1 > RB6
  3069   0014B2  0E1C               	movlw	28
  3070   0014B4  0103               	banksel	807
  3071   0014B6  6F27               	movwf	807,b
  3072                           
  3073                           ;'I2C1SCLPPS = 0X000E    // RB6 > SCL1 (BI-DIRECTIONAL)
  3074   0014B8  0E0E               	movlw	14
  3075   0014BA  6FAD               	movwf	941,b
  3076                           
  3077                           ;'RB5PPS = 0X001D    // SDA1 > RB5
  3078   0014BC  0E1D               	movlw	29
  3079   0014BE  6F26               	movwf	806,b
  3080                           
  3081                           ;'I2C1SDAPPS = 0X000D    // RB5 > SDA1 (BI-DIRECTIONAL)
  3082   0014C0  0E0D               	movlw	13
  3083   0014C2  6FAE               	movwf	942,b
  3084                           
  3085                           ;'MODULE: UART PIN DIRECTIONS
  3086                           ;'DIR PORTB.7 OUT    // MAKE TX1 PIN AN OUTPUT
  3087   0014C4  9E8E               	bcf	1166,7,c
  3088                           
  3089                           ;'MODULE: UART1
  3090                           ;'RB7PPS = 0X0013    // TX1 > RB7
  3091   0014C6  0E13               	movlw	19
  3092   0014C8  6F28               	movwf	808,b
  3093   0014CA  0100               	banksel	0
  3094   0014CC  0012               	return	
  3095   0014CE                     INITSYS:
  3096                           	callstack 0
  3097                           
  3098                           ;'CLEAR BSR
  3099                           ;'MOVLB 0
  3100   0014CE  0100               	movlb	0
  3101                           
  3102                           ;'ASM SHOWDEBUG DEFAULT SETTINGS FOR MICROCONTROLLERS WITH _OSCCON1_
  3103                           ;DEFAULT OSCCON1,NOSC HFINTOSC; NDIV 1 - COMMON AS THIS SIMPLY SETS THE HFINTOSC
  3104                           ;'OSCCON1 = 0X60
  3105   0014D0  0E60               	movlw	96
  3106   0014D2  6F7A               	movwf	122,b
  3107                           
  3108                           ;'DEFAULT VALUE TYPICALLY, CSWHOLD MAY PROCEED; SOSCPWR LOW POWER
  3109                           ;'OSCCON3 = 0X00
  3110   0014D4  6B7C               	clrf	124,b
  3111                           
  3112                           ;'DEFAULT VALUE TYPICALLY, MFOEN DISABLED; LFOEN DISABLED; ADOEN DISABLED; SOSCEN DISABLED; EXTOEN DISABLED; HFOEN DISABLED
  3113                           ;'OSCEN = 0X00
  3114   0014D6  6B7E               	clrf	126,b
  3115                           
  3116                           ;'DEFAULT VALUE
  3117                           ;'OSCTUNE = 0X00
  3118   0014D8  6B7F               	clrf	127,b
  3119                           
  3120                           ;'ASM SHOWDEBUG THE MCU IS A CHIP FAMILY 16
  3121                           ;'SECTION SUPPORTS MANY MCUS, 18FXXK40, 18FXXK42 ETC THAT HAVE NDIV3 BIT
  3122                           ;'ASM SHOWDEBUG OSCCON TYPE IS 101
  3123                           ;'OSCCON1 = 0X60          // SETTING OSCCON1 IMPLIES CLEARING CLEAR NDIV3:0
  3124   0014DA  0E60               	movlw	96
  3125   0014DC  6F7A               	movwf	122,b
  3126                           
  3127                           ;'OSCFRQ = 0B00001000  '64MHZ
  3128   0014DE  0E08               	movlw	8
  3129   0014E0  6F80               	movwf	128,b
  3130                           
  3131                           ;'ASM SHOWDEBUG _COMPLETE_THE_CHIP_SETUP_OF_BSR_ADCS_ANSEL_AND_OTHER_KEY_SETUP_REGISTERS_OR_REGISTER_BITS
  3132                           ;'CLEAR TBLPTRU
  3133                           ;'TBLPTRU = 0
  3134   0014E2  6AF8               	clrf	tblptru,c
  3135                           
  3136                           ;'ENSURE ALL PORTS ARE SET FOR DIGITAL I/O AND, TURN OFF A/D
  3137                           ;'SET ADFM OFF
  3138   0014E4  0102               	banksel	559
  3139   0014E6  952F               	bcf	559,2,b
  3140                           
  3141                           ;'SWITCH OFF A/D VAR(ADCON0)
  3142                           ;'SET ADCON0.ADON OFF
  3143   0014E8  9F2F               	bcf	559,7,b
  3144                           
  3145                           ;'ANSELA = 0
  3146   0014EA  0104               	banksel	1046
  3147   0014EC  6B16               	clrf	1046,b
  3148                           
  3149                           ;'ANSELB = 0
  3150   0014EE  6B20               	clrf	1056,b
  3151                           
  3152                           ;'ANSELC = 0
  3153   0014F0  6B2A               	clrf	1066,b
  3154                           
  3155                           ;'TURN OFF ALL PORTS
  3156                           ;'PORTA = 0
  3157   0014F2  6A87               	clrf	1159,c
  3158                           
  3159                           ;'PORTB = 0
  3160   0014F4  6A88               	clrf	1160,c
  3161                           
  3162                           ;'PORTC = 0
  3163   0014F6  6A89               	clrf	1161,c
  3164   0014F8  0100               	banksel	0
  3165   0014FA  0012               	return	
  3166   0014FC                     FN_PAD:
  3167                           	callstack 0
  3168                           
  3169                           ;'CHECK LENGTH OF SYSINSTRING
  3170                           ;'IF SYSINSTRING(0) = LONGER OR EQUAL SYSSTRLEN THEN
  3171                           ;'GIVE BACK SYSINSTRING AND EXIT FUNCTION
  3172                           ;'IF SYSINSTRING(0) < SYSSTRLEN THEN
  3173   0014FC  C59C F4E9          	movff	1436,fsr0l
  3174   001500  C59D F4EA          	movff	1437,fsr0h
  3175   001504  0105               	banksel	1433
  3176   001506  5199               	movf	1433,w,b
  3177   001508  5CEF               	subwf	indf0,w,c
  3178   00150A  B0D8               	btfsc	status,0,c
  3179   00150C  D05B               	bra	ELSE42_1
  3180                           
  3181                           ;'SYSCHARCOUNT = SYSINSTRING(0)
  3182   00150E  C59C F4E9          	movff	1436,fsr0l
  3183   001512  C59D F4EA          	movff	1437,fsr0h
  3184   001516  C4EF F57D          	movff	indf0,1405
  3185                           
  3186                           ;'CLEAR OUTPUT STRING
  3187                           ;'PAD=""
  3188   00151A  EE14 F0AD          	lfsr	1,4269
  3189   00151E  0EC4               	movlw	low STRINGTABLE81
  3190   001520  6EF6               	movwf	tblptrl,c
  3191   001522  0E1D               	movlw	high STRINGTABLE81
  3192   001524  6EF7               	movwf	tblptrh,c
  3193   001526  0E00               	movlw	low (STRINGTABLE81 shr (0+16))
  3194   001528  6EF8               	movwf	tblptru,c
  3195   00152A  0100               	banksel	0
  3196   00152C  ECAB  F00E         	call	SYSREADSTRING
  3197                           
  3198                           ;'COPY LEFTMOST CHARACTERS
  3199                           ;'FOR SYSSTRINGTEMP = 1 TO SYSCHARCOUNT
  3200   001530  0E01               	movlw	1
  3201   001532  0105               	banksel	1432
  3202   001534  6F98               	movwf	1432,b
  3203   001536                     SYSFORLOOP8:
  3204                           	callstack 0
  3205                           
  3206                           ;'PAD(SYSSTRINGTEMP) = SYSINSTRING(SYSSTRINGTEMP)
  3207   001536  5198               	movf	1432,w,b
  3208   001538  259C               	addwf	1436,w,b
  3209   00153A  6EE9               	movwf	fsr0l,c
  3210   00153C  0E00               	movlw	0
  3211   00153E  219D               	addwfc	1437,w,b
  3212   001540  6EEA               	movwf	fsr0h,c
  3213   001542  C4EE F57B          	movff	postinc0,1403
  3214   001546  C57B F57C          	movff	1403,1404
  3215   00154A  EE04 F0AD          	lfsr	0,4269
  3216   00154E  5198               	movf	1432,w,b
  3217   001550  26E9               	addwf	fsr0l,f,c
  3218   001552  0E00               	movlw	0
  3219   001554  22EA               	addwfc	fsr0h,f,c
  3220   001556  C57C F4EE          	movff	1404,postinc0
  3221                           
  3222                           ;'NEXT
  3223                           ;'POSITIVE VALUE STEP HANDLER IN FOR-NEXT STATEMENT :#4P 
  3224   00155A  5198               	movf	1432,w,b
  3225   00155C  5D7D               	subwf	1405,w,b
  3226   00155E  6FA4               	movwf	1444,b
  3227   001560  C5A4 F505          	movff	1444,1285
  3228   001564  6A09               	clrf	1289,c
  3229   001566  0100               	banksel	0
  3230   001568  DAB1               	rcall	SYSCOMPEQUAL
  3231   00156A  1E00               	comf	1280,f,c
  3232   00156C  A000               	btfss	1280,0,c
  3233   00156E  D003               	bra	ENDIF43
  3234                           
  3235                           ;'SET LOOPVAR TO LOOPVAR + STEPVALUE WHERE STEPVALUE IS A POSITIVE VALUE
  3236   001570  0105               	banksel	1432
  3237   001572  2B98               	incf	1432,f,b
  3238   001574  D7E0               	bra	SYSFORLOOP8
  3239   001576                     ENDIF43:
  3240                           	callstack 0
  3241   001576                     SYSFORLOOPEND8:
  3242                           	callstack 0
  3243                           
  3244                           ;'FOR SYSSTRINGTEMP = SYSCHARCOUNT+1 TO SYSSTRLEN
  3245   001576  0105               	banksel	1405
  3246   001578  297D               	incf	1405,w,b
  3247   00157A  6F98               	movwf	1432,b
  3248   00157C                     SYSFORLOOP9:
  3249                           	callstack 0
  3250                           
  3251                           ;'PAD(SYSSTRINGTEMP) = SYSINSTRING3(1)
  3252   00157C  0E01               	movlw	1
  3253   00157E  259A               	addwf	1434,w,b
  3254   001580  6EE9               	movwf	fsr0l,c
  3255   001582  0E00               	movlw	0
  3256   001584  219B               	addwfc	1435,w,b
  3257   001586  6EEA               	movwf	fsr0h,c
  3258   001588  C4EE F57C          	movff	postinc0,1404
  3259   00158C  C57C F57B          	movff	1404,1403
  3260   001590  EE04 F0AD          	lfsr	0,4269
  3261   001594  5198               	movf	1432,w,b
  3262   001596  26E9               	addwf	fsr0l,f,c
  3263   001598  0E00               	movlw	0
  3264   00159A  22EA               	addwfc	fsr0h,f,c
  3265   00159C  C57B F4EE          	movff	1403,postinc0
  3266                           
  3267                           ;'NEXT
  3268                           ;'POSITIVE VALUE STEP HANDLER IN FOR-NEXT STATEMENT :#4P 
  3269   0015A0  5198               	movf	1432,w,b
  3270   0015A2  5D99               	subwf	1433,w,b
  3271   0015A4  6FA4               	movwf	1444,b
  3272   0015A6  C5A4 F505          	movff	1444,1285
  3273   0015AA  6A09               	clrf	1289,c
  3274   0015AC  0100               	banksel	0
  3275   0015AE  DA8E               	rcall	SYSCOMPEQUAL
  3276   0015B0  1E00               	comf	1280,f,c
  3277   0015B2  A000               	btfss	1280,0,c
  3278   0015B4  D003               	bra	ENDIF44
  3279                           
  3280                           ;'SET LOOPVAR TO LOOPVAR + STEPVALUE WHERE STEPVALUE IS A POSITIVE VALUE
  3281   0015B6  0105               	banksel	1432
  3282   0015B8  2B98               	incf	1432,f,b
  3283   0015BA  D7E0               	bra	SYSFORLOOP9
  3284   0015BC                     ENDIF44:
  3285                           	callstack 0
  3286   0015BC                     SYSFORLOOPEND9:
  3287                           	callstack 0
  3288                           
  3289                           ;'SET NEW LENGTH TO PAD
  3290                           ;'PAD(0) = SYSSTRLEN
  3291   0015BC  0061 F665 F0AD     	movffl	1433,4269
  3292                           
  3293                           ;'ELSE
  3294   0015C2  D02F               	bra	ENDIF42
  3295   0015C4                     ELSE42_1:
  3296                           	callstack 0
  3297                           
  3298                           ;'SYSINSTRING IS EQUAL OR LONGER THAN SYSSTRLEN
  3299                           ;'GIVE BACK OLD STRING; COPY SYSINSTRING TO PAD
  3300                           ;'FOR SYSSTRINGTEMP = 1 TO SYSINSTRING(0)
  3301   0015C4  0E01               	movlw	1
  3302   0015C6  6F98               	movwf	1432,b
  3303   0015C8                     SYSFORLOOP10:
  3304                           	callstack 0
  3305                           
  3306                           ;'PAD(SYSSTRINGTEMP) = SYSINSTRING(SYSSTRINGTEMP)
  3307   0015C8  5198               	movf	1432,w,b
  3308   0015CA  259C               	addwf	1436,w,b
  3309   0015CC  6EE9               	movwf	fsr0l,c
  3310   0015CE  0E00               	movlw	0
  3311   0015D0  219D               	addwfc	1437,w,b
  3312   0015D2  6EEA               	movwf	fsr0h,c
  3313   0015D4  C4EE F57B          	movff	postinc0,1403
  3314   0015D8  C57B F57C          	movff	1403,1404
  3315   0015DC  EE04 F0AD          	lfsr	0,4269
  3316   0015E0  5198               	movf	1432,w,b
  3317   0015E2  26E9               	addwf	fsr0l,f,c
  3318   0015E4  0E00               	movlw	0
  3319   0015E6  22EA               	addwfc	fsr0h,f,c
  3320   0015E8  C57C F4EE          	movff	1404,postinc0
  3321                           
  3322                           ;'NEXT
  3323                           ;'POSITIVE VALUE STEP HANDLER IN FOR-NEXT STATEMENT :#4P 
  3324   0015EC  C59C F4E9          	movff	1436,fsr0l
  3325   0015F0  C59D F4EA          	movff	1437,fsr0h
  3326   0015F4  5198               	movf	1432,w,b
  3327   0015F6  5CEF               	subwf	indf0,w,c
  3328   0015F8  6FA4               	movwf	1444,b
  3329   0015FA  C5A4 F505          	movff	1444,1285
  3330   0015FE  6A09               	clrf	1289,c
  3331   001600  0100               	banksel	0
  3332   001602  DA64               	rcall	SYSCOMPEQUAL
  3333   001604  1E00               	comf	1280,f,c
  3334   001606  A000               	btfss	1280,0,c
  3335   001608  D003               	bra	ENDIF45
  3336                           
  3337                           ;'SET LOOPVAR TO LOOPVAR + STEPVALUE WHERE STEPVALUE IS A POSITIVE VALUE
  3338   00160A  0105               	banksel	1432
  3339   00160C  2B98               	incf	1432,f,b
  3340   00160E  D7DC               	bra	SYSFORLOOP10
  3341   001610                     ENDIF45:
  3342                           	callstack 0
  3343   001610                     SYSFORLOOPEND10:
  3344                           	callstack 0
  3345                           
  3346                           ;'PAD(0) = SYSINSTRING(0)
  3347   001610  C59C F4E9          	movff	1436,fsr0l
  3348   001614  C59D F4EA          	movff	1437,fsr0h
  3349   001618  C4EE F57B          	movff	postinc0,1403
  3350   00161C  0061 F5ED F0AD     	movffl	1403,4269
  3351   001622                     ENDIF42:
  3352                           	callstack 0
  3353   001622  0012               	return	
  3354   001624                     PSET_SSD1306:
  3355                           	callstack 0
  3356                           
  3357                           ;'SET PIXEL AT X, Y ON LCD TO STATE
  3358                           ;'X IS 0 TO 127
  3359                           ;'Y IS 0 TO 63
  3360                           ;'ORIGIN IN TOP LEFT
  3361                           ;'ANYTHING OFF SCREEN WITH BE REJECTED
  3362                           ;'IF GLCDX => GLCD_WIDTH OR GLCDY => GLCD_HEIGHT THEN
  3363   001624  C53C F505          	movff	1340,1285
  3364   001628  0E80               	movlw	128
  3365   00162A  6E09               	movwf	1289,c
  3366   00162C  DA6C               	rcall	SYSCOMPLESSTHAN
  3367   00162E  1E00               	comf	1280,f,c
  3368   001630  C500 F5A4          	movff	1280,1444
  3369   001634  C53D F505          	movff	1341,1285
  3370   001638  0E40               	movlw	64
  3371   00163A  6E09               	movwf	1289,c
  3372   00163C  DA64               	rcall	SYSCOMPLESSTHAN
  3373   00163E  1E00               	comf	1280,f,c
  3374   001640  0105               	banksel	1444
  3375   001642  51A4               	movf	1444,w,b
  3376   001644  1000               	iorwf	1280,w,c
  3377   001646  6F9E               	movwf	1438,b
  3378   001648  A19E               	btfss	1438,0,b
  3379   00164A  D002               	bra	ENDIF62
  3380                           
  3381                           ;'EXIT SUB
  3382   00164C  0100               	banksel	0
  3383   00164E  0012               	return	
  3384   001650                     ENDIF62:
  3385                           	callstack 0
  3386                           
  3387                           ;'1.14 ADDRESSES CORRECT DEVICE HORIZONAL PAGE
  3388                           ;'DON'T NEED TO DO THESE CALCULATIONS FOR ((CWG1CON1) and 0FFh), 5, b LOWMEMORY_GLCD_MODE
  3389                           ;'SSD1306_BUFFERLOCATIONCALC = ( GLCDY / 8 )* GLCD_WIDTH
  3390                           ;'FASTER THAN /8
  3391                           ;'SSD1306_BUFFERLOCATIONCALC = GLCDY
  3392   001650  C53D F577          	movff	1341,1399
  3393   001654  6B78               	clrf	1400,b
  3394                           
  3395                           ;'REPEAT 3
  3396   001656  0E03               	movlw	3
  3397   001658  6F95               	movwf	1429,b
  3398   00165A                     SYSREPEATLOOP1:
  3399                           	callstack 0
  3400                           
  3401                           ;'SET C OFF
  3402   00165A  90D8               	bcf	status,0,c
  3403                           
  3404                           ;'ROTATE SSD1306_BUFFERLOCATIONCALC RIGHT
  3405   00165C  3378               	rrcf	1400,f,b
  3406   00165E  3377               	rrcf	1399,f,b
  3407                           
  3408                           ;'END REPEAT
  3409   001660  2F95               	decfsz	1429,f,b
  3410   001662  D7FB               	bra	SYSREPEATLOOP1
  3411   001664                     SYSREPEATLOOPEND1:
  3412                           	callstack 0
  3413                           
  3414                           ;'FASTER THAN * 128
  3415                           ;'SET C OFF
  3416   001664  90D8               	bcf	status,0,c
  3417                           
  3418                           ;'REPEAT 7
  3419   001666  0E07               	movlw	7
  3420   001668  6F95               	movwf	1429,b
  3421   00166A                     SYSREPEATLOOP2:
  3422                           	callstack 0
  3423                           
  3424                           ;'ROTATE SSD1306_BUFFERLOCATIONCALC LEFT
  3425   00166A  3777               	rlcf	1399,f,b
  3426   00166C  3778               	rlcf	1400,f,b
  3427                           
  3428                           ;'END REPEAT
  3429   00166E  2F95               	decfsz	1429,f,b
  3430   001670  D7FC               	bra	SYSREPEATLOOP2
  3431   001672                     SYSREPEATLOOPEND2:
  3432                           	callstack 0
  3433                           
  3434                           ;'SSD1306_BUFFERLOCATIONCALC = GLCDX + SSD1306_BUFFERLOCATIONCALC + 1
  3435   001672  5177               	movf	1399,w,b
  3436   001674  243C               	addwf	1340,w,c
  3437   001676  6F9E               	movwf	1438,b
  3438   001678  6BA4               	clrf	1444,b
  3439   00167A  5178               	movf	1400,w,b
  3440   00167C  21A4               	addwfc	1444,w,b
  3441   00167E  6F9F               	movwf	1439,b
  3442   001680  0E01               	movlw	1
  3443   001682  259E               	addwf	1438,w,b
  3444   001684  6F77               	movwf	1399,b
  3445   001686  0E00               	movlw	0
  3446   001688  219F               	addwfc	1439,w,b
  3447   00168A  6F78               	movwf	1400,b
  3448                           
  3449                           ;'ANYTHING BEYOND BUFFER BOUNDARY?
  3450                           ;'WHY? X = 127 AND Y = 64 (Y IS OVER 63!) WILL HAVE PASSED FIRST CHECK....
  3451                           ;'IF SSD1306_BUFFERLOCATIONCALC > GLCD_HEIGHT * GLCD_WIDTH THEN
  3452   00168C  C577 F509          	movff	1399,1289
  3453   001690  C578 F50A          	movff	1400,1290
  3454   001694  6A05               	clrf	1285,c
  3455   001696  0E20               	movlw	32
  3456   001698  6E06               	movwf	1286,c
  3457   00169A  0100               	banksel	0
  3458   00169C  DA39               	rcall	SYSCOMPLESSTHAN16
  3459   00169E  B000               	btfsc	1280,0,c
  3460                           
  3461                           ;'EXIT SUB
  3462   0016A0  0012               	return	
  3463                           
  3464                           ;'END IF
  3465                           ;'GLCDDATATEMP = SSD1306_BUFFERALIAS(SSD1306_BUFFERLOCATIONCALC)
  3466   0016A2  EE04 F0FF          	lfsr	0,4351
  3467   0016A6  0105               	banksel	1399
  3468   0016A8  5177               	movf	1399,w,b
  3469   0016AA  26E9               	addwf	fsr0l,f,c
  3470   0016AC  5178               	movf	1400,w,b
  3471   0016AE  22EA               	addwfc	fsr0h,f,c
  3472   0016B0  C4EF F52F          	movff	indf0,1327
  3473                           
  3474                           ;'CHANGE DATA TO SET/CLEAR PIXEL
  3475                           ;'GLCDBITNO = GLCDY AND 7
  3476   0016B4  0E07               	movlw	7
  3477   0016B6  143D               	andwf	1341,w,c
  3478   0016B8  6E2B               	movwf	1323,c
  3479                           
  3480                           ;'IF GLCDCOLOUR.0 = 0 THEN
  3481   0016BA  B02D               	btfsc	1325,0,c
  3482   0016BC  D004               	bra	ELSE64_1
  3483                           
  3484                           ;'GLCDCHANGE = 254
  3485   0016BE  0EFE               	movlw	254
  3486   0016C0  6E2C               	movwf	1324,c
  3487                           
  3488                           ;'SET C ON
  3489   0016C2  80D8               	bsf	status,0,c
  3490                           
  3491                           ;'ELSE
  3492   0016C4  D003               	bra	ENDIF64
  3493   0016C6                     ELSE64_1:
  3494                           	callstack 0
  3495                           
  3496                           ;'GLCDCHANGE = 1
  3497   0016C6  0E01               	movlw	1
  3498   0016C8  6E2C               	movwf	1324,c
  3499                           
  3500                           ;'SET C OFF
  3501   0016CA  90D8               	bcf	status,0,c
  3502   0016CC                     ENDIF64:
  3503                           	callstack 0
  3504                           
  3505                           ;'REPEAT GLCDBITNO
  3506   0016CC  C52B F595          	movff	1323,1429
  3507   0016D0  5395               	movf	1429,f,b
  3508   0016D2  B4D8               	btfsc	status,2,c
  3509   0016D4  D003               	bra	SYSREPEATLOOPEND3
  3510   0016D6                     SYSREPEATLOOP3:
  3511                           	callstack 0
  3512                           
  3513                           ;'ROTATE GLCDCHANGE LEFT
  3514   0016D6  362C               	rlcf	1324,f,c
  3515                           
  3516                           ;'END REPEAT
  3517   0016D8  2F95               	decfsz	1429,f,b
  3518   0016DA  D7FD               	bra	SYSREPEATLOOP3
  3519   0016DC                     SYSREPEATLOOPEND3:
  3520                           	callstack 0
  3521                           
  3522                           ;'IF GLCDCOLOUR.0 = 0 THEN
  3523   0016DC  B02D               	btfsc	1325,0,c
  3524   0016DE  D004               	bra	ELSE65_1
  3525                           
  3526                           ;'GLCDDATATEMP = GLCDDATATEMP AND GLCDCHANGE
  3527   0016E0  502F               	movf	1327,w,c
  3528   0016E2  142C               	andwf	1324,w,c
  3529   0016E4  6E2F               	movwf	1327,c
  3530                           
  3531                           ;'ELSE
  3532   0016E6  D003               	bra	ENDIF65
  3533   0016E8                     ELSE65_1:
  3534                           	callstack 0
  3535                           
  3536                           ;'GLCDDATATEMP = GLCDDATATEMP OR GLCDCHANGE
  3537   0016E8  502F               	movf	1327,w,c
  3538   0016EA  102C               	iorwf	1324,w,c
  3539   0016EC  6E2F               	movwf	1327,c
  3540   0016EE                     ENDIF65:
  3541                           	callstack 0
  3542                           
  3543                           ;'ADDED 1.14 TO ISOLATE FROM FULL GLCD MODE
  3544                           ;'REVISED 1.14 TO ISOLATE FROM LOW MEMORY MODE
  3545                           ;'IF SSD1306_BUFFERALIAS(SSD1306_BUFFERLOCATIONCALC) <> GLCDDATATEMP THEN
  3546   0016EE  EE04 F0FF          	lfsr	0,4351
  3547   0016F2  5177               	movf	1399,w,b
  3548   0016F4  26E9               	addwf	fsr0l,f,c
  3549   0016F6  5178               	movf	1400,w,b
  3550   0016F8  22EA               	addwfc	fsr0h,f,c
  3551   0016FA  502F               	movf	1327,w,c
  3552   0016FC  5CEF               	subwf	indf0,w,c
  3553   0016FE  B4D8               	btfsc	status,2,c
  3554   001700  D012               	bra	ENDIF66
  3555                           
  3556                           ;'SSD1306_BUFFERALIAS(SSD1306_BUFFERLOCATIONCALC) = GLCDDATATEMP
  3557   001702  EE04 F0FF          	lfsr	0,4351
  3558   001706  5177               	movf	1399,w,b
  3559   001708  26E9               	addwf	fsr0l,f,c
  3560   00170A  5178               	movf	1400,w,b
  3561   00170C  22EA               	addwfc	fsr0h,f,c
  3562   00170E  C52F F4EF          	movff	1327,indf0
  3563                           
  3564                           ;'CURSOR_POSITION_SSD1306 ( GLCDX, GLCDY )
  3565   001712  C53C F566          	movff	1340,1382
  3566   001716  C53D F567          	movff	1341,1383
  3567   00171A  0100               	banksel	0
  3568   00171C  EC39  F004         	call	CURSOR_POSITION_SSD1306
  3569                           
  3570                           ;'WRITE_DATA_SSD1306 ( GLCDDATATEMP )
  3571   001720  C52F F576          	movff	1327,1398
  3572   001724  DB5F               	rcall	WRITE_DATA_SSD1306
  3573   001726                     ENDIF66:
  3574                           	callstack 0
  3575   001726  0100               	banksel	0
  3576   001728  0012               	return	
  3577   00172A                     SI2CINIT:
  3578                           	callstack 0
  3579                           
  3580                           ;'ASM SHOWDEBUG  THIS METHOD SETS THE MSSP MODULES FOR K-MODE FAMILY CHIPS
  3581                           ;'DIR HI2C_DATA OUT
  3582   00172A  9A8E               	bcf	1166,5,c
  3583                           
  3584                           ;'DIR HI2C_CLOCK OUT
  3585   00172C  9C8E               	bcf	1166,6,c
  3586                           
  3587                           ;'I2C1CON1 = I2C1I2C1CON1DEFAULT
  3588   00172E  0E80               	movlw	128
  3589   001730  0101               	banksel	487
  3590   001732  6FE7               	movwf	487,b
  3591                           
  3592                           ;'I2C1CON2 = I2C1I2C1CON2DEFAULT
  3593   001734  0E21               	movlw	33
  3594   001736  6FE8               	movwf	488,b
  3595                           
  3596                           ;'I2C1CLK =  I2C1CLOCKSOURCE
  3597   001738  0E03               	movlw	3
  3598   00173A  6FF9               	movwf	505,b
  3599                           
  3600                           ;'I2C1CON0 = I2C1I2C1CON0DEFAULT
  3601   00173C  0E84               	movlw	132
  3602   00173E  6FE6               	movwf	486,b
  3603                           
  3604                           ;'I2C1PIR = 0    ;CLEAR ALL THE ERROR FLAGS
  3605   001740  6BEA               	clrf	490,b
  3606                           
  3607                           ;'I2C1ERR = 0
  3608   001742  6BEC               	clrf	492,b
  3609                           
  3610                           ;'I2C1CON0.EN=1
  3611   001744  8FE6               	bsf	486,7,b
  3612                           
  3613                           ;'COMMENCE I2C PROTOCOL
  3614                           ;'I2C1CON2.ACNT = 0
  3615   001746  9FE8               	bcf	488,7,b
  3616                           
  3617                           ;'I2C1CON2.ABD=0
  3618   001748  99E8               	bcf	488,4,b
  3619                           
  3620                           ;'I2C1CON0.MDR=1
  3621   00174A  87E6               	bsf	486,3,b
  3622                           
  3623                           ;'INITIALISE CORRECT STATE OF I2C MODULE. NOT SURE WHY THIS IS NEEDED BUT IT IS. MICROCHIP FAILED TO EXPLAIN WHY THIS IS REQUIRED. BUT, IT IS.
  3624                           ;'SI2CSTART
  3625   00174C  0100               	banksel	0
  3626   00174E  D891               	rcall	SI2CSTART
  3627                           
  3628                           ;'SI2CSEND ( 0XFF )
  3629   001750  6845               	setf	1349,c
  3630   001752  D803               	rcall	SI2CSEND
  3631                           
  3632                           ;'SI2CSTOP
  3633   001754  D893               	rcall	SI2CSTOP
  3634                           
  3635                           ;'HI2CCURRENTMODE = 0
  3636   001756  6A43               	clrf	1347,c
  3637   001758  0012               	return	
  3638   00175A                     SI2CSEND:
  3639                           	callstack 0
  3640   00175A                     SYSSELECT2CASE1:
  3641                           	callstack 0
  3642   00175A  0E02               	movlw	2
  3643   00175C  5C41               	subwf	1345,w,c
  3644   00175E  A4D8               	btfss	status,2,c
  3645   001760  D01D               	bra	SYSSELECT2CASE2
  3646                           
  3647                           ;'HI2CWAITMSSPTIMEOUT = 0
  3648   001762  6A44               	clrf	1348,c
  3649   001764                     SYSDOLOOP_S10:
  3650                           	callstack 0
  3651   001764  0EFF               	movlw	255
  3652   001766  5C44               	subwf	1348,w,c
  3653   001768  B0D8               	btfsc	status,0,c
  3654   00176A  D012               	bra	SYSDOLOOP_E10
  3655                           
  3656                           ;'HI2CWAITMSSPTIMEOUT++
  3657   00176C  2A44               	incf	1348,f,c
  3658                           
  3659                           ;'WAIT FOR THIS EVENT
  3660                           ;'IF I2C1STAT1.TXBE = 1 THEN
  3661   00176E  0101               	banksel	485
  3662   001770  ABE5               	btfss	485,5,b
  3663   001772  D009               	bra	ELSE71_1
  3664                           
  3665                           ;'SET THE BYTE COUNT TO 1, PLACE OUTBYTE IN REGISTER, AND WAIT FOR HARDWARE STATE MACHINE
  3666                           ;'I2C1CNT = 1
  3667   001774  0E01               	movlw	1
  3668   001776  6FED               	movwf	493,b
  3669                           
  3670                           ;'I2C1TXB = I2CBYTE
  3671   001778  C545 F1F0          	movff	1349,496
  3672                           
  3673                           ;'SI2CWAIT4ACK
  3674   00177C  0100               	banksel	0
  3675   00177E  D8A3               	rcall	SI2CWAIT4ACK
  3676                           
  3677                           ;'SI2CWAIT4MDR
  3678   001780  D8C4               	rcall	SI2CWAIT4MDR
  3679                           
  3680                           ;'EXIT SUB
  3681   001782  0012               	return	
  3682                           
  3683                           ;'ELSE
  3684   001784  D004               	bra	ENDIF71
  3685   001786                     ELSE71_1:
  3686                           	callstack 0
  3687                           
  3688                           ;'WAIT 1 US
  3689   001786  0E05               	movlw	5
  3690   001788  6E00               	movwf	1280,c
  3691   00178A                     DELAYUS4:
  3692                           	callstack 0
  3693   00178A  2E00               	decfsz	1280,f,c
  3694   00178C  D7FE               	bra	DELAYUS4
  3695   00178E                     ENDIF71:
  3696                           	callstack 0
  3697                           
  3698                           ;'LOOP
  3699   00178E  D7EA               	bra	SYSDOLOOP_S10
  3700   001790                     SYSDOLOOP_E10:
  3701                           	callstack 0
  3702                           
  3703                           ;'IF HI2CWAITMSSPTIMEOUT = 255 THEN HI2C1LASTERROR = HI2C1LASTERROR OR I2C1_TXBE_TIMEOUT
  3704   001790  2844               	incf	1348,w,c
  3705   001792  A4D8               	btfss	status,2,c
  3706   001794  D002               	bra	ENDIF72
  3707                           
  3708                           ;'IF HI2CWAITMSSPTIMEOUT = 255 THEN HI2C1LASTERROR = HI2C1LASTERROR OR I2C1_TXBE_TIMEOUT
  3709   001796  0E02               	movlw	2
  3710   001798  1240               	iorwf	1344,f,c
  3711   00179A                     ENDIF72:
  3712                           	callstack 0
  3713                           
  3714                           ;'CASE 1  'A START
  3715   00179A  D069               	bra	SYSSELECTEND2
  3716   00179C                     SYSSELECT2CASE2:
  3717                           	callstack 0
  3718   00179C  0441               	decf	1345,w,c
  3719   00179E  A4D8               	btfss	status,2,c
  3720   0017A0  D03F               	bra	SYSSELECT2CASE3
  3721                           
  3722                           ;'CLEAR THE OUTPUT BUFFERS, SET BYTE COUNT TO ZERO, CLEAR EVENT AND PLACE SLAVE ADDRESS IN REGISTER
  3723                           ;'I2C1STAT1.CLRBF = 1
  3724   0017A2  0101               	banksel	485
  3725   0017A4  85E5               	bsf	485,2,b
  3726                           
  3727                           ;'I2C1CNT = 0
  3728   0017A6  6BED               	clrf	493,b
  3729                           
  3730                           ;'I2C1PIR.SCIF = 0
  3731   0017A8  91EA               	bcf	490,0,b
  3732                           
  3733                           ;'I2C1ADB1 = I2CBYTE
  3734   0017AA  C545 F1F2          	movff	1349,498
  3735                           
  3736                           ;'WAIT HI2CITSCLWAITPERIOD US
  3737   0017AE  0E02               	movlw	2
  3738   0017B0  6E01               	movwf	1281,c
  3739   0017B2                     DELAYUSO5:
  3740                           	callstack 0
  3741   0017B2  6A00               	clrf	1280,c
  3742   0017B4                     DELAYUS5:
  3743                           	callstack 0
  3744   0017B4  2E00               	decfsz	1280,f,c
  3745   0017B6  D7FE               	bra	DELAYUS5
  3746   0017B8  2E01               	decfsz	1281,f,c
  3747   0017BA  D7FB               	bra	DELAYUSO5
  3748   0017BC  0E13               	movlw	19
  3749   0017BE  6E00               	movwf	1280,c
  3750   0017C0                     DELAYUS6:
  3751                           	callstack 0
  3752   0017C0  2E00               	decfsz	1280,f,c
  3753   0017C2  D7FE               	bra	DELAYUS6
  3754                           
  3755                           ;'HI2CWAITMSSPTIMEOUT = 0
  3756   0017C4  6A44               	clrf	1348,c
  3757   0017C6                     SYSDOLOOP_S11:
  3758                           	callstack 0
  3759   0017C6  0EFF               	movlw	255
  3760   0017C8  5C44               	subwf	1348,w,c
  3761   0017CA  B0D8               	btfsc	status,0,c
  3762   0017CC  D023               	bra	SYSDOLOOP_E11
  3763                           
  3764                           ;'HI2CWAITMSSPTIMEOUT++
  3765   0017CE  2A44               	incf	1348,f,c
  3766                           
  3767                           ;'WAIT FOR THIS EVENT
  3768                           ;'IF I2C1PIR.SCIF = 1 THEN
  3769   0017D0  A1EA               	btfss	490,0,b
  3770   0017D2  D013               	bra	ELSE73_1
  3771                           
  3772                           ;'WAIT HI2CITSCLWAITPERIOD US
  3773   0017D4  0E02               	movlw	2
  3774   0017D6  6E01               	movwf	1281,c
  3775   0017D8                     DELAYUSO7:
  3776                           	callstack 0
  3777   0017D8  6A00               	clrf	1280,c
  3778   0017DA                     DELAYUS7:
  3779                           	callstack 0
  3780   0017DA  2E00               	decfsz	1280,f,c
  3781   0017DC  D7FE               	bra	DELAYUS7
  3782   0017DE  2E01               	decfsz	1281,f,c
  3783   0017E0  D7FB               	bra	DELAYUSO7
  3784   0017E2  0E13               	movlw	19
  3785   0017E4  6E00               	movwf	1280,c
  3786   0017E6                     DELAYUS8:
  3787                           	callstack 0
  3788   0017E6  2E00               	decfsz	1280,f,c
  3789   0017E8  D7FE               	bra	DELAYUS8
  3790                           
  3791                           ;'HI2C1STATEMACHINE = 2  'SET ((WDTTMR) and 0FFh), 2, b MACHINE TO SEND ((I2C1STAT0) and 0FFh), 3, b
  3792   0017EA  0E02               	movlw	2
  3793   0017EC  6E41               	movwf	1345,c
  3794                           
  3795                           ;'HI2CACKPOLLSTATE = I2C1CON1.5
  3796   0017EE  6A42               	clrf	1346,c
  3797   0017F0  BBE7               	btfsc	487,5,b
  3798   0017F2  2A42               	incf	1346,f,c
  3799                           
  3800                           ;'EXIT SUB
  3801   0017F4  0100               	banksel	0
  3802   0017F6  0012               	return	
  3803                           
  3804                           ;'ELSE
  3805   0017F8  D00C               	bra	ENDIF73
  3806   0017FA                     ELSE73_1:
  3807                           	callstack 0
  3808                           
  3809                           ;'WAIT HI2CITSCLWAITPERIOD US
  3810   0017FA  0E02               	movlw	2
  3811   0017FC  6E01               	movwf	1281,c
  3812   0017FE                     DELAYUSO9:
  3813                           	callstack 0
  3814   0017FE  6A00               	clrf	1280,c
  3815   001800                     DELAYUS9:
  3816                           	callstack 0
  3817   001800  2E00               	decfsz	1280,f,c
  3818   001802  D7FE               	bra	DELAYUS9
  3819   001804  2E01               	decfsz	1281,f,c
  3820   001806  D7FB               	bra	DELAYUSO9
  3821   001808  0E13               	movlw	19
  3822   00180A  6E00               	movwf	1280,c
  3823   00180C                     DELAYUS10:
  3824                           	callstack 0
  3825   00180C  2E00               	decfsz	1280,f,c
  3826   00180E  D7FE               	bra	DELAYUS10
  3827                           
  3828                           ;'SET TO START
  3829                           ;'I2C1CON0.S = 1
  3830   001810  8BE6               	bsf	486,5,b
  3831   001812                     ENDIF73:
  3832                           	callstack 0
  3833                           
  3834                           ;'LOOP
  3835   001812  D7D9               	bra	SYSDOLOOP_S11
  3836   001814                     SYSDOLOOP_E11:
  3837                           	callstack 0
  3838                           
  3839                           ;'IF HI2CWAITMSSPTIMEOUT = 255 THEN HI2C1LASTERROR = HI2C1LASTERROR OR I2C1_START_TIMEOUT
  3840   001814  2844               	incf	1348,w,c
  3841   001816  A4D8               	btfss	status,2,c
  3842   001818  D002               	bra	ENDIF74
  3843                           
  3844                           ;'IF HI2CWAITMSSPTIMEOUT = 255 THEN HI2C1LASTERROR = HI2C1LASTERROR OR I2C1_START_TIMEOUT
  3845   00181A  0E04               	movlw	4
  3846   00181C  1240               	iorwf	1344,f,c
  3847   00181E                     ENDIF74:
  3848                           	callstack 0
  3849                           
  3850                           ;'CASE 3  'A RESTART
  3851   00181E  D027               	bra	SYSSELECTEND2
  3852   001820                     SYSSELECT2CASE3:
  3853                           	callstack 0
  3854   001820  0E03               	movlw	3
  3855   001822  5C41               	subwf	1345,w,c
  3856   001824  A4D8               	btfss	status,2,c
  3857   001826  D023               	bra	SYSSELECTEND2
  3858   001828                     SYSWAITLOOP1:
  3859                           	callstack 0
  3860   001828  0101               	banksel	484
  3861   00182A  BBE4               	btfsc	484,5,b
  3862   00182C  D7FD               	bra	SYSWAITLOOP1
  3863                           
  3864                           ;'SET COUNT TO ZERO, PLACE SLAVE ADDRESS IN REGISTER AND CLEAR EVENT
  3865                           ;'I2C1CNT = 0
  3866   00182E  6BED               	clrf	493,b
  3867                           
  3868                           ;'I2C1ADB1 = I2CBYTE
  3869   001830  C545 F1F2          	movff	1349,498
  3870                           
  3871                           ;'I2C1PIR.SCIF = 0
  3872   001834  91EA               	bcf	490,0,b
  3873                           
  3874                           ;'HI2CWAITMSSPTIMEOUT = 0
  3875   001836  6A44               	clrf	1348,c
  3876   001838                     SYSDOLOOP_S12:
  3877                           	callstack 0
  3878   001838  0EFF               	movlw	255
  3879   00183A  5C44               	subwf	1348,w,c
  3880   00183C  B0D8               	btfsc	status,0,c
  3881   00183E  D012               	bra	SYSDOLOOP_E12
  3882                           
  3883                           ;'HI2CWAITMSSPTIMEOUT++
  3884   001840  2A44               	incf	1348,f,c
  3885                           
  3886                           ;'WAIT FOR THIS EVENT
  3887                           ;'IF I2C1PIR.SCIF = 1 THEN
  3888   001842  A1EA               	btfss	490,0,b
  3889   001844  D008               	bra	ELSE75_1
  3890                           
  3891                           ;'HI2C1STATEMACHINE = 2  'SET ((WDTTMR) and 0FFh), 2, b MACHINE TO SEND ((I2C1STAT0) and 0FFh), 3, b
  3892   001846  0E02               	movlw	2
  3893   001848  6E41               	movwf	1345,c
  3894                           
  3895                           ;'HI2CACKPOLLSTATE = I2C1CON1.5
  3896   00184A  6A42               	clrf	1346,c
  3897   00184C  BBE7               	btfsc	487,5,b
  3898   00184E  2A42               	incf	1346,f,c
  3899                           
  3900                           ;'EXIT SUB
  3901   001850  0100               	banksel	0
  3902   001852  0012               	return	
  3903                           
  3904                           ;'ELSE
  3905   001854  D006               	bra	ENDIF75
  3906   001856                     ELSE75_1:
  3907                           	callstack 0
  3908                           
  3909                           ;'SET AS START AND CLEAR RESTART
  3910                           ;'I2C1CON0.S = 1
  3911   001856  8BE6               	bsf	486,5,b
  3912                           
  3913                           ;'I2C1CON0.RSEN=0
  3914   001858  9DE6               	bcf	486,6,b
  3915                           
  3916                           ;'WAIT 1 US
  3917   00185A  0E05               	movlw	5
  3918   00185C  6E00               	movwf	1280,c
  3919   00185E                     DELAYUS11:
  3920                           	callstack 0
  3921   00185E  2E00               	decfsz	1280,f,c
  3922   001860  D7FE               	bra	DELAYUS11
  3923   001862                     ENDIF75:
  3924                           	callstack 0
  3925                           
  3926                           ;'LOOP
  3927   001862  D7EA               	bra	SYSDOLOOP_S12
  3928   001864                     SYSDOLOOP_E12:
  3929                           	callstack 0
  3930                           
  3931                           ;'IF HI2CWAITMSSPTIMEOUT = 255 THEN HI2C1LASTERROR = HI2C1LASTERROR OR I2C1_RESTART_TIMEOUT
  3932   001864  2844               	incf	1348,w,c
  3933   001866  A4D8               	btfss	status,2,c
  3934   001868  D002               	bra	ENDIF76
  3935                           
  3936                           ;'IF HI2CWAITMSSPTIMEOUT = 255 THEN HI2C1LASTERROR = HI2C1LASTERROR OR I2C1_RESTART_TIMEOUT
  3937   00186A  0E08               	movlw	8
  3938   00186C  1240               	iorwf	1344,f,c
  3939   00186E                     ENDIF76:
  3940                           	callstack 0
  3941   00186E                     SYSSELECTEND2:
  3942                           	callstack 0
  3943   00186E  0100               	banksel	0
  3944   001870  0012               	return	
  3945   001872                     SI2CSTART:
  3946                           	callstack 0
  3947                           
  3948                           ;'ASM SHOWDEBUG  REDIRECTED FOR K-MODE FAMILY PROBALBY CALLED HI2CSTART
  3949                           ;'ASM SHOWDEBUG  THIS METHOD SETS THE REGISTERS AND REGISTER BITS TO GENERATE THE I2C  START SIGNAL. MASTER_MODE ONLY.
  3950                           ;'HI2C1STATEMACHINE = 1
  3951   001872  0E01               	movlw	1
  3952   001874  6E41               	movwf	1345,c
  3953                           
  3954                           ;'HI2CWAITMSSPTIMEOUT = FALSE
  3955   001876  6A44               	clrf	1348,c
  3956                           
  3957                           ;'CLEAR THE ERROR STATE VARIABLE
  3958                           ;'HI2C1LASTERROR = I2C1_GOOD
  3959   001878  6A40               	clrf	1344,c
  3960   00187A  0012               	return	
  3961   00187C                     SI2CSTOP:
  3962                           	callstack 0
  3963                           
  3964                           ;'ASM SHOWDEBUG  REDIRECTED FOR K-MODE FAMILY PROBALBY CALLED HI2CSTOP
  3965                           ;'ASM SHOWDEBUG  THIS METHOD SETS THE REGISTERS AND REGISTER BITS TO GENERATE THE I2C  STOP SIGNAL
  3966                           ;'WAITS UP TO 254US THEN SET THE ERROR STATE
  3967                           ;'HI2C1STATEMACHINE = 0
  3968   00187C  6A41               	clrf	1345,c
  3969                           
  3970                           ;'HI2CWAITMSSPTIMEOUT = 0
  3971   00187E  6A44               	clrf	1348,c
  3972   001880                     SYSDOLOOP_S9:
  3973                           	callstack 0
  3974   001880  0EFF               	movlw	255
  3975   001882  5C44               	subwf	1348,w,c
  3976   001884  B0D8               	btfsc	status,0,c
  3977   001886  D018               	bra	SYSDOLOOP_E9
  3978                           
  3979                           ;'HI2CWAITMSSPTIMEOUT++
  3980   001888  2A44               	incf	1348,f,c
  3981                           
  3982                           ;'WAIT TILL THIS EVENT
  3983                           ;'IF I2C1PIR.PCIF = 1 THEN
  3984   00188A  0101               	banksel	490
  3985   00188C  A5EA               	btfss	490,2,b
  3986   00188E  D00F               	bra	ELSE69_1
  3987                           
  3988                           ;'SI2CWAIT4STOP
  3989   001890  0100               	banksel	0
  3990   001892  D853               	rcall	SI2CWAIT4STOP
  3991                           
  3992                           ;'TSCL WAIT, PART OF THE SPECIFICIATION OF THE I2C MODULE
  3993                           ;'WAIT HI2CITSCLWAITPERIOD US
  3994   001894  0E02               	movlw	2
  3995   001896  6E01               	movwf	1281,c
  3996   001898                     DELAYUSO1:
  3997                           	callstack 0
  3998   001898  6A00               	clrf	1280,c
  3999   00189A                     DELAYUS1:
  4000                           	callstack 0
  4001   00189A  2E00               	decfsz	1280,f,c
  4002   00189C  D7FE               	bra	DELAYUS1
  4003   00189E  2E01               	decfsz	1281,f,c
  4004   0018A0  D7FB               	bra	DELAYUSO1
  4005   0018A2  0E13               	movlw	19
  4006   0018A4  6E00               	movwf	1280,c
  4007   0018A6                     DELAYUS2:
  4008                           	callstack 0
  4009   0018A6  2E00               	decfsz	1280,f,c
  4010   0018A8  D7FE               	bra	DELAYUS2
  4011                           
  4012                           ;'EXIT SUB
  4013   0018AA  0012               	return	
  4014                           
  4015                           ;'ELSE
  4016   0018AC  D004               	bra	ENDIF69
  4017   0018AE                     ELSE69_1:
  4018                           	callstack 0
  4019                           
  4020                           ;'WAIT 1 US
  4021   0018AE  0E05               	movlw	5
  4022   0018B0  6E00               	movwf	1280,c
  4023   0018B2                     DELAYUS3:
  4024                           	callstack 0
  4025   0018B2  2E00               	decfsz	1280,f,c
  4026   0018B4  D7FE               	bra	DELAYUS3
  4027   0018B6                     ENDIF69:
  4028                           	callstack 0
  4029                           
  4030                           ;'LOOP
  4031   0018B6  D7E4               	bra	SYSDOLOOP_S9
  4032   0018B8                     SYSDOLOOP_E9:
  4033                           	callstack 0
  4034                           
  4035                           ;'IF HI2CWAITMSSPTIMEOUT = 255 THEN HI2C1LASTERROR = HI2C1LASTERROR OR I2C1_STOP_TIMEOUT
  4036   0018B8  2844               	incf	1348,w,c
  4037   0018BA  A4D8               	btfss	status,2,c
  4038   0018BC  D002               	bra	ENDIF70
  4039                           
  4040                           ;'IF HI2CWAITMSSPTIMEOUT = 255 THEN HI2C1LASTERROR = HI2C1LASTERROR OR I2C1_STOP_TIMEOUT
  4041   0018BE  0E80               	movlw	128
  4042   0018C0  1240               	iorwf	1344,f,c
  4043   0018C2                     ENDIF70:
  4044                           	callstack 0
  4045   0018C2  0100               	banksel	0
  4046   0018C4  0012               	return	
  4047   0018C6                     SI2CWAIT4ACK:
  4048                           	callstack 0
  4049                           
  4050                           ;'HI2CWAITMSSPTIMEOUT = 0
  4051   0018C6  6A44               	clrf	1348,c
  4052   0018C8                     SYSDOLOOP_S13:
  4053                           	callstack 0
  4054   0018C8  0EFF               	movlw	255
  4055   0018CA  5C44               	subwf	1348,w,c
  4056   0018CC  B0D8               	btfsc	status,0,c
  4057   0018CE  D016               	bra	SYSDOLOOP_E13
  4058                           
  4059                           ;'HI2CWAITMSSPTIMEOUT++
  4060   0018D0  2A44               	incf	1348,f,c
  4061                           
  4062                           ;'WAIT FOR THIS EVENT
  4063                           ;'IF I2C1CON1.ACKSTAT = 0 THEN
  4064   0018D2  0101               	banksel	487
  4065   0018D4  BBE7               	btfsc	487,5,b
  4066   0018D6  D00D               	bra	ELSE79_1
  4067                           
  4068                           ;'SET STATUS
  4069                           ;'HI2CACKPOLLSTATE = !I2C1CON1.ACKSTAT
  4070   0018D8  0105               	banksel	1444
  4071   0018DA  6BA4               	clrf	1444,b
  4072   0018DC  0101               	banksel	487
  4073   0018DE  ABE7               	btfss	487,5,b
  4074   0018E0  D002               	bra	ENDIF81
  4075   0018E2  0105               	banksel	1444
  4076   0018E4  2BA4               	incf	1444,f,b
  4077   0018E6                     ENDIF81:
  4078                           	callstack 0
  4079   0018E6  0105               	banksel	1444
  4080   0018E8  1DA4               	comf	1444,w,b
  4081   0018EA  6E42               	movwf	1346,c
  4082                           
  4083                           ;'EXIT SUB
  4084   0018EC  0100               	banksel	0
  4085   0018EE  0012               	return	
  4086                           
  4087                           ;'ELSE
  4088   0018F0  D004               	bra	ENDIF79
  4089   0018F2                     ELSE79_1:
  4090                           	callstack 0
  4091                           
  4092                           ;'WAIT 1 US
  4093   0018F2  0E05               	movlw	5
  4094   0018F4  6E00               	movwf	1280,c
  4095   0018F6                     DELAYUS12:
  4096                           	callstack 0
  4097   0018F6  2E00               	decfsz	1280,f,c
  4098   0018F8  D7FE               	bra	DELAYUS12
  4099   0018FA                     ENDIF79:
  4100                           	callstack 0
  4101                           
  4102                           ;'LOOP
  4103   0018FA  D7E6               	bra	SYSDOLOOP_S13
  4104   0018FC                     SYSDOLOOP_E13:
  4105                           	callstack 0
  4106                           
  4107                           ;'IF HI2CWAITMSSPTIMEOUT = 255 THEN HI2C1LASTERROR = HI2C1LASTERROR OR I2C1_ACK_TIMEOUT
  4108   0018FC  2844               	incf	1348,w,c
  4109   0018FE  A4D8               	btfss	status,2,c
  4110   001900  D002               	bra	ENDIF80
  4111                           
  4112                           ;'IF HI2CWAITMSSPTIMEOUT = 255 THEN HI2C1LASTERROR = HI2C1LASTERROR OR I2C1_ACK_TIMEOUT
  4113   001902  0E20               	movlw	32
  4114   001904  1240               	iorwf	1344,f,c
  4115   001906                     ENDIF80:
  4116                           	callstack 0
  4117                           
  4118                           ;'HI2CWAITMSSPTIMEOUT IS NOW TRUE = 255
  4119   001906  0100               	banksel	0
  4120   001908  0012               	return	
  4121   00190A                     SI2CWAIT4MDR:
  4122                           	callstack 0
  4123                           
  4124                           ;'HI2CWAITMSSPTIMEOUT = 0
  4125   00190A  6A44               	clrf	1348,c
  4126   00190C                     SYSDOLOOP_S14:
  4127                           	callstack 0
  4128   00190C  0EFF               	movlw	255
  4129   00190E  5C44               	subwf	1348,w,c
  4130   001910  B0D8               	btfsc	status,0,c
  4131   001912  D00C               	bra	SYSDOLOOP_E14
  4132                           
  4133                           ;'HI2CWAITMSSPTIMEOUT++
  4134   001914  2A44               	incf	1348,f,c
  4135                           
  4136                           ;'WAIT FOR THIS EVENT
  4137                           ;'IF I2C1CON0.MDR = 0 THEN
  4138   001916  0101               	banksel	486
  4139   001918  B7E6               	btfsc	486,3,b
  4140   00191A  D003               	bra	ELSE82_1
  4141                           
  4142                           ;'EXIT SUB
  4143   00191C  0100               	banksel	0
  4144   00191E  0012               	return	
  4145                           
  4146                           ;'ELSE
  4147   001920  D004               	bra	ENDIF82
  4148   001922                     ELSE82_1:
  4149                           	callstack 0
  4150                           
  4151                           ;'WAIT 1 US
  4152   001922  0E05               	movlw	5
  4153   001924  6E00               	movwf	1280,c
  4154   001926                     DELAYUS13:
  4155                           	callstack 0
  4156   001926  2E00               	decfsz	1280,f,c
  4157   001928  D7FE               	bra	DELAYUS13
  4158   00192A                     ENDIF82:
  4159                           	callstack 0
  4160                           
  4161                           ;'LOOP
  4162   00192A  D7F0               	bra	SYSDOLOOP_S14
  4163   00192C                     SYSDOLOOP_E14:
  4164                           	callstack 0
  4165                           
  4166                           ;'IF HI2CWAITMSSPTIMEOUT = 255 THEN HI2C1LASTERROR = HI2C1LASTERROR OR I2C1_MDR_TIMEOUT
  4167   00192C  2844               	incf	1348,w,c
  4168   00192E  A4D8               	btfss	status,2,c
  4169   001930  D002               	bra	ENDIF83
  4170                           
  4171                           ;'IF HI2CWAITMSSPTIMEOUT = 255 THEN HI2C1LASTERROR = HI2C1LASTERROR OR I2C1_MDR_TIMEOUT
  4172   001932  0E40               	movlw	64
  4173   001934  1240               	iorwf	1344,f,c
  4174   001936                     ENDIF83:
  4175                           	callstack 0
  4176                           
  4177                           ;'HI2CWAITMSSPTIMEOUT IS NOW TRUE = 255
  4178   001936  0100               	banksel	0
  4179   001938  0012               	return	
  4180   00193A                     SI2CWAIT4STOP:
  4181                           	callstack 0
  4182                           
  4183                           ;'HI2CWAITMSSPTIMEOUT = 0
  4184   00193A  6A44               	clrf	1348,c
  4185   00193C                     SYSDOLOOP_S15:
  4186                           	callstack 0
  4187   00193C  0EFF               	movlw	255
  4188   00193E  5C44               	subwf	1348,w,c
  4189   001940  B0D8               	btfsc	status,0,c
  4190   001942  D00C               	bra	SYSDOLOOP_E15
  4191                           
  4192                           ;'HI2CWAITMSSPTIMEOUT++
  4193   001944  2A44               	incf	1348,f,c
  4194                           
  4195                           ;'WAIT FOR THIS EVENT
  4196                           ;'IF I2C1PIR.PCIF = 1 THEN
  4197   001946  0101               	banksel	490
  4198   001948  A5EA               	btfss	490,2,b
  4199   00194A  D003               	bra	ELSE84_1
  4200                           
  4201                           ;'EXIT SUB
  4202   00194C  0100               	banksel	0
  4203   00194E  0012               	return	
  4204                           
  4205                           ;'ELSE
  4206   001950  D004               	bra	ENDIF84
  4207   001952                     ELSE84_1:
  4208                           	callstack 0
  4209                           
  4210                           ;'WAIT 1 US
  4211   001952  0E05               	movlw	5
  4212   001954  6E00               	movwf	1280,c
  4213   001956                     DELAYUS14:
  4214                           	callstack 0
  4215   001956  2E00               	decfsz	1280,f,c
  4216   001958  D7FE               	bra	DELAYUS14
  4217   00195A                     ENDIF84:
  4218                           	callstack 0
  4219                           
  4220                           ;'LOOP
  4221   00195A  D7F0               	bra	SYSDOLOOP_S15
  4222   00195C                     SYSDOLOOP_E15:
  4223                           	callstack 0
  4224                           
  4225                           ;'IF HI2CWAITMSSPTIMEOUT = 255 THEN HI2C1LASTERROR = HI2C1LASTERROR OR I2C1_STOP_TIMEOUT
  4226   00195C  2844               	incf	1348,w,c
  4227   00195E  A4D8               	btfss	status,2,c
  4228   001960  D002               	bra	ENDIF85
  4229                           
  4230                           ;'IF HI2CWAITMSSPTIMEOUT = 255 THEN HI2C1LASTERROR = HI2C1LASTERROR OR I2C1_STOP_TIMEOUT
  4231   001962  0E80               	movlw	128
  4232   001964  1240               	iorwf	1344,f,c
  4233   001966                     ENDIF85:
  4234                           	callstack 0
  4235                           
  4236                           ;'HI2CWAITMSSPTIMEOUT IS NOW TRUE = 255
  4237   001966  0100               	banksel	0
  4238   001968  0012               	return	
  4239   00196A                     FN_STR:
  4240                           	callstack 0
  4241                           
  4242                           ;'SYSCHARCOUNT = 0
  4243   00196A  0105               	banksel	1405
  4244   00196C  6B7D               	clrf	1405,b
  4245                           
  4246                           ;'DIM SYSCALCTEMPX AS WORD
  4247                           ;'TEN THOUSANDS
  4248                           ;'IF SYSVALTEMP >= 10000 THEN
  4249   00196E  C5A5 F505          	movff	1445,1285
  4250   001972  C5A6 F506          	movff	1446,1286
  4251   001976  0E10               	movlw	16
  4252   001978  6E09               	movwf	1289,c
  4253   00197A  0E27               	movlw	39
  4254   00197C  6E0A               	movwf	1290,c
  4255   00197E  0100               	banksel	0
  4256   001980  D8C7               	rcall	SYSCOMPLESSTHAN16
  4257   001982  1E00               	comf	1280,f,c
  4258   001984  A000               	btfss	1280,0,c
  4259   001986  D01B               	bra	ENDIF38
  4260                           
  4261                           ;'SYSSTRDATA = SYSVALTEMP / 10000
  4262   001988  C5A5 F505          	movff	1445,1285
  4263   00198C  C5A6 F506          	movff	1446,1286
  4264   001990  0E10               	movlw	16
  4265   001992  6E09               	movwf	1289,c
  4266   001994  0E27               	movlw	39
  4267   001996  6E0A               	movwf	1290,c
  4268   001998  D902               	rcall	SYSDIVSUB16
  4269   00199A  C505 F597          	movff	1285,1431
  4270                           
  4271                           ;'SYSVALTEMP = SYSCALCTEMPX
  4272   00199E  C500 F5A5          	movff	1280,1445
  4273   0019A2  C501 F5A6          	movff	1281,1446
  4274                           
  4275                           ;'SYSCHARCOUNT += 1
  4276   0019A6  0105               	banksel	1405
  4277   0019A8  2B7D               	incf	1405,f,b
  4278                           
  4279                           ;'STR(SYSCHARCOUNT) = SYSSTRDATA + 48
  4280   0019AA  EE04 F086          	lfsr	0,4230
  4281   0019AE  517D               	movf	1405,w,b
  4282   0019B0  26E9               	addwf	fsr0l,f,c
  4283   0019B2  0E00               	movlw	0
  4284   0019B4  22EA               	addwfc	fsr0h,f,c
  4285   0019B6  0E30               	movlw	48
  4286   0019B8  2597               	addwf	1431,w,b
  4287   0019BA  6EEF               	movwf	indf0,c
  4288                           
  4289                           ;'GOTO SYSVALTHOUSANDS
  4290   0019BC  D00C               	bra	SYSVALTHOUSANDS
  4291   0019BE                     ENDIF38:
  4292                           	callstack 0
  4293                           
  4294                           ;'THOUSANDS
  4295                           ;'IF SYSVALTEMP >= 1000 THEN
  4296   0019BE  C5A5 F505          	movff	1445,1285
  4297   0019C2  C5A6 F506          	movff	1446,1286
  4298   0019C6  0EE8               	movlw	232
  4299   0019C8  6E09               	movwf	1289,c
  4300   0019CA  0E03               	movlw	3
  4301   0019CC  6E0A               	movwf	1290,c
  4302   0019CE  D8A0               	rcall	SYSCOMPLESSTHAN16
  4303   0019D0  1E00               	comf	1280,f,c
  4304   0019D2  A000               	btfss	1280,0,c
  4305   0019D4  D01C               	bra	ENDIF39
  4306   0019D6                     SYSVALTHOUSANDS:
  4307                           	callstack 0
  4308                           
  4309                           ;'SYSSTRDATA = SYSVALTEMP / 1000
  4310   0019D6  C5A5 F505          	movff	1445,1285
  4311   0019DA  C5A6 F506          	movff	1446,1286
  4312   0019DE  0EE8               	movlw	232
  4313   0019E0  6E09               	movwf	1289,c
  4314   0019E2  0E03               	movlw	3
  4315   0019E4  6E0A               	movwf	1290,c
  4316   0019E6  0100               	banksel	0
  4317   0019E8  D8DA               	rcall	SYSDIVSUB16
  4318   0019EA  C505 F597          	movff	1285,1431
  4319                           
  4320                           ;'SYSVALTEMP = SYSCALCTEMPX
  4321   0019EE  C500 F5A5          	movff	1280,1445
  4322   0019F2  C501 F5A6          	movff	1281,1446
  4323                           
  4324                           ;'SYSCHARCOUNT += 1
  4325   0019F6  0105               	banksel	1405
  4326   0019F8  2B7D               	incf	1405,f,b
  4327                           
  4328                           ;'STR(SYSCHARCOUNT) = SYSSTRDATA + 48
  4329   0019FA  EE04 F086          	lfsr	0,4230
  4330   0019FE  517D               	movf	1405,w,b
  4331   001A00  26E9               	addwf	fsr0l,f,c
  4332   001A02  0E00               	movlw	0
  4333   001A04  22EA               	addwfc	fsr0h,f,c
  4334   001A06  0E30               	movlw	48
  4335   001A08  2597               	addwf	1431,w,b
  4336   001A0A  6EEF               	movwf	indf0,c
  4337                           
  4338                           ;'GOTO SYSVALHUNDREDS
  4339   001A0C  D00B               	bra	SYSVALHUNDREDS
  4340   001A0E                     ENDIF39:
  4341                           	callstack 0
  4342                           
  4343                           ;'HUNDREDS
  4344                           ;'IF SYSVALTEMP >= 100 THEN
  4345   001A0E  C5A5 F505          	movff	1445,1285
  4346   001A12  C5A6 F506          	movff	1446,1286
  4347   001A16  0E64               	movlw	100
  4348   001A18  6E09               	movwf	1289,c
  4349   001A1A  6A0A               	clrf	1290,c
  4350   001A1C  D879               	rcall	SYSCOMPLESSTHAN16
  4351   001A1E  1E00               	comf	1280,f,c
  4352   001A20  A000               	btfss	1280,0,c
  4353   001A22  D01B               	bra	ENDIF40
  4354   001A24                     SYSVALHUNDREDS:
  4355                           	callstack 0
  4356                           
  4357                           ;'SYSSTRDATA = SYSVALTEMP / 100
  4358   001A24  C5A5 F505          	movff	1445,1285
  4359   001A28  C5A6 F506          	movff	1446,1286
  4360   001A2C  0E64               	movlw	100
  4361   001A2E  6E09               	movwf	1289,c
  4362   001A30  6A0A               	clrf	1290,c
  4363   001A32  0100               	banksel	0
  4364   001A34  D8B4               	rcall	SYSDIVSUB16
  4365   001A36  C505 F597          	movff	1285,1431
  4366                           
  4367                           ;'SYSVALTEMP = SYSCALCTEMPX
  4368   001A3A  C500 F5A5          	movff	1280,1445
  4369   001A3E  C501 F5A6          	movff	1281,1446
  4370                           
  4371                           ;'SYSCHARCOUNT += 1
  4372   001A42  0105               	banksel	1405
  4373   001A44  2B7D               	incf	1405,f,b
  4374                           
  4375                           ;'STR(SYSCHARCOUNT) = SYSSTRDATA + 48
  4376   001A46  EE04 F086          	lfsr	0,4230
  4377   001A4A  517D               	movf	1405,w,b
  4378   001A4C  26E9               	addwf	fsr0l,f,c
  4379   001A4E  0E00               	movlw	0
  4380   001A50  22EA               	addwfc	fsr0h,f,c
  4381   001A52  0E30               	movlw	48
  4382   001A54  2597               	addwf	1431,w,b
  4383   001A56  6EEF               	movwf	indf0,c
  4384                           
  4385                           ;'GOTO SYSVALTENS
  4386   001A58  D00B               	bra	SYSVALTENS
  4387   001A5A                     ENDIF40:
  4388                           	callstack 0
  4389                           
  4390                           ;'TENS
  4391                           ;'IF SYSVALTEMP >= 10 THEN
  4392   001A5A  C5A5 F505          	movff	1445,1285
  4393   001A5E  C5A6 F506          	movff	1446,1286
  4394   001A62  0E0A               	movlw	10
  4395   001A64  6E09               	movwf	1289,c
  4396   001A66  6A0A               	clrf	1290,c
  4397   001A68  D853               	rcall	SYSCOMPLESSTHAN16
  4398   001A6A  1E00               	comf	1280,f,c
  4399   001A6C  A000               	btfss	1280,0,c
  4400   001A6E  D01A               	bra	ENDIF41
  4401   001A70                     SYSVALTENS:
  4402                           	callstack 0
  4403                           
  4404                           ;'SYSSTRDATA = SYSVALTEMP / 10
  4405   001A70  C5A5 F505          	movff	1445,1285
  4406   001A74  C5A6 F506          	movff	1446,1286
  4407   001A78  0E0A               	movlw	10
  4408   001A7A  6E09               	movwf	1289,c
  4409   001A7C  6A0A               	clrf	1290,c
  4410   001A7E  0100               	banksel	0
  4411   001A80  D88E               	rcall	SYSDIVSUB16
  4412   001A82  C505 F597          	movff	1285,1431
  4413                           
  4414                           ;'SYSVALTEMP = SYSCALCTEMPX
  4415   001A86  C500 F5A5          	movff	1280,1445
  4416   001A8A  C501 F5A6          	movff	1281,1446
  4417                           
  4418                           ;'SYSCHARCOUNT += 1
  4419   001A8E  0105               	banksel	1405
  4420   001A90  2B7D               	incf	1405,f,b
  4421                           
  4422                           ;'STR(SYSCHARCOUNT) = SYSSTRDATA + 48
  4423   001A92  EE04 F086          	lfsr	0,4230
  4424   001A96  517D               	movf	1405,w,b
  4425   001A98  26E9               	addwf	fsr0l,f,c
  4426   001A9A  0E00               	movlw	0
  4427   001A9C  22EA               	addwfc	fsr0h,f,c
  4428   001A9E  0E30               	movlw	48
  4429   001AA0  2597               	addwf	1431,w,b
  4430   001AA2  6EEF               	movwf	indf0,c
  4431   001AA4                     ENDIF41:
  4432                           	callstack 0
  4433                           
  4434                           ;'ONES
  4435                           ;'SYSCHARCOUNT += 1
  4436   001AA4  0105               	banksel	1405
  4437   001AA6  2B7D               	incf	1405,f,b
  4438                           
  4439                           ;'STR(SYSCHARCOUNT) = SYSVALTEMP + 48
  4440   001AA8  EE04 F086          	lfsr	0,4230
  4441   001AAC  517D               	movf	1405,w,b
  4442   001AAE  26E9               	addwf	fsr0l,f,c
  4443   001AB0  0E00               	movlw	0
  4444   001AB2  22EA               	addwfc	fsr0h,f,c
  4445   001AB4  0E30               	movlw	48
  4446   001AB6  25A5               	addwf	1445,w,b
  4447   001AB8  6EEF               	movwf	indf0,c
  4448                           
  4449                           ;'SYSVALTEMP = SYSCALCTEMPX
  4450   001ABA  C500 F5A5          	movff	1280,1445
  4451   001ABE  C501 F5A6          	movff	1281,1446
  4452                           
  4453                           ;'STR(0) = SYSCHARCOUNT
  4454   001AC2  0061 F5F5 F086     	movffl	1405,4230
  4455   001AC8  0100               	banksel	0
  4456   001ACA  0012               	return	
  4457   001ACC                     SYSCOMPEQUAL:
  4458                           	callstack 0
  4459                           
  4460                           ;'DIM SYSBYTETEMPA, SYSBYTETEMPB, SYSBYTETEMPX AS BYTE
  4461                           ;'SETF SYSBYTETEMPX
  4462   001ACC  6800               	setf	1280,c
  4463                           
  4464                           ;'MOVF SYSBYTETEMPB, W
  4465   001ACE  5009               	movf	1289,w,c
  4466                           
  4467                           ;'CPFSEQ SYSBYTETEMPA
  4468   001AD0  6205               	cpfseq	1285,c
  4469                           
  4470                           ;'CLRF SYSBYTETEMPX
  4471   001AD2  6A00               	clrf	1280,c
  4472   001AD4  0012               	return	
  4473   001AD6                     SYSCOMPEQUAL16:
  4474                           	callstack 0
  4475                           
  4476                           ;'DIM SYSWORDTEMPA AS WORD
  4477                           ;'DIM SYSWORDTEMPB AS WORD
  4478                           ;'DIM SYSBYTETEMPX AS BYTE
  4479                           ;'CLRF SYSBYTETEMPX
  4480   001AD6  6A00               	clrf	1280,c
  4481                           
  4482                           ;'TEST LOW, EXIT IF FALSE
  4483                           ;'MOVF SYSWORDTEMPB, W
  4484   001AD8  5009               	movf	1289,w,c
  4485                           
  4486                           ;'CPFSEQ SYSWORDTEMPA
  4487   001ADA  6205               	cpfseq	1285,c
  4488                           
  4489                           ;'RETURN
  4490   001ADC  0012               	return	
  4491                           
  4492                           ;'TEST HIGH, EXIT IF FALSE
  4493                           ;'MOVF SYSWORDTEMPB_H, W
  4494   001ADE  500A               	movf	1290,w,c
  4495                           
  4496                           ;'CPFSEQ SYSWORDTEMPA_H
  4497   001AE0  6206               	cpfseq	1286,c
  4498                           
  4499                           ;'RETURN
  4500   001AE2  0012               	return	
  4501                           
  4502                           ;'SETF SYSBYTETEMPX
  4503   001AE4  6800               	setf	1280,c
  4504   001AE6  0012               	return	
  4505   001AE8                     SYSCOMPEQUAL32:
  4506                           	callstack 0
  4507                           
  4508                           ;'DIM SYSLONGTEMPA AS LONG
  4509                           ;'DIM SYSLONGTEMPB AS LONG
  4510                           ;'DIM SYSBYTETEMPX AS BYTE
  4511                           ;'CLRF SYSBYTETEMPX
  4512   001AE8  6A00               	clrf	1280,c
  4513                           
  4514                           ;'TEST LOW, EXIT IF FALSE
  4515                           ;'MOVF SYSLONGTEMPB, W
  4516   001AEA  5009               	movf	1289,w,c
  4517                           
  4518                           ;'CPFSEQ SYSLONGTEMPA
  4519   001AEC  6205               	cpfseq	1285,c
  4520                           
  4521                           ;'RETURN
  4522   001AEE  0012               	return	
  4523                           
  4524                           ;'TEST HIGH, EXIT IF FALSE
  4525                           ;'MOVF SYSLONGTEMPB_H, W
  4526   001AF0  500A               	movf	1290,w,c
  4527                           
  4528                           ;'CPFSEQ SYSLONGTEMPA_H
  4529   001AF2  6206               	cpfseq	1286,c
  4530                           
  4531                           ;'RETURN
  4532   001AF4  0012               	return	
  4533                           
  4534                           ;'TEST UPPER, EXIT IF FALSE
  4535                           ;'MOVF SYSLONGTEMPB_U, W
  4536   001AF6  500B               	movf	1291,w,c
  4537                           
  4538                           ;'CPFSEQ SYSLONGTEMPA_U
  4539   001AF8  6207               	cpfseq	1287,c
  4540                           
  4541                           ;'RETURN
  4542   001AFA  0012               	return	
  4543                           
  4544                           ;'TEST EXP, EXIT IF FALSE
  4545                           ;'MOVF SYSLONGTEMPB_E, W
  4546   001AFC  500C               	movf	1292,w,c
  4547                           
  4548                           ;'CPFSEQ SYSLONGTEMPA_E
  4549   001AFE  6208               	cpfseq	1288,c
  4550                           
  4551                           ;'RETURN
  4552   001B00  0012               	return	
  4553                           
  4554                           ;'SETF SYSBYTETEMPX
  4555   001B02  6800               	setf	1280,c
  4556   001B04  0012               	return	
  4557   001B06                     SYSCOMPLESSTHAN:
  4558                           	callstack 0
  4559                           
  4560                           ;'DIM SYSBYTETEMPA, SYSBYTETEMPB, SYSBYTETEMPX AS BYTE
  4561                           ;'SETF SYSBYTETEMPX
  4562   001B06  6800               	setf	1280,c
  4563                           
  4564                           ;'MOVF SYSBYTETEMPB, W
  4565   001B08  5009               	movf	1289,w,c
  4566                           
  4567                           ;'CPFSLT SYSBYTETEMPA
  4568   001B0A  6005               	cpfslt	1285,c
  4569                           
  4570                           ;'CLRF SYSBYTETEMPX
  4571   001B0C  6A00               	clrf	1280,c
  4572   001B0E  0012               	return	
  4573   001B10                     SYSCOMPLESSTHAN16:
  4574                           	callstack 0
  4575                           
  4576                           ;'DIM SYSWORDTEMPA AS WORD
  4577                           ;'DIM SYSWORDTEMPB AS WORD
  4578                           ;'DIM SYSBYTETEMPX AS BYTE
  4579                           ;'CLRF SYSBYTETEMPX
  4580   001B10  6A00               	clrf	1280,c
  4581                           
  4582                           ;'TEST HIGH, EXIT IF MORE
  4583                           ;'MOVF SYSWORDTEMPA_H,W
  4584   001B12  5006               	movf	1286,w,c
  4585                           
  4586                           ;'SUBWF SYSWORDTEMPB_H,W
  4587   001B14  5C0A               	subwf	1290,w,c
  4588                           
  4589                           ;BTFSS STATUS,0
  4590   001B16  A0D8               	btfss	status,0,c
  4591                           
  4592                           ;'RETURN
  4593   001B18  0012               	return	
  4594                           
  4595                           ;'TEST HIGH, EXIT TRUE IF LESS
  4596                           ;'MOVF SYSWORDTEMPB_H,W
  4597   001B1A  500A               	movf	1290,w,c
  4598                           
  4599                           ;'SUBWF SYSWORDTEMPA_H,W
  4600   001B1C  5C06               	subwf	1286,w,c
  4601                           
  4602                           ;'BNC SCLT16TRUE
  4603   001B1E  E304               	bnc	SCLT16TRUE
  4604                           
  4605                           ;'TEST LOW, EXIT IF MORE OR EQUAL
  4606                           ;'MOVF SYSWORDTEMPB,W
  4607   001B20  5009               	movf	1289,w,c
  4608                           
  4609                           ;'SUBWF SYSWORDTEMPA,W
  4610   001B22  5C05               	subwf	1285,w,c
  4611                           
  4612                           ;BTFSC STATUS,0
  4613   001B24  B0D8               	btfsc	status,0,c
  4614                           
  4615                           ;'RETURN
  4616   001B26  0012               	return	
  4617   001B28                     SCLT16TRUE:
  4618                           	callstack 0
  4619                           
  4620                           ;'COMF SYSBYTETEMPX,F
  4621   001B28  1E00               	comf	1280,f,c
  4622   001B2A  0012               	return	
  4623   001B2C                     SYSCOMPLESSTHANINT:
  4624                           	callstack 0
  4625                           
  4626                           ;'DIM SYSINTEGERTEMPA, SYSINTEGERTEMPB, SYSDIVMULTA AS INTEGER
  4627                           ;'CLEAR RESULT
  4628                           ;'SYSBYTETEMPX = 0
  4629   001B2C  6A00               	clrf	1280,c
  4630                           
  4631                           ;'COMPARE SIGN BITS
  4632                           ;'-A
  4633                           ;'IF SYSINTEGERTEMPA.15 = ON THEN
  4634   001B2E  AE06               	btfss	1286,7,c
  4635   001B30  D017               	bra	ELSE35_1
  4636                           
  4637                           ;'-A, +B, RETURN TRUE
  4638                           ;'IF SYSINTEGERTEMPB.15 = OFF THEN
  4639   001B32  BE0A               	btfsc	1290,7,c
  4640   001B34  D002               	bra	ENDIF36
  4641                           
  4642                           ;'SET SYSBYTETEMPX TO 255
  4643                           ;'SYSBYTETEMPX = NOT SYSBYTETEMPX
  4644   001B36  1E00               	comf	1280,f,c
  4645                           
  4646                           ;'EXIT SUB
  4647   001B38  0012               	return	
  4648   001B3A                     ENDIF36:
  4649                           	callstack 0
  4650                           
  4651                           ;'-A, -B, NEGATE BOTH AND SWAP
  4652                           ;'SYSDIVMULTA = -SYSINTEGERTEMPA
  4653   001B3A  1C05               	comf	1285,w,c
  4654   001B3C  6E07               	movwf	1287,c
  4655   001B3E  1C06               	comf	1286,w,c
  4656   001B40  6E08               	movwf	1288,c
  4657   001B42  2A07               	incf	1287,f,c
  4658   001B44  B4D8               	btfsc	status,2,c
  4659   001B46  2A08               	incf	1288,f,c
  4660                           
  4661                           ;'SYSINTEGERTEMPA = -SYSINTEGERTEMPB
  4662   001B48  1C09               	comf	1289,w,c
  4663   001B4A  6E05               	movwf	1285,c
  4664   001B4C  1C0A               	comf	1290,w,c
  4665   001B4E  6E06               	movwf	1286,c
  4666   001B50  2A05               	incf	1285,f,c
  4667   001B52  B4D8               	btfsc	status,2,c
  4668   001B54  2A06               	incf	1286,f,c
  4669                           
  4670                           ;'SYSINTEGERTEMPB = SYSDIVMULTA
  4671   001B56  C507 F509          	movff	1287,1289
  4672   001B5A  C508 F50A          	movff	1288,1290
  4673                           
  4674                           ;'+A
  4675                           ;'ELSE
  4676   001B5E  D002               	bra	ENDIF35
  4677   001B60                     ELSE35_1:
  4678                           	callstack 0
  4679                           
  4680                           ;'+A, -B, RETURN FALSE
  4681                           ;'IF SYSINTEGERTEMPB.15 = ON THEN
  4682   001B60  BE0A               	btfsc	1290,7,c
  4683                           
  4684                           ;'EXIT SUB
  4685   001B62  0012               	return	
  4686   001B64                     ENDIF35:
  4687                           	callstack 0
  4688                           
  4689                           ;'TEST HIGH, EXIT IF MORE
  4690                           ;'MOVF SYSINTEGERTEMPA_H,W
  4691   001B64  5006               	movf	1286,w,c
  4692                           
  4693                           ;'SUBWF SYSINTEGERTEMPB_H,W
  4694   001B66  5C0A               	subwf	1290,w,c
  4695                           
  4696                           ;BTFSS STATUS,0
  4697   001B68  A0D8               	btfss	status,0,c
  4698                           
  4699                           ;'RETURN
  4700   001B6A  0012               	return	
  4701                           
  4702                           ;'TEST HIGH, EXIT TRUE IF LESS
  4703                           ;'MOVF SYSINTEGERTEMPB_H,W
  4704   001B6C  500A               	movf	1290,w,c
  4705                           
  4706                           ;'SUBWF SYSINTEGERTEMPA_H,W
  4707   001B6E  5C06               	subwf	1286,w,c
  4708                           
  4709                           ;'BNC SCLTINTTRUE
  4710   001B70  E304               	bnc	SCLTINTTRUE
  4711                           
  4712                           ;'TEST LOW, EXIT IF MORE OR EQUAL
  4713                           ;'MOVF SYSINTEGERTEMPB,W
  4714   001B72  5009               	movf	1289,w,c
  4715                           
  4716                           ;'SUBWF SYSINTEGERTEMPA,W
  4717   001B74  5C05               	subwf	1285,w,c
  4718                           
  4719                           ;BTFSC STATUS,0
  4720   001B76  B0D8               	btfsc	status,0,c
  4721                           
  4722                           ;'RETURN
  4723   001B78  0012               	return	
  4724   001B7A                     SCLTINTTRUE:
  4725                           	callstack 0
  4726                           
  4727                           ;'COMF SYSBYTETEMPX,F
  4728   001B7A  1E00               	comf	1280,f,c
  4729   001B7C  0012               	return	
  4730   001B7E                     SYSCOPYSTRING:
  4731                           	callstack 0
  4732                           
  4733                           ;'DIM SYSCALCTEMPA AS BYTE
  4734                           ;'DIM SYSSTRINGLENGTH AS BYTE
  4735                           ;'GET AND COPY LENGTH FOR CHIPFAMILY 16 SUPPORT
  4736                           ;MOVFF INDF0,SYSCALCTEMPA
  4737   001B7E  C4EF F505          	movff	indf0,1285
  4738                           
  4739                           ;MOVFF SYSCALCTEMPA,INDF1
  4740   001B82  C505 F4E7          	movff	1285,indf1
  4741                           
  4742                           ;'GOTO SYSCOPYSTRINGCHECK
  4743   001B86  D003               	bra	SYSCOPYSTRINGCHECK
  4744   001B88                     SYSCOPYSTRINGPART:
  4745                           	callstack 0
  4746                           
  4747                           ;MOVF INDF0,W
  4748   001B88  50EF               	movf	indf0,w,c
  4749                           
  4750                           ;'MOVWF SYSCALCTEMPA
  4751   001B8A  6E05               	movwf	1285,c
  4752                           
  4753                           ;'ADDWF SYSSTRINGLENGTH, F
  4754   001B8C  2606               	addwf	1286,f,c
  4755   001B8E                     SYSCOPYSTRINGCHECK:
  4756                           	callstack 0
  4757                           
  4758                           ;'EXIT IF LENGTH = 0
  4759                           ;'MOVF SYSCALCTEMPA,F
  4760   001B8E  5205               	movf	1285,f,c
  4761                           
  4762                           ;BTFSC STATUS,2
  4763   001B90  B4D8               	btfsc	status,2,c
  4764                           
  4765                           ;'RETURN
  4766   001B92  0012               	return	
  4767   001B94                     SYSSTRINGCOPY:
  4768                           	callstack 0
  4769                           
  4770                           ;'COPY CHARACTER
  4771                           ;MOVFF PREINC0,PREINC1
  4772   001B94  C4EC F4E4          	movff	preinc0,preinc1
  4773                           
  4774                           ;'DECFSZ SYSCALCTEMPA, F
  4775   001B98  2E05               	decfsz	1285,f,c
  4776                           
  4777                           ;'GOTO SYSSTRINGCOPY
  4778   001B9A  D7FC               	bra	SYSSTRINGCOPY
  4779   001B9C  0012               	return	
  4780   001B9E                     SYSDIVSUB16:
  4781                           	callstack 0
  4782                           
  4783                           ;'DIM SYSWORDTEMPA AS WORD
  4784                           ;'DIM SYSWORDTEMPB AS WORD
  4785                           ;'DIM SYSWORDTEMPX AS WORD
  4786                           ;'DIM SYSDIVMULTA AS WORD
  4787                           ;'DIM SYSDIVMULTB AS WORD
  4788                           ;'DIM SYSDIVMULTX AS WORD
  4789                           ;'SYSDIVMULTA = SYSWORDTEMPA
  4790   001B9E  C505 F507          	movff	1285,1287
  4791   001BA2  C506 F508          	movff	1286,1288
  4792                           
  4793                           ;'SYSDIVMULTB = SYSWORDTEMPB
  4794   001BA6  C509 F50B          	movff	1289,1291
  4795   001BAA  C50A F50C          	movff	1290,1292
  4796                           
  4797                           ;'SYSDIVMULTX = 0
  4798   001BAE  6A02               	clrf	1282,c
  4799   001BB0  6A03               	clrf	1283,c
  4800                           
  4801                           ;'AVOID DIVISION BY ZERO
  4802                           ;'IF SYSDIVMULTB = 0 THEN
  4803   001BB2  C50B F505          	movff	1291,1285
  4804   001BB6  C50C F506          	movff	1292,1286
  4805   001BBA  6A09               	clrf	1289,c
  4806   001BBC  6A0A               	clrf	1290,c
  4807   001BBE  DF8B               	rcall	SYSCOMPEQUAL16
  4808   001BC0  A000               	btfss	1280,0,c
  4809   001BC2  D003               	bra	ENDIF67
  4810                           
  4811                           ;'SYSWORDTEMPA = 0
  4812   001BC4  6A05               	clrf	1285,c
  4813   001BC6  6A06               	clrf	1286,c
  4814                           
  4815                           ;'EXIT SUB
  4816   001BC8  0012               	return	
  4817   001BCA                     ENDIF67:
  4818                           	callstack 0
  4819                           
  4820                           ;'MAIN CALC ROUTINE
  4821                           ;'SYSDIVLOOP = 16
  4822   001BCA  0E10               	movlw	16
  4823   001BCC  6E04               	movwf	1284,c
  4824   001BCE                     SYSDIV16START:
  4825                           	callstack 0
  4826                           
  4827                           ;'SET C OFF
  4828   001BCE  90D8               	bcf	status,0,c
  4829                           
  4830                           ;'ROTATE SYSDIVMULTA LEFT
  4831   001BD0  3607               	rlcf	1287,f,c
  4832   001BD2  3608               	rlcf	1288,f,c
  4833                           
  4834                           ;'ROTATE SYSDIVMULTX LEFT
  4835   001BD4  3602               	rlcf	1282,f,c
  4836   001BD6  3603               	rlcf	1283,f,c
  4837                           
  4838                           ;'SYSDIVMULTX = SYSDIVMULTX - SYSDIVMULTB
  4839   001BD8  500B               	movf	1291,w,c
  4840   001BDA  5E02               	subwf	1282,f,c
  4841   001BDC  500C               	movf	1292,w,c
  4842   001BDE  5A03               	subwfb	1283,f,c
  4843                           
  4844                           ;'SET SYSDIVMULTA.0 ON
  4845   001BE0  8007               	bsf	1287,0,c
  4846                           
  4847                           ;'IF C OFF THEN
  4848   001BE2  B0D8               	btfsc	status,0,c
  4849   001BE4  D005               	bra	ENDIF68
  4850                           
  4851                           ;'SET SYSDIVMULTA.0 OFF
  4852   001BE6  9007               	bcf	1287,0,c
  4853                           
  4854                           ;'SYSDIVMULTX = SYSDIVMULTX + SYSDIVMULTB
  4855   001BE8  500B               	movf	1291,w,c
  4856   001BEA  2602               	addwf	1282,f,c
  4857   001BEC  500C               	movf	1292,w,c
  4858   001BEE  2203               	addwfc	1283,f,c
  4859   001BF0                     ENDIF68:
  4860                           	callstack 0
  4861                           
  4862                           ;'DECFSZ SYSDIVLOOP, F
  4863   001BF0  2E04               	decfsz	1284,f,c
  4864                           
  4865                           ;'GOTO SYSDIV16START
  4866   001BF2  D7ED               	bra	SYSDIV16START
  4867                           
  4868                           ;'SYSWORDTEMPA = SYSDIVMULTA
  4869   001BF4  C507 F505          	movff	1287,1285
  4870   001BF8  C508 F506          	movff	1288,1286
  4871                           
  4872                           ;'SYSWORDTEMPX = SYSDIVMULTX
  4873   001BFC  C502 F500          	movff	1282,1280
  4874   001C00  C503 F501          	movff	1283,1281
  4875   001C04  0012               	return	
  4876   001C06                     SYSDIVSUB32:
  4877                           	callstack 0
  4878                           
  4879                           ;'DIM SYSLONGTEMPA AS LONG
  4880                           ;'DIM SYSLONGTEMPB AS LONG
  4881                           ;'DIM SYSLONGTEMPX AS LONG
  4882                           ;'#IFDEF PIC
  4883                           ;'DIM SYSLONGDIVMULTA AS LONG
  4884                           ;'DIM SYSLONGDIVMULTB AS LONG
  4885                           ;'DIM SYSLONGDIVMULTX AS LONG
  4886                           ;'#ENDIF
  4887                           ;'SYSLONGDIVMULTA = SYSLONGTEMPA
  4888   001C06  C505 F588          	movff	1285,1416
  4889   001C0A  C506 F589          	movff	1286,1417
  4890   001C0E  C507 F58A          	movff	1287,1418
  4891   001C12  C508 F58B          	movff	1288,1419
  4892                           
  4893                           ;'SYSLONGDIVMULTB = SYSLONGTEMPB
  4894   001C16  C509 F58C          	movff	1289,1420
  4895   001C1A  C50A F58D          	movff	1290,1421
  4896   001C1E  C50B F58E          	movff	1291,1422
  4897   001C22  C50C F58F          	movff	1292,1423
  4898                           
  4899                           ;'SYSLONGDIVMULTX = 0
  4900   001C26  0105               	banksel	1424
  4901   001C28  6B90               	clrf	1424,b
  4902   001C2A  6B91               	clrf	1425,b
  4903   001C2C  6B92               	clrf	1426,b
  4904   001C2E  6B93               	clrf	1427,b
  4905                           
  4906                           ;'AVOID DIVISION BY ZERO
  4907                           ;'IF SYSLONGDIVMULTB = 0 THEN
  4908   001C30  C58C F505          	movff	1420,1285
  4909   001C34  C58D F506          	movff	1421,1286
  4910   001C38  C58E F507          	movff	1422,1287
  4911   001C3C  C58F F508          	movff	1423,1288
  4912   001C40  6A09               	clrf	1289,c
  4913   001C42  6A0A               	clrf	1290,c
  4914   001C44  6A0B               	clrf	1291,c
  4915   001C46  6A0C               	clrf	1292,c
  4916   001C48  0100               	banksel	0
  4917   001C4A  DF4E               	rcall	SYSCOMPEQUAL32
  4918   001C4C  A000               	btfss	1280,0,c
  4919   001C4E  D005               	bra	ENDIF33
  4920                           
  4921                           ;'SYSLONGTEMPA = 0
  4922   001C50  6A05               	clrf	1285,c
  4923   001C52  6A06               	clrf	1286,c
  4924   001C54  6A07               	clrf	1287,c
  4925   001C56  6A08               	clrf	1288,c
  4926                           
  4927                           ;'EXIT SUB
  4928   001C58  0012               	return	
  4929   001C5A                     ENDIF33:
  4930                           	callstack 0
  4931                           
  4932                           ;'MAIN CALC ROUTINE
  4933                           ;'SYSDIVLOOP = 32
  4934   001C5A  0E20               	movlw	32
  4935   001C5C  6E04               	movwf	1284,c
  4936   001C5E                     SYSDIV32START:
  4937                           	callstack 0
  4938                           
  4939                           ;'SET C OFF
  4940   001C5E  90D8               	bcf	status,0,c
  4941                           
  4942                           ;'ROTATE SYSLONGDIVMULTA LEFT
  4943   001C60  0105               	banksel	1416
  4944   001C62  3788               	rlcf	1416,f,b
  4945   001C64  3789               	rlcf	1417,f,b
  4946   001C66  378A               	rlcf	1418,f,b
  4947   001C68  378B               	rlcf	1419,f,b
  4948                           
  4949                           ;'ROTATE SYSLONGDIVMULTX LEFT
  4950   001C6A  3790               	rlcf	1424,f,b
  4951   001C6C  3791               	rlcf	1425,f,b
  4952   001C6E  3792               	rlcf	1426,f,b
  4953   001C70  3793               	rlcf	1427,f,b
  4954                           
  4955                           ;'SYSLONGDIVMULTX = SYSLONGDIVMULTX - SYSLONGDIVMULTB
  4956   001C72  518C               	movf	1420,w,b
  4957   001C74  5F90               	subwf	1424,f,b
  4958   001C76  518D               	movf	1421,w,b
  4959   001C78  5B91               	subwfb	1425,f,b
  4960   001C7A  518E               	movf	1422,w,b
  4961   001C7C  5B92               	subwfb	1426,f,b
  4962   001C7E  518F               	movf	1423,w,b
  4963   001C80  5B93               	subwfb	1427,f,b
  4964                           
  4965                           ;'SET SYSLONGDIVMULTA.0 ON
  4966   001C82  8188               	bsf	1416,0,b
  4967                           
  4968                           ;'IF C OFF THEN
  4969   001C84  B0D8               	btfsc	status,0,c
  4970   001C86  D009               	bra	ENDIF34
  4971                           
  4972                           ;'SET SYSLONGDIVMULTA.0 OFF
  4973   001C88  9188               	bcf	1416,0,b
  4974                           
  4975                           ;'SYSLONGDIVMULTX = SYSLONGDIVMULTX + SYSLONGDIVMULTB
  4976   001C8A  518C               	movf	1420,w,b
  4977   001C8C  2790               	addwf	1424,f,b
  4978   001C8E  518D               	movf	1421,w,b
  4979   001C90  2391               	addwfc	1425,f,b
  4980   001C92  518E               	movf	1422,w,b
  4981   001C94  2392               	addwfc	1426,f,b
  4982   001C96  518F               	movf	1423,w,b
  4983   001C98  2393               	addwfc	1427,f,b
  4984   001C9A                     ENDIF34:
  4985                           	callstack 0
  4986                           
  4987                           ;'DECFSZ SYSDIVLOOP, F
  4988   001C9A  2E04               	decfsz	1284,f,c
  4989                           
  4990                           ;'GOTO SYSDIV32START
  4991   001C9C  D7E0               	bra	SYSDIV32START
  4992                           
  4993                           ;'SYSLONGTEMPA = SYSLONGDIVMULTA
  4994   001C9E  C588 F505          	movff	1416,1285
  4995   001CA2  C589 F506          	movff	1417,1286
  4996   001CA6  C58A F507          	movff	1418,1287
  4997   001CAA  C58B F508          	movff	1419,1288
  4998                           
  4999                           ;'SYSLONGTEMPX = SYSLONGDIVMULTX
  5000   001CAE  C590 F500          	movff	1424,1280
  5001   001CB2  C591 F501          	movff	1425,1281
  5002   001CB6  C592 F502          	movff	1426,1282
  5003   001CBA  C593 F503          	movff	1427,1283
  5004   001CBE  0100               	banksel	0
  5005   001CC0  0012               	return	
  5006   001CC2                     SYSDIVSUBINT:
  5007                           	callstack 0
  5008                           
  5009                           ;'DIM SYSINTEGERTEMPA, SYSINTEGERTEMPB, SYSINTEGERTEMPX AS INTEGER
  5010                           ;'DIM SYSSIGNBYTE AS BYTE
  5011                           ;'MAKE BOTH INPUTS POSITIVE, DECIDE OUTPUT TYPE
  5012                           ;'SYSSIGNBYTE = SYSINTEGERTEMPA_H XOR SYSINTEGERTEMPB_H
  5013   001CC2  5006               	movf	1286,w,c
  5014   001CC4  180A               	xorwf	1290,w,c
  5015   001CC6  6E0D               	movwf	1293,c
  5016                           
  5017                           ;'IF SYSINTEGERTEMPA.15 THEN SYSINTEGERTEMPA = -SYSINTEGERTEMPA
  5018   001CC8  AE06               	btfss	1286,7,c
  5019   001CCA  D005               	bra	ENDIF30
  5020                           
  5021                           ;'IF SYSINTEGERTEMPA.15 THEN SYSINTEGERTEMPA = -SYSINTEGERTEMPA
  5022   001CCC  1E05               	comf	1285,f,c
  5023   001CCE  1E06               	comf	1286,f,c
  5024   001CD0  2A05               	incf	1285,f,c
  5025   001CD2  B4D8               	btfsc	status,2,c
  5026   001CD4  2A06               	incf	1286,f,c
  5027   001CD6                     ENDIF30:
  5028                           	callstack 0
  5029                           
  5030                           ;'IF SYSINTEGERTEMPB.15 THEN SYSINTEGERTEMPB = -SYSINTEGERTEMPB
  5031   001CD6  AE0A               	btfss	1290,7,c
  5032   001CD8  D005               	bra	ENDIF31
  5033                           
  5034                           ;'IF SYSINTEGERTEMPB.15 THEN SYSINTEGERTEMPB = -SYSINTEGERTEMPB
  5035   001CDA  1E09               	comf	1289,f,c
  5036   001CDC  1E0A               	comf	1290,f,c
  5037   001CDE  2A09               	incf	1289,f,c
  5038   001CE0  B4D8               	btfsc	status,2,c
  5039   001CE2  2A0A               	incf	1290,f,c
  5040   001CE4                     ENDIF31:
  5041                           	callstack 0
  5042                           
  5043                           ;'CALL WORD DIVIDE ROUTINE
  5044                           ;'SYSDIVSUB16
  5045   001CE4  DF5C               	rcall	SYSDIVSUB16
  5046                           
  5047                           ;'NEGATE RESULT IF NECESSARY
  5048                           ;'IF SYSSIGNBYTE.7 THEN
  5049   001CE6  AE0D               	btfss	1293,7,c
  5050   001CE8  D00A               	bra	ENDIF32
  5051                           
  5052                           ;'SYSINTEGERTEMPA = -SYSINTEGERTEMPA
  5053   001CEA  1E05               	comf	1285,f,c
  5054   001CEC  1E06               	comf	1286,f,c
  5055   001CEE  2A05               	incf	1285,f,c
  5056   001CF0  B4D8               	btfsc	status,2,c
  5057   001CF2  2A06               	incf	1286,f,c
  5058                           
  5059                           ;'SYSINTEGERTEMPX = -SYSINTEGERTEMPX
  5060   001CF4  1E00               	comf	1280,f,c
  5061   001CF6  1E01               	comf	1281,f,c
  5062   001CF8  2A00               	incf	1280,f,c
  5063   001CFA  B4D8               	btfsc	status,2,c
  5064   001CFC  2A01               	incf	1281,f,c
  5065   001CFE                     ENDIF32:
  5066                           	callstack 0
  5067   001CFE  0012               	return	
  5068   001D00                     SYSMULTSUB16:
  5069                           	callstack 0
  5070                           
  5071                           ;'DIM SYSWORDTEMPA AS WORD
  5072                           ;'DIM SYSWORDTEMPB AS WORD
  5073                           ;'DIM SYSWORDTEMPX AS WORD
  5074                           ;'X = LOWA * LOWB
  5075                           ;'MOVF SYSWORDTEMPA, W
  5076   001D00  5005               	movf	1285,w,c
  5077                           
  5078                           ;'MULWF SYSWORDTEMPB
  5079   001D02  0209               	mulwf	1289,c
  5080                           
  5081                           ;MOVFF PRODL,SYSWORDTEMPX
  5082   001D04  C4F3 F500          	movff	prodl,1280
  5083                           
  5084                           ;MOVFF PRODH,SYSWORDTEMPX_H
  5085   001D08  C4F4 F501          	movff	prodh,1281
  5086                           
  5087                           ;'HIGHX += LOWA * HIGHB
  5088                           ;'MOVF SYSWORDTEMPA, W
  5089   001D0C  5005               	movf	1285,w,c
  5090                           
  5091                           ;'MULWF SYSWORDTEMPB_H
  5092   001D0E  020A               	mulwf	1290,c
  5093                           
  5094                           ;MOVF PRODL,W
  5095   001D10  50F3               	movf	prodl,w,c
  5096                           
  5097                           ;'ADDWF SYSWORDTEMPX_H, F
  5098   001D12  2601               	addwf	1281,f,c
  5099                           
  5100                           ;'HIGHX += HIGHA * LOWB
  5101                           ;'MOVF SYSWORDTEMPA_H, W
  5102   001D14  5006               	movf	1286,w,c
  5103                           
  5104                           ;'MULWF SYSWORDTEMPB
  5105   001D16  0209               	mulwf	1289,c
  5106                           
  5107                           ;MOVF PRODL,W
  5108   001D18  50F3               	movf	prodl,w,c
  5109                           
  5110                           ;'ADDWF SYSWORDTEMPX_H, F
  5111   001D1A  2601               	addwf	1281,f,c
  5112                           
  5113                           ;'PRODL = HIGHA * HIGHB
  5114                           ;'MOVF SYSWORDTEMPA_H, F
  5115   001D1C  5206               	movf	1286,f,c
  5116                           
  5117                           ;'MULWF SYSWORDTEMPB_H
  5118   001D1E  020A               	mulwf	1290,c
  5119   001D20  0012               	return	
  5120   001D22                     SYSMULTSUBINT:
  5121                           	callstack 0
  5122                           
  5123                           ;'DIM SYSINTEGERTEMPA, SYSINTEGERTEMPB, SYSINTEGERTEMPX AS INTEGER
  5124                           ;'DIM SYSSIGNBYTE AS BYTE
  5125                           ;'MAKE BOTH INPUTS POSITIVE, DECIDE OUTPUT TYPE
  5126                           ;'SYSSIGNBYTE = SYSINTEGERTEMPA_H XOR SYSINTEGERTEMPB_H
  5127   001D22  5006               	movf	1286,w,c
  5128   001D24  180A               	xorwf	1290,w,c
  5129   001D26  6E0D               	movwf	1293,c
  5130                           
  5131                           ;'IF SYSINTEGERTEMPA.15 THEN SYSINTEGERTEMPA = -SYSINTEGERTEMPA
  5132   001D28  AE06               	btfss	1286,7,c
  5133   001D2A  D005               	bra	ENDIF27
  5134                           
  5135                           ;'IF SYSINTEGERTEMPA.15 THEN SYSINTEGERTEMPA = -SYSINTEGERTEMPA
  5136   001D2C  1E05               	comf	1285,f,c
  5137   001D2E  1E06               	comf	1286,f,c
  5138   001D30  2A05               	incf	1285,f,c
  5139   001D32  B4D8               	btfsc	status,2,c
  5140   001D34  2A06               	incf	1286,f,c
  5141   001D36                     ENDIF27:
  5142                           	callstack 0
  5143                           
  5144                           ;'IF SYSINTEGERTEMPB.15 THEN SYSINTEGERTEMPB = -SYSINTEGERTEMPB
  5145   001D36  AE0A               	btfss	1290,7,c
  5146   001D38  D005               	bra	ENDIF28
  5147                           
  5148                           ;'IF SYSINTEGERTEMPB.15 THEN SYSINTEGERTEMPB = -SYSINTEGERTEMPB
  5149   001D3A  1E09               	comf	1289,f,c
  5150   001D3C  1E0A               	comf	1290,f,c
  5151   001D3E  2A09               	incf	1289,f,c
  5152   001D40  B4D8               	btfsc	status,2,c
  5153   001D42  2A0A               	incf	1290,f,c
  5154   001D44                     ENDIF28:
  5155                           	callstack 0
  5156                           
  5157                           ;'CALL WORD MULTIPLY ROUTINE
  5158                           ;'SYSMULTSUB16
  5159   001D44  DFDD               	rcall	SYSMULTSUB16
  5160                           
  5161                           ;'NEGATE RESULT IF NECESSARY
  5162                           ;'IF SYSSIGNBYTE.7 THEN SYSINTEGERTEMPX = -SYSINTEGERTEMPX
  5163   001D46  AE0D               	btfss	1293,7,c
  5164   001D48  D005               	bra	ENDIF29
  5165                           
  5166                           ;'IF SYSSIGNBYTE.7 THEN SYSINTEGERTEMPX = -SYSINTEGERTEMPX
  5167   001D4A  1E00               	comf	1280,f,c
  5168   001D4C  1E01               	comf	1281,f,c
  5169   001D4E  2A00               	incf	1280,f,c
  5170   001D50  B4D8               	btfsc	status,2,c
  5171   001D52  2A01               	incf	1281,f,c
  5172   001D54                     ENDIF29:
  5173                           	callstack 0
  5174   001D54  0012               	return	
  5175   001D56                     SYSREADSTRING:
  5176                           	callstack 0
  5177                           
  5178                           ;'DIM SYSCALCTEMPA AS BYTE
  5179                           ;'DIM SYSSTRINGLENGTH AS BYTE
  5180                           ;'CHIPFAMILY 16 SUPPORT
  5181                           ;'GET LENGTH
  5182                           ;'TBLRD*+
  5183   001D56  0009               	tblrd		*+
  5184                           
  5185                           ;MOVFF TABLAT,SYSCALCTEMPA
  5186   001D58  C4F5 F505          	movff	tablat,1285
  5187                           
  5188                           ;MOVFF TABLAT,INDF1
  5189   001D5C  C4F5 F4E7          	movff	tablat,indf1
  5190                           
  5191                           ;'GOTO SYSSTRINGREADCHECK
  5192   001D60  D004               	bra	SYSSTRINGREADCHECK
  5193   001D62                     SYSREADSTRINGPART:
  5194                           	callstack 0
  5195                           
  5196                           ;'TBLRD*+
  5197   001D62  0009               	tblrd		*+
  5198                           
  5199                           ;MOVF TABLAT,W
  5200   001D64  50F5               	movf	tablat,w,c
  5201                           
  5202                           ;'MOVWF SYSCALCTEMPA
  5203   001D66  6E05               	movwf	1285,c
  5204                           
  5205                           ;'ADDWF SYSSTRINGLENGTH,F
  5206   001D68  2606               	addwf	1286,f,c
  5207   001D6A                     SYSSTRINGREADCHECK:
  5208                           	callstack 0
  5209                           
  5210                           ;'IF LENGTH IS 0, EXIT
  5211                           ;'MOVF SYSCALCTEMPA,F
  5212   001D6A  5205               	movf	1285,f,c
  5213                           
  5214                           ;BTFSC STATUS,2
  5215   001D6C  B4D8               	btfsc	status,2,c
  5216                           
  5217                           ;'RETURN
  5218   001D6E  0012               	return	
  5219   001D70                     SYSSTRINGREAD:
  5220                           	callstack 0
  5221                           
  5222                           ;'COPY CHAR
  5223                           ;'TBLRD*+
  5224   001D70  0009               	tblrd		*+
  5225                           
  5226                           ;MOVFF TABLAT,PREINC1
  5227   001D72  C4F5 F4E4          	movff	tablat,preinc1
  5228                           
  5229                           ;'DECFSZ SYSCALCTEMPA, F
  5230   001D76  2E05               	decfsz	1285,f,c
  5231                           
  5232                           ;'GOTO SYSSTRINGREAD
  5233   001D78  D7FB               	bra	SYSSTRINGREAD
  5234   001D7A  0012               	return	
  5235   001D7C                     SYSSTRINGTABLES:
  5236                           	callstack 0
  5237   001D7C                     STRINGTABLE1:
  5238                           	callstack 0
  5239   001D7C  07 47 43 42 41 53 49 43 	db	7,71,67,66,65,83,73,67
  5240   001D84                     	align	2	;X3
  5241   001D84                     STRINGTABLE2:
  5242                           	callstack 0
  5243   001D84  0C 41 6E 6F 62 69 75 6D 20 32 30 32 34 	db	12,65,110,111,98,105,117,109,32,50,48,50,52
  5244   001D91  00                 	align	2	;X3
  5245   001D92                     STRINGTABLE3:
  5246                           	callstack 0
  5247   001D92  15 47 4C 43 44 20 50 6F 72 74 61 62 69 6C 69 74 79 20 44 65 6D 6F 	db	21,71,76,67,68,32,80,111,114,116,97,98,105,108,105,116,121,32,68,101,109,111
  5248   001DA8                     	align	2	;X3
  5249   001DA8                     STRINGTABLE4:
  5250                           	callstack 0
  5251   001DA8  09 47 4C 43 44 50 72 69 6E 74 	db	9,71,76,67,68,80,114,105,110,116
  5252   001DB2                     	align	2	;X3
  5253   001DB2                     STRINGTABLE5:
  5254                           	callstack 0
  5255   001DB2  01 40              	db	1,64
  5256   001DB4                     	align	2	;X3
  5257   001DB4                     STRINGTABLE6:
  5258                           	callstack 0
  5259   001DB4  03 4D 68 7A        	db	3,77,104,122
  5260   001DB8                     	align	2	;X3
  5261   001DB8                     STRINGTABLE7:
  5262                           	callstack 0
  5263   001DB8  07 44 72 61 77 53 74 72 	db	7,68,114,97,119,83,116,114
  5264   001DC0                     	align	2	;X3
  5265   001DC0                     STRINGTABLE8:
  5266                           	callstack 0
  5267   001DC0  01 68              	db	1,104
  5268   001DC2                     	align	2	;X3
  5269   001DC2                     STRINGTABLE52:
  5270                           	callstack 0
  5271   001DC2  01 20              	db	1,32
  5272   001DC4                     	align	2	;X3
  5273   001DC4                     STRINGTABLE81:
  5274                           	callstack 0
  5275   001DC4  00                 	db	0
  5276   001DC5  00                 	align	2	;X3
  5277   001DC6                     STRINGTABLE134:
  5278                           	callstack 0
  5279   001DC6  08 31 38 46 31 36 51 32 30 	db	8,49,56,70,49,54,81,50,48
  5280   001DCF  00                 	align	2	;X3
  5281   001DD0                     WRITE_COMMAND_SSD1306:
  5282                           	callstack 0
  5283                           
  5284                           ;'HI2CSTART
  5285   001DD0  DD50               	rcall	SI2CSTART
  5286                           
  5287                           ;'HI2CSEND GLCD_I2C_ADDRESS
  5288   001DD2  0E78               	movlw	120
  5289   001DD4  6E45               	movwf	1349,c
  5290   001DD6  DCC1               	rcall	SI2CSEND
  5291                           
  5292                           ;'HI2CSEND 0X00
  5293   001DD8  6A45               	clrf	1349,c
  5294   001DDA  DCBF               	rcall	SI2CSEND
  5295                           
  5296                           ;'HI2CSEND SSD1306SENDBYTE
  5297   001DDC  C576 F545          	movff	1398,1349
  5298   001DE0  DCBC               	rcall	SI2CSEND
  5299                           
  5300                           ;'HI2CSTOP
  5301   001DE2  D54C               	bra	SI2CSTOP
  5302   001DE4                     WRITE_DATA_SSD1306:
  5303                           	callstack 0
  5304                           
  5305                           ;'HI2CSTART
  5306   001DE4  DD46               	rcall	SI2CSTART
  5307                           
  5308                           ;'HI2CSEND GLCD_I2C_ADDRESS
  5309   001DE6  0E78               	movlw	120
  5310   001DE8  6E45               	movwf	1349,c
  5311   001DEA  DCB7               	rcall	SI2CSEND
  5312                           
  5313                           ;'HI2CSEND 0X40
  5314   001DEC  0E40               	movlw	64
  5315   001DEE  6E45               	movwf	1349,c
  5316   001DF0  DCB4               	rcall	SI2CSEND
  5317                           
  5318                           ;'HI2CSEND SSD1306SENDBYTE
  5319   001DF2  C576 F545          	movff	1398,1349
  5320   001DF6  DCB1               	rcall	SI2CSEND
  5321                           
  5322                           ;'HI2CSTOP
  5323   001DF8  D541               	bra	SI2CSTOP
  5324   001DFA                     FN__HEXPICAS:
  5325                           	callstack 0
  5326                           
  5327                           ;'_HEXPICAS(0) = 2
  5328   001DFA  0E02               	movlw	2
  5329   001DFC  0110               	banksel	4226
  5330   001DFE  6F82               	movwf	4226,b
  5331                           
  5332                           ;'DIM SYSSTRINGTEMP AS BYTE
  5333                           ;'LOW NIBBLE
  5334                           ;'SYSSTRINGTEMP = SYSVALTEMP AND 0X0F
  5335   001E00  0E0F               	movlw	15
  5336   001E02  0105               	banksel	1445
  5337   001E04  15A5               	andwf	1445,w,b
  5338   001E06  6F98               	movwf	1432,b
  5339                           
  5340                           ;'IF SYSSTRINGTEMP > 9 THEN SYSSTRINGTEMP = SYSSTRINGTEMP + 7
  5341   001E08  0809               	sublw	9
  5342   001E0A  B0D8               	btfsc	status,0,c
  5343   001E0C  D002               	bra	ENDIF14
  5344                           
  5345                           ;'IF SYSSTRINGTEMP > 9 THEN SYSSTRINGTEMP = SYSSTRINGTEMP + 7
  5346   001E0E  0E07               	movlw	7
  5347   001E10  2798               	addwf	1432,f,b
  5348   001E12                     ENDIF14:
  5349                           	callstack 0
  5350                           
  5351                           ;'_HEXPICAS(2) = SYSSTRINGTEMP + 48
  5352   001E12  0E30               	movlw	48
  5353   001E14  2598               	addwf	1432,w,b
  5354   001E16  0110               	banksel	4228
  5355   001E18  6F84               	movwf	4228,b
  5356                           
  5357                           ;'GET HIGH NIBBLE
  5358                           ;'FOR SYSSTRINGTEMP = 1 TO 4
  5359                           ;'LEGACY METHOD
  5360   001E1A  0105               	banksel	1432
  5361   001E1C  6B98               	clrf	1432,b
  5362   001E1E                     SYSFORLOOP7:
  5363                           	callstack 0
  5364   001E1E  2B98               	incf	1432,f,b
  5365                           
  5366                           ;'ROTATE SYSVALTEMP RIGHT
  5367   001E20  33A5               	rrcf	1445,f,b
  5368                           
  5369                           ;'NEXT
  5370   001E22  0E04               	movlw	4
  5371   001E24  5D98               	subwf	1432,w,b
  5372   001E26  A0D8               	btfss	status,0,c
  5373   001E28  D7FA               	bra	SYSFORLOOP7
  5374   001E2A                     SYSFORLOOPEND7:
  5375                           	callstack 0
  5376                           
  5377                           ;'SYSSTRINGTEMP = SYSVALTEMP AND 0X0F
  5378   001E2A  0E0F               	movlw	15
  5379   001E2C  15A5               	andwf	1445,w,b
  5380   001E2E  6F98               	movwf	1432,b
  5381                           
  5382                           ;'IF SYSSTRINGTEMP > 9 THEN SYSSTRINGTEMP = SYSSTRINGTEMP + 7
  5383   001E30  0809               	sublw	9
  5384   001E32  B0D8               	btfsc	status,0,c
  5385   001E34  D002               	bra	ENDIF16
  5386                           
  5387                           ;'IF SYSSTRINGTEMP > 9 THEN SYSSTRINGTEMP = SYSSTRINGTEMP + 7
  5388   001E36  0E07               	movlw	7
  5389   001E38  2798               	addwf	1432,f,b
  5390   001E3A                     ENDIF16:
  5391                           	callstack 0
  5392                           
  5393                           ;'_HEXPICAS(1) = SYSSTRINGTEMP + 48
  5394   001E3A  0E30               	movlw	48
  5395   001E3C  2598               	addwf	1432,w,b
  5396   001E3E  0110               	banksel	4227
  5397   001E40  6F83               	movwf	4227,b
  5398   001E42  0100               	banksel	0
  5399   001E44  0012               	return	
  5400   001E46                     _LINE69:
  5401                           	callstack 0
  5402                           
  5403                           ;'DIM LINESTEPX AS INTEGER
  5404                           ;'DIM LINESTEPY AS INTEGER
  5405                           ;'DIM LINEDIFFX, LINEDIFFY AS INTEGER
  5406                           ;'DIM LINEDIFFX_X2, LINEDIFFY_X2 AS INTEGER
  5407                           ;'DIM LINEERR AS INTEGER
  5408                           ;'LINEDIFFX = 0
  5409   001E46  6A50               	clrf	1360,c
  5410   001E48  6A51               	clrf	1361,c
  5411                           
  5412                           ;'LINEDIFFY = 0
  5413   001E4A  6A54               	clrf	1364,c
  5414   001E4C  6A55               	clrf	1365,c
  5415                           
  5416                           ;'LINESTEPX = 0
  5417   001E4E  6A5A               	clrf	1370,c
  5418   001E50  6A5B               	clrf	1371,c
  5419                           
  5420                           ;'LINESTEPY = 0
  5421   001E52  6A5C               	clrf	1372,c
  5422   001E54  6A5D               	clrf	1373,c
  5423                           
  5424                           ;'LINEDIFFX_X2 = 0
  5425   001E56  6A52               	clrf	1362,c
  5426   001E58  6A53               	clrf	1363,c
  5427                           
  5428                           ;'LINEDIFFY_X2 = 0
  5429   001E5A  6A56               	clrf	1366,c
  5430   001E5C  6A57               	clrf	1367,c
  5431                           
  5432                           ;'LINEERR = 0
  5433   001E5E  6A58               	clrf	1368,c
  5434   001E60  6A59               	clrf	1369,c
  5435                           
  5436                           ;'LINEDIFFX =  LINEX2 -   LINEX1
  5437   001E62  505E               	movf	1374,w,c
  5438   001E64  0105               	banksel	1376
  5439   001E66  5D60               	subwf	1376,w,b
  5440   001E68  6E50               	movwf	1360,c
  5441   001E6A  505F               	movf	1375,w,c
  5442   001E6C  5961               	subwfb	1377,w,b
  5443   001E6E  6E51               	movwf	1361,c
  5444                           
  5445                           ;'LINEDIFFY =  LINEY2 -   LINEY1
  5446   001E70  5162               	movf	1378,w,b
  5447   001E72  5D64               	subwf	1380,w,b
  5448   001E74  6E54               	movwf	1364,c
  5449   001E76  5163               	movf	1379,w,b
  5450   001E78  5965               	subwfb	1381,w,b
  5451   001E7A  6E55               	movwf	1365,c
  5452                           
  5453                           ;'IF (LINEDIFFX > 0) THEN
  5454   001E7C  C550 F509          	movff	1360,1289
  5455   001E80  C551 F50A          	movff	1361,1290
  5456   001E84  6A05               	clrf	1285,c
  5457   001E86  6A06               	clrf	1286,c
  5458   001E88  0100               	banksel	0
  5459   001E8A  DE50               	rcall	SYSCOMPLESSTHANINT
  5460   001E8C  A000               	btfss	1280,0,c
  5461   001E8E  D004               	bra	ELSE17_1
  5462                           
  5463                           ;'LINESTEPX = 1
  5464   001E90  0E01               	movlw	1
  5465   001E92  6E5A               	movwf	1370,c
  5466   001E94  6A5B               	clrf	1371,c
  5467                           
  5468                           ;'ELSE
  5469   001E96  D002               	bra	ENDIF17
  5470   001E98                     ELSE17_1:
  5471                           	callstack 0
  5472                           
  5473                           ;'LINESTEPX = -1
  5474   001E98  685A               	setf	1370,c
  5475   001E9A  685B               	setf	1371,c
  5476   001E9C                     ENDIF17:
  5477                           	callstack 0
  5478                           
  5479                           ;'IF (LINEDIFFY > 0) THEN
  5480   001E9C  C554 F509          	movff	1364,1289
  5481   001EA0  C555 F50A          	movff	1365,1290
  5482   001EA4  6A05               	clrf	1285,c
  5483   001EA6  6A06               	clrf	1286,c
  5484   001EA8  DE41               	rcall	SYSCOMPLESSTHANINT
  5485   001EAA  A000               	btfss	1280,0,c
  5486   001EAC  D004               	bra	ELSE18_1
  5487                           
  5488                           ;'LINESTEPY = 1
  5489   001EAE  0E01               	movlw	1
  5490   001EB0  6E5C               	movwf	1372,c
  5491   001EB2  6A5D               	clrf	1373,c
  5492                           
  5493                           ;'ELSE
  5494   001EB4  D002               	bra	ENDIF18
  5495   001EB6                     ELSE18_1:
  5496                           	callstack 0
  5497                           
  5498                           ;'LINESTEPY = -1
  5499   001EB6  685C               	setf	1372,c
  5500   001EB8  685D               	setf	1373,c
  5501   001EBA                     ENDIF18:
  5502                           	callstack 0
  5503                           
  5504                           ;'LINEDIFFX = LINESTEPX * LINEDIFFX
  5505   001EBA  C55A F505          	movff	1370,1285
  5506   001EBE  C55B F506          	movff	1371,1286
  5507   001EC2  C550 F509          	movff	1360,1289
  5508   001EC6  C551 F50A          	movff	1361,1290
  5509   001ECA  DF2B               	rcall	SYSMULTSUBINT
  5510   001ECC  C500 F550          	movff	1280,1360
  5511   001ED0  C501 F551          	movff	1281,1361
  5512                           
  5513                           ;'LINEDIFFY = LINESTEPY * LINEDIFFY
  5514   001ED4  C55C F505          	movff	1372,1285
  5515   001ED8  C55D F506          	movff	1373,1286
  5516   001EDC  C554 F509          	movff	1364,1289
  5517   001EE0  C555 F50A          	movff	1365,1290
  5518   001EE4  DF1E               	rcall	SYSMULTSUBINT
  5519   001EE6  C500 F554          	movff	1280,1364
  5520   001EEA  C501 F555          	movff	1281,1365
  5521                           
  5522                           ;'LINEDIFFX_X2 = LINEDIFFX*2
  5523   001EEE  C550 F505          	movff	1360,1285
  5524   001EF2  C551 F506          	movff	1361,1286
  5525   001EF6  0E02               	movlw	2
  5526   001EF8  6E09               	movwf	1289,c
  5527   001EFA  6A0A               	clrf	1290,c
  5528   001EFC  DF12               	rcall	SYSMULTSUBINT
  5529   001EFE  C500 F552          	movff	1280,1362
  5530   001F02  C501 F553          	movff	1281,1363
  5531                           
  5532                           ;'LINEDIFFY_X2 = LINEDIFFY*2
  5533   001F06  C554 F505          	movff	1364,1285
  5534   001F0A  C555 F506          	movff	1365,1286
  5535   001F0E  0E02               	movlw	2
  5536   001F10  6E09               	movwf	1289,c
  5537   001F12  6A0A               	clrf	1290,c
  5538   001F14  DF06               	rcall	SYSMULTSUBINT
  5539   001F16  C500 F556          	movff	1280,1366
  5540   001F1A  C501 F557          	movff	1281,1367
  5541                           
  5542                           ;'IF ( LINEDIFFX >= LINEDIFFY) THEN
  5543   001F1E  C550 F505          	movff	1360,1285
  5544   001F22  C551 F506          	movff	1361,1286
  5545   001F26  C554 F509          	movff	1364,1289
  5546   001F2A  C555 F50A          	movff	1365,1290
  5547   001F2E  DDFE               	rcall	SYSCOMPLESSTHANINT
  5548   001F30  1E00               	comf	1280,f,c
  5549   001F32  A000               	btfss	1280,0,c
  5550   001F34  D04A               	bra	ELSE19_1
  5551                           
  5552                           ;'LINEERR = LINEDIFFY_X2 - LINEDIFFX
  5553   001F36  5050               	movf	1360,w,c
  5554   001F38  5C56               	subwf	1366,w,c
  5555   001F3A  6E58               	movwf	1368,c
  5556   001F3C  5051               	movf	1361,w,c
  5557   001F3E  5857               	subwfb	1367,w,c
  5558   001F40  6E59               	movwf	1369,c
  5559   001F42                     SYSDOLOOP_S5:
  5560                           	callstack 0
  5561   001F42  C55E F505          	movff	1374,1285
  5562   001F46  C55F F506          	movff	1375,1286
  5563   001F4A  C560 F509          	movff	1376,1289
  5564   001F4E  C561 F50A          	movff	1377,1290
  5565   001F52  0100               	banksel	0
  5566   001F54  DDC0               	rcall	SYSCOMPEQUAL16
  5567   001F56  1E00               	comf	1280,f,c
  5568   001F58  A000               	btfss	1280,0,c
  5569   001F5A  D02C               	bra	SYSDOLOOP_E5
  5570                           
  5571                           ;'PSET (   LINEX1,   LINEY1, LINECOLOUR )
  5572   001F5C  C55E F53C          	movff	1374,1340
  5573   001F60  C562 F53D          	movff	1378,1341
  5574   001F64  C54C F52D          	movff	1356,1325
  5575   001F68  C54D F52E          	movff	1357,1326
  5576   001F6C  EC12  F00B         	call	PSET_SSD1306
  5577                           
  5578                           ;'LINEX1 += LINESTEPX
  5579   001F70  505A               	movf	1370,w,c
  5580   001F72  265E               	addwf	1374,f,c
  5581   001F74  505B               	movf	1371,w,c
  5582   001F76  225F               	addwfc	1375,f,c
  5583                           
  5584                           ;'IF ( LINEERR < 0) THEN
  5585   001F78  C558 F505          	movff	1368,1285
  5586   001F7C  C559 F506          	movff	1369,1286
  5587   001F80  6A09               	clrf	1289,c
  5588   001F82  6A0A               	clrf	1290,c
  5589   001F84  DDD3               	rcall	SYSCOMPLESSTHANINT
  5590   001F86  A000               	btfss	1280,0,c
  5591   001F88  D005               	bra	ELSE20_1
  5592                           
  5593                           ;'LINEERR += LINEDIFFY_X2
  5594   001F8A  5056               	movf	1366,w,c
  5595   001F8C  2658               	addwf	1368,f,c
  5596   001F8E  5057               	movf	1367,w,c
  5597   001F90  2259               	addwfc	1369,f,c
  5598                           
  5599                           ;'ELSE
  5600   001F92  D00F               	bra	ENDIF20
  5601   001F94                     ELSE20_1:
  5602                           	callstack 0
  5603                           
  5604                           ;'LINEERR += ( LINEDIFFY_X2 - LINEDIFFX_X2 )
  5605   001F94  5052               	movf	1362,w,c
  5606   001F96  5C56               	subwf	1366,w,c
  5607   001F98  0105               	banksel	1442
  5608   001F9A  6FA2               	movwf	1442,b
  5609   001F9C  5053               	movf	1363,w,c
  5610   001F9E  5857               	subwfb	1367,w,c
  5611   001FA0  6FA3               	movwf	1443,b
  5612   001FA2  51A2               	movf	1442,w,b
  5613   001FA4  2658               	addwf	1368,f,c
  5614   001FA6  51A3               	movf	1443,w,b
  5615   001FA8  2259               	addwfc	1369,f,c
  5616                           
  5617                           ;'LINEY1 += LINESTEPY
  5618   001FAA  505C               	movf	1372,w,c
  5619   001FAC  2762               	addwf	1378,f,b
  5620   001FAE  505D               	movf	1373,w,c
  5621   001FB0  2363               	addwfc	1379,f,b
  5622   001FB2                     ENDIF20:
  5623                           	callstack 0
  5624                           
  5625                           ;'LOOP
  5626   001FB2  D7C7               	bra	SYSDOLOOP_S5
  5627   001FB4                     SYSDOLOOP_E5:
  5628                           	callstack 0
  5629                           
  5630                           ;'PSET (   LINEX1,   LINEY1, LINECOLOUR )
  5631   001FB4  C55E F53C          	movff	1374,1340
  5632   001FB8  C562 F53D          	movff	1378,1341
  5633   001FBC  C54C F52D          	movff	1356,1325
  5634   001FC0  C54D F52E          	movff	1357,1326
  5635   001FC4  EC12  F00B         	call	PSET_SSD1306
  5636                           
  5637                           ;'ELSE
  5638   001FC8  D04B               	bra	ENDIF19
  5639   001FCA                     ELSE19_1:
  5640                           	callstack 0
  5641                           
  5642                           ;'LINEERR = LINEDIFFX_X2 - LINEDIFFY
  5643   001FCA  5054               	movf	1364,w,c
  5644   001FCC  5C52               	subwf	1362,w,c
  5645   001FCE  6E58               	movwf	1368,c
  5646   001FD0  5055               	movf	1365,w,c
  5647   001FD2  5853               	subwfb	1363,w,c
  5648   001FD4  6E59               	movwf	1369,c
  5649   001FD6                     SYSDOLOOP_S6:
  5650                           	callstack 0
  5651   001FD6  C562 F505          	movff	1378,1285
  5652   001FDA  C563 F506          	movff	1379,1286
  5653   001FDE  C564 F509          	movff	1380,1289
  5654   001FE2  C565 F50A          	movff	1381,1290
  5655   001FE6  0100               	banksel	0
  5656   001FE8  DD76               	rcall	SYSCOMPEQUAL16
  5657   001FEA  1E00               	comf	1280,f,c
  5658   001FEC  A000               	btfss	1280,0,c
  5659   001FEE  D02E               	bra	SYSDOLOOP_E6
  5660                           
  5661                           ;'PSET (   LINEX1,   LINEY1, LINECOLOUR )
  5662   001FF0  C55E F53C          	movff	1374,1340
  5663   001FF4  C562 F53D          	movff	1378,1341
  5664   001FF8  C54C F52D          	movff	1356,1325
  5665   001FFC  C54D F52E          	movff	1357,1326
  5666   002000  EC12  F00B         	call	PSET_SSD1306
  5667                           
  5668                           ;'LINEY1 += LINESTEPY
  5669   002004  505C               	movf	1372,w,c
  5670   002006  0105               	banksel	1378
  5671   002008  2762               	addwf	1378,f,b
  5672   00200A  505D               	movf	1373,w,c
  5673   00200C  2363               	addwfc	1379,f,b
  5674                           
  5675                           ;'IF ( LINEERR < 0) THEN
  5676   00200E  C558 F505          	movff	1368,1285
  5677   002012  C559 F506          	movff	1369,1286
  5678   002016  6A09               	clrf	1289,c
  5679   002018  6A0A               	clrf	1290,c
  5680   00201A  0100               	banksel	0
  5681   00201C  DD87               	rcall	SYSCOMPLESSTHANINT
  5682   00201E  A000               	btfss	1280,0,c
  5683   002020  D005               	bra	ELSE21_1
  5684                           
  5685                           ;'LINEERR += LINEDIFFX_X2
  5686   002022  5052               	movf	1362,w,c
  5687   002024  2658               	addwf	1368,f,c
  5688   002026  5053               	movf	1363,w,c
  5689   002028  2259               	addwfc	1369,f,c
  5690                           
  5691                           ;'ELSE
  5692   00202A  D00F               	bra	ENDIF21
  5693   00202C                     ELSE21_1:
  5694                           	callstack 0
  5695                           
  5696                           ;'LINEERR += ( LINEDIFFX_X2 - LINEDIFFY_X2 )
  5697   00202C  5056               	movf	1366,w,c
  5698   00202E  5C52               	subwf	1362,w,c
  5699   002030  0105               	banksel	1442
  5700   002032  6FA2               	movwf	1442,b
  5701   002034  5057               	movf	1367,w,c
  5702   002036  5853               	subwfb	1363,w,c
  5703   002038  6FA3               	movwf	1443,b
  5704   00203A  51A2               	movf	1442,w,b
  5705   00203C  2658               	addwf	1368,f,c
  5706   00203E  51A3               	movf	1443,w,b
  5707   002040  2259               	addwfc	1369,f,c
  5708                           
  5709                           ;'LINEX1 += LINESTEPX
  5710   002042  505A               	movf	1370,w,c
  5711   002044  265E               	addwf	1374,f,c
  5712   002046  505B               	movf	1371,w,c
  5713   002048  225F               	addwfc	1375,f,c
  5714   00204A                     ENDIF21:
  5715                           	callstack 0
  5716                           
  5717                           ;'LOOP
  5718   00204A  D7C5               	bra	SYSDOLOOP_S6
  5719   00204C                     SYSDOLOOP_E6:
  5720                           	callstack 0
  5721                           
  5722                           ;'PSET (   LINEX1,   LINEY1, LINECOLOUR )
  5723   00204C  C55E F53C          	movff	1374,1340
  5724   002050  C562 F53D          	movff	1378,1341
  5725   002054  C54C F52D          	movff	1356,1325
  5726   002058  C54D F52E          	movff	1357,1326
  5727   00205C  EC12  F00B         	call	PSET_SSD1306
  5728   002060                     ENDIF19:
  5729                           	callstack 0
  5730   002060  0012               	return	
  5731   002062                     _LINE70:
  5732                           	callstack 0
  5733                           
  5734                           ;'DIM LINESTEPX AS INTEGER
  5735                           ;'DIM LINESTEPY AS INTEGER
  5736                           ;'DIM LINEDIFFX, LINEDIFFY AS INTEGER
  5737                           ;'DIM LINEDIFFX_X2, LINEDIFFY_X2 AS INTEGER
  5738                           ;'DIM LINEERR AS INTEGER
  5739                           ;'LINEDIFFX = 0
  5740   002062  6A50               	clrf	1360,c
  5741   002064  6A51               	clrf	1361,c
  5742                           
  5743                           ;'LINEDIFFY = 0
  5744   002066  6A54               	clrf	1364,c
  5745   002068  6A55               	clrf	1365,c
  5746                           
  5747                           ;'LINESTEPX = 0
  5748   00206A  6A5A               	clrf	1370,c
  5749   00206C  6A5B               	clrf	1371,c
  5750                           
  5751                           ;'LINESTEPY = 0
  5752   00206E  6A5C               	clrf	1372,c
  5753   002070  6A5D               	clrf	1373,c
  5754                           
  5755                           ;'LINEDIFFX_X2 = 0
  5756   002072  6A52               	clrf	1362,c
  5757   002074  6A53               	clrf	1363,c
  5758                           
  5759                           ;'LINEDIFFY_X2 = 0
  5760   002076  6A56               	clrf	1366,c
  5761   002078  6A57               	clrf	1367,c
  5762                           
  5763                           ;'LINEERR = 0
  5764   00207A  6A58               	clrf	1368,c
  5765   00207C  6A59               	clrf	1369,c
  5766                           
  5767                           ;'LINEDIFFX =  LINEX2 -   LINEX1
  5768   00207E  505E               	movf	1374,w,c
  5769   002080  0105               	banksel	1376
  5770   002082  5D60               	subwf	1376,w,b
  5771   002084  6E50               	movwf	1360,c
  5772   002086  505F               	movf	1375,w,c
  5773   002088  5961               	subwfb	1377,w,b
  5774   00208A  6E51               	movwf	1361,c
  5775                           
  5776                           ;'LINEDIFFY =  LINEY2 -   LINEY1
  5777   00208C  5162               	movf	1378,w,b
  5778   00208E  5D64               	subwf	1380,w,b
  5779   002090  6E54               	movwf	1364,c
  5780   002092  5163               	movf	1379,w,b
  5781   002094  5965               	subwfb	1381,w,b
  5782   002096  6E55               	movwf	1365,c
  5783                           
  5784                           ;'IF (LINEDIFFX > 0) THEN
  5785   002098  C550 F509          	movff	1360,1289
  5786   00209C  C551 F50A          	movff	1361,1290
  5787   0020A0  6A05               	clrf	1285,c
  5788   0020A2  6A06               	clrf	1286,c
  5789   0020A4  0100               	banksel	0
  5790   0020A6  DD42               	rcall	SYSCOMPLESSTHANINT
  5791   0020A8  A000               	btfss	1280,0,c
  5792   0020AA  D004               	bra	ELSE22_1
  5793                           
  5794                           ;'LINESTEPX = 1
  5795   0020AC  0E01               	movlw	1
  5796   0020AE  6E5A               	movwf	1370,c
  5797   0020B0  6A5B               	clrf	1371,c
  5798                           
  5799                           ;'ELSE
  5800   0020B2  D002               	bra	ENDIF22
  5801   0020B4                     ELSE22_1:
  5802                           	callstack 0
  5803                           
  5804                           ;'LINESTEPX = -1
  5805   0020B4  685A               	setf	1370,c
  5806   0020B6  685B               	setf	1371,c
  5807   0020B8                     ENDIF22:
  5808                           	callstack 0
  5809                           
  5810                           ;'IF (LINEDIFFY > 0) THEN
  5811   0020B8  C554 F509          	movff	1364,1289
  5812   0020BC  C555 F50A          	movff	1365,1290
  5813   0020C0  6A05               	clrf	1285,c
  5814   0020C2  6A06               	clrf	1286,c
  5815   0020C4  DD33               	rcall	SYSCOMPLESSTHANINT
  5816   0020C6  A000               	btfss	1280,0,c
  5817   0020C8  D004               	bra	ELSE23_1
  5818                           
  5819                           ;'LINESTEPY = 1
  5820   0020CA  0E01               	movlw	1
  5821   0020CC  6E5C               	movwf	1372,c
  5822   0020CE  6A5D               	clrf	1373,c
  5823                           
  5824                           ;'ELSE
  5825   0020D0  D002               	bra	ENDIF23
  5826   0020D2                     ELSE23_1:
  5827                           	callstack 0
  5828                           
  5829                           ;'LINESTEPY = -1
  5830   0020D2  685C               	setf	1372,c
  5831   0020D4  685D               	setf	1373,c
  5832   0020D6                     ENDIF23:
  5833                           	callstack 0
  5834                           
  5835                           ;'LINEDIFFX = LINESTEPX * LINEDIFFX
  5836   0020D6  C55A F505          	movff	1370,1285
  5837   0020DA  C55B F506          	movff	1371,1286
  5838   0020DE  C550 F509          	movff	1360,1289
  5839   0020E2  C551 F50A          	movff	1361,1290
  5840   0020E6  DE1D               	rcall	SYSMULTSUBINT
  5841   0020E8  C500 F550          	movff	1280,1360
  5842   0020EC  C501 F551          	movff	1281,1361
  5843                           
  5844                           ;'LINEDIFFY = LINESTEPY * LINEDIFFY
  5845   0020F0  C55C F505          	movff	1372,1285
  5846   0020F4  C55D F506          	movff	1373,1286
  5847   0020F8  C554 F509          	movff	1364,1289
  5848   0020FC  C555 F50A          	movff	1365,1290
  5849   002100  DE10               	rcall	SYSMULTSUBINT
  5850   002102  C500 F554          	movff	1280,1364
  5851   002106  C501 F555          	movff	1281,1365
  5852                           
  5853                           ;'LINEDIFFX_X2 = LINEDIFFX*2
  5854   00210A  C550 F505          	movff	1360,1285
  5855   00210E  C551 F506          	movff	1361,1286
  5856   002112  0E02               	movlw	2
  5857   002114  6E09               	movwf	1289,c
  5858   002116  6A0A               	clrf	1290,c
  5859   002118  DE04               	rcall	SYSMULTSUBINT
  5860   00211A  C500 F552          	movff	1280,1362
  5861   00211E  C501 F553          	movff	1281,1363
  5862                           
  5863                           ;'LINEDIFFY_X2 = LINEDIFFY*2
  5864   002122  C554 F505          	movff	1364,1285
  5865   002126  C555 F506          	movff	1365,1286
  5866   00212A  0E02               	movlw	2
  5867   00212C  6E09               	movwf	1289,c
  5868   00212E  6A0A               	clrf	1290,c
  5869   002130  DDF8               	rcall	SYSMULTSUBINT
  5870   002132  C500 F556          	movff	1280,1366
  5871   002136  C501 F557          	movff	1281,1367
  5872                           
  5873                           ;'IF ( LINEDIFFX >= LINEDIFFY) THEN
  5874   00213A  C550 F505          	movff	1360,1285
  5875   00213E  C551 F506          	movff	1361,1286
  5876   002142  C554 F509          	movff	1364,1289
  5877   002146  C555 F50A          	movff	1365,1290
  5878   00214A  DCF0               	rcall	SYSCOMPLESSTHANINT
  5879   00214C  1E00               	comf	1280,f,c
  5880   00214E  A000               	btfss	1280,0,c
  5881   002150  D04A               	bra	ELSE24_1
  5882                           
  5883                           ;'LINEERR = LINEDIFFY_X2 - LINEDIFFX
  5884   002152  5050               	movf	1360,w,c
  5885   002154  5C56               	subwf	1366,w,c
  5886   002156  6E58               	movwf	1368,c
  5887   002158  5051               	movf	1361,w,c
  5888   00215A  5857               	subwfb	1367,w,c
  5889   00215C  6E59               	movwf	1369,c
  5890   00215E                     SYSDOLOOP_S7:
  5891                           	callstack 0
  5892   00215E  C55E F505          	movff	1374,1285
  5893   002162  C55F F506          	movff	1375,1286
  5894   002166  C560 F509          	movff	1376,1289
  5895   00216A  C561 F50A          	movff	1377,1290
  5896   00216E  0100               	banksel	0
  5897   002170  DCB2               	rcall	SYSCOMPEQUAL16
  5898   002172  1E00               	comf	1280,f,c
  5899   002174  A000               	btfss	1280,0,c
  5900   002176  D02C               	bra	SYSDOLOOP_E7
  5901                           
  5902                           ;'PSET (   LINEX1,   LINEY1, LINECOLOUR )
  5903   002178  C55E F53C          	movff	1374,1340
  5904   00217C  C562 F53D          	movff	1378,1341
  5905   002180  C54C F52D          	movff	1356,1325
  5906   002184  C54D F52E          	movff	1357,1326
  5907   002188  EC12  F00B         	call	PSET_SSD1306
  5908                           
  5909                           ;'LINEX1 += LINESTEPX
  5910   00218C  505A               	movf	1370,w,c
  5911   00218E  265E               	addwf	1374,f,c
  5912   002190  505B               	movf	1371,w,c
  5913   002192  225F               	addwfc	1375,f,c
  5914                           
  5915                           ;'IF ( LINEERR < 0) THEN
  5916   002194  C558 F505          	movff	1368,1285
  5917   002198  C559 F506          	movff	1369,1286
  5918   00219C  6A09               	clrf	1289,c
  5919   00219E  6A0A               	clrf	1290,c
  5920   0021A0  DCC5               	rcall	SYSCOMPLESSTHANINT
  5921   0021A2  A000               	btfss	1280,0,c
  5922   0021A4  D005               	bra	ELSE25_1
  5923                           
  5924                           ;'LINEERR += LINEDIFFY_X2
  5925   0021A6  5056               	movf	1366,w,c
  5926   0021A8  2658               	addwf	1368,f,c
  5927   0021AA  5057               	movf	1367,w,c
  5928   0021AC  2259               	addwfc	1369,f,c
  5929                           
  5930                           ;'ELSE
  5931   0021AE  D00F               	bra	ENDIF25
  5932   0021B0                     ELSE25_1:
  5933                           	callstack 0
  5934                           
  5935                           ;'LINEERR += ( LINEDIFFY_X2 - LINEDIFFX_X2 )
  5936   0021B0  5052               	movf	1362,w,c
  5937   0021B2  5C56               	subwf	1366,w,c
  5938   0021B4  0105               	banksel	1442
  5939   0021B6  6FA2               	movwf	1442,b
  5940   0021B8  5053               	movf	1363,w,c
  5941   0021BA  5857               	subwfb	1367,w,c
  5942   0021BC  6FA3               	movwf	1443,b
  5943   0021BE  51A2               	movf	1442,w,b
  5944   0021C0  2658               	addwf	1368,f,c
  5945   0021C2  51A3               	movf	1443,w,b
  5946   0021C4  2259               	addwfc	1369,f,c
  5947                           
  5948                           ;'LINEY1 += LINESTEPY
  5949   0021C6  505C               	movf	1372,w,c
  5950   0021C8  2762               	addwf	1378,f,b
  5951   0021CA  505D               	movf	1373,w,c
  5952   0021CC  2363               	addwfc	1379,f,b
  5953   0021CE                     ENDIF25:
  5954                           	callstack 0
  5955                           
  5956                           ;'LOOP
  5957   0021CE  D7C7               	bra	SYSDOLOOP_S7
  5958   0021D0                     SYSDOLOOP_E7:
  5959                           	callstack 0
  5960                           
  5961                           ;'PSET (   LINEX1,   LINEY1, LINECOLOUR )
  5962   0021D0  C55E F53C          	movff	1374,1340
  5963   0021D4  C562 F53D          	movff	1378,1341
  5964   0021D8  C54C F52D          	movff	1356,1325
  5965   0021DC  C54D F52E          	movff	1357,1326
  5966   0021E0  EC12  F00B         	call	PSET_SSD1306
  5967                           
  5968                           ;'ELSE
  5969   0021E4  D04B               	bra	ENDIF24
  5970   0021E6                     ELSE24_1:
  5971                           	callstack 0
  5972                           
  5973                           ;'LINEERR = LINEDIFFX_X2 - LINEDIFFY
  5974   0021E6  5054               	movf	1364,w,c
  5975   0021E8  5C52               	subwf	1362,w,c
  5976   0021EA  6E58               	movwf	1368,c
  5977   0021EC  5055               	movf	1365,w,c
  5978   0021EE  5853               	subwfb	1363,w,c
  5979   0021F0  6E59               	movwf	1369,c
  5980   0021F2                     SYSDOLOOP_S8:
  5981                           	callstack 0
  5982   0021F2  C562 F505          	movff	1378,1285
  5983   0021F6  C563 F506          	movff	1379,1286
  5984   0021FA  C564 F509          	movff	1380,1289
  5985   0021FE  C565 F50A          	movff	1381,1290
  5986   002202  0100               	banksel	0
  5987   002204  DC68               	rcall	SYSCOMPEQUAL16
  5988   002206  1E00               	comf	1280,f,c
  5989   002208  A000               	btfss	1280,0,c
  5990   00220A  D02E               	bra	SYSDOLOOP_E8
  5991                           
  5992                           ;'PSET (   LINEX1,   LINEY1, LINECOLOUR )
  5993   00220C  C55E F53C          	movff	1374,1340
  5994   002210  C562 F53D          	movff	1378,1341
  5995   002214  C54C F52D          	movff	1356,1325
  5996   002218  C54D F52E          	movff	1357,1326
  5997   00221C  EC12  F00B         	call	PSET_SSD1306
  5998                           
  5999                           ;'LINEY1 += LINESTEPY
  6000   002220  505C               	movf	1372,w,c
  6001   002222  0105               	banksel	1378
  6002   002224  2762               	addwf	1378,f,b
  6003   002226  505D               	movf	1373,w,c
  6004   002228  2363               	addwfc	1379,f,b
  6005                           
  6006                           ;'IF ( LINEERR < 0) THEN
  6007   00222A  C558 F505          	movff	1368,1285
  6008   00222E  C559 F506          	movff	1369,1286
  6009   002232  6A09               	clrf	1289,c
  6010   002234  6A0A               	clrf	1290,c
  6011   002236  0100               	banksel	0
  6012   002238  DC79               	rcall	SYSCOMPLESSTHANINT
  6013   00223A  A000               	btfss	1280,0,c
  6014   00223C  D005               	bra	ELSE26_1
  6015                           
  6016                           ;'LINEERR += LINEDIFFX_X2
  6017   00223E  5052               	movf	1362,w,c
  6018   002240  2658               	addwf	1368,f,c
  6019   002242  5053               	movf	1363,w,c
  6020   002244  2259               	addwfc	1369,f,c
  6021                           
  6022                           ;'ELSE
  6023   002246  D00F               	bra	ENDIF26
  6024   002248                     ELSE26_1:
  6025                           	callstack 0
  6026                           
  6027                           ;'LINEERR += ( LINEDIFFX_X2 - LINEDIFFY_X2 )
  6028   002248  5056               	movf	1366,w,c
  6029   00224A  5C52               	subwf	1362,w,c
  6030   00224C  0105               	banksel	1442
  6031   00224E  6FA2               	movwf	1442,b
  6032   002250  5057               	movf	1367,w,c
  6033   002252  5853               	subwfb	1363,w,c
  6034   002254  6FA3               	movwf	1443,b
  6035   002256  51A2               	movf	1442,w,b
  6036   002258  2658               	addwf	1368,f,c
  6037   00225A  51A3               	movf	1443,w,b
  6038   00225C  2259               	addwfc	1369,f,c
  6039                           
  6040                           ;'LINEX1 += LINESTEPX
  6041   00225E  505A               	movf	1370,w,c
  6042   002260  265E               	addwf	1374,f,c
  6043   002262  505B               	movf	1371,w,c
  6044   002264  225F               	addwfc	1375,f,c
  6045   002266                     ENDIF26:
  6046                           	callstack 0
  6047                           
  6048                           ;'LOOP
  6049   002266  D7C5               	bra	SYSDOLOOP_S8
  6050   002268                     SYSDOLOOP_E8:
  6051                           	callstack 0
  6052                           
  6053                           ;'PSET (   LINEX1,   LINEY1, LINECOLOUR )
  6054   002268  C55E F53C          	movff	1374,1340
  6055   00226C  C562 F53D          	movff	1378,1341
  6056   002270  C54C F52D          	movff	1356,1325
  6057   002274  C54D F52E          	movff	1357,1326
  6058   002278  EC12  F00B         	call	PSET_SSD1306
  6059   00227C                     ENDIF24:
  6060                           	callstack 0
  6061   00227C  0012               	return	
  6062                           
  6063                           ;'********************************************************************************
  6064   00227E                     	align	2	;X2
  6065                           
  6066                           	psect	config
  6067                           
  6068                           ;Config register CONFIG1 @ 0x300000
  6069                           ;	External Oscillator Selection
  6070                           ;	FEXTOSC = OFF, Oscillator not enabled
  6071                           ;	Reset Oscillator Selection
  6072                           ;	RSTOSC = HFINTOSC_1MHZ, HFINTOSC with HFFRQ = 4 MHz and CDIV = 4:1
  6073   300000                     	org	3145728
  6074   300000  EC                 	db	236
  6075                           
  6076                           ;Config register CONFIG2 @ 0x300001
  6077                           ;	Clock out Enable bit
  6078                           ;	CLKOUTEN = OFF, CLKOUT function is disabled
  6079                           ;	PRLOCKED One-Way Set Enable bit
  6080                           ;	PR1WAY = OFF, PRLOCKED bit can be set and cleared repeatedly
  6081                           ;	Boot Block enable bit
  6082                           ;	BBEN = OFF, User PFM code protection disabled
  6083                           ;	Clock Switch Enable bit
  6084                           ;	CSWEN = ON, Writing to NOSC and NDIV is allowed
  6085                           ;	Fail-Safe Clock Monitor Enable bit
  6086                           ;	FCMEN = ON, Fail-Safe Clock Monitor enabled
  6087                           ;	Fail-Safe Clock Monitor - Primary XTAL Enable bit
  6088                           ;	FCMENP = OFF, Fail-Safe Clock Monitor disabled
  6089                           ;	Fail-Safe Clock Monitor - Secondary XTAL Enable bit
  6090                           ;	FCMENS = OFF, Fail-Safe Clock Monitor Disabled
  6091   300001                     	org	3145729
  6092   300001  3D                 	db	61
  6093                           
  6094                           ;Config register CONFIG3 @ 0x300002
  6095                           ;	MCLR Enable bit
  6096                           ;	MCLRE = INTMCLR, If LVP = 0, MCLR pin function is port defined function; If LVP =1, RE3 pin fuction is MCLR
  6097                           ;	Power-up timer selection bits
  6098                           ;	PWRTS = PWRT_OFF, PWRT is disabled
  6099                           ;	Multi-vector enable bit
  6100                           ;	MVECEN = OFF, Interrupt contoller does not use vector table to prioritze interrupts
  6101                           ;	IVTLOCK bit One-way set enable bit
  6102                           ;	IVT1WAY = OFF, IVTLOCKED bit can be cleared and set repeatedly
  6103                           ;	Low Power BOR Enable bit
  6104                           ;	LPBOREN = OFF, Low-Power BOR disabled
  6105                           ;	Brown-out Reset Enable bits
  6106                           ;	BOREN = OFF, Brown-out Reset disabled
  6107   300002                     	org	3145730
  6108   300002  26                 	db	38
  6109                           
  6110                           ;Config register CONFIG4 @ 0x300003
  6111                           ;	Brown-out Reset Voltage Selection bits
  6112                           ;	BORV = VBOR_2P85, Brown-out Reset Voltage (VBOR) set to 2.8V
  6113                           ;	PPSLOCK bit One-Way Set Enable bit
  6114                           ;	PPS1WAY = OFF, PPSLOCKED bit can be set and cleared repeatedly (subject to the unlock sequence)
  6115                           ;	Stack Full/Underflow Reset Enable bit
  6116                           ;	STVREN = OFF, Stack full/underflow will not cause Reset
  6117                           ;	Low Voltage Programming Enable bit
  6118                           ;	LVP = OFF, HV on MCLR/VPP must be used for programming
  6119                           ;	Debug enable bit
  6120                           ;	DEBUG = OFF, Backround debugger disabled
  6121                           ;	Extended Instruction Set Enable bit
  6122                           ;	XINST = OFF, Extended Instruction Set and Indexed Addressing Mode disabled
  6123   300003                     	org	3145731
  6124   300003  C4                 	db	196
  6125                           
  6126                           ;Config register CONFIG5 @ 0x300004
  6127                           ;	WDT Period selection bits
  6128                           ;	WDTCPS = WDTCPS_0, Divider ratio 1:32
  6129                           ;	WDT operating mode
  6130                           ;	WDTE = OFF, WDT Disabled; SEN is ignored
  6131   300004                     	org	3145732
  6132   300004  80                 	db	128
  6133                           
  6134                           ;Config register CONFIG6 @ 0x300005
  6135                           ;	WDT Window Select bits
  6136                           ;	WDTCWS = WDTCWS_0, window delay = 87.5; no software control; keyed access required
  6137                           ;	WDT input clock selector
  6138                           ;	WDTCCS = LFINTOSC, WDT reference clock is the 31.0 kHz LFINTOSC (when WDTE != 0b00)
  6139   300005                     	org	3145733
  6140   300005  C0                 	db	192
  6141                           
  6142                           ;Config register CONFIG7 @ 0x300006
  6143                           ;	VDDIO2 supply mode bit
  6144                           ;	VDDIO2MD = STANDARD_RANGE, Standard Operating Range (VDDIO2 >= 1.62V)
  6145                           ;	VDDIO3 supply mode bit
  6146                           ;	VDDIO3MD = STANDARD_RANGE, Standard Operating Range (VDDIO3 >= 1.62V)
  6147   300006                     	org	3145734
  6148   300006  FF                 	db	255
  6149                           
  6150                           ;Config register CONFIG8 @ 0x300007
  6151                           ;	Boot Block Size Selection bits
  6152                           ;	BBSIZE = BBSIZE_128, Boot Block size is 128 words
  6153   300007                     	org	3145735
  6154   300007  00                 	db	0
  6155                           
  6156                           ;Config register CONFIG10 @ 0x300008
  6157                           ;	Boot Block Write Protection bit
  6158                           ;	WRTB = OFF, Boot Block is not write-protected
  6159                           ;	Configuration Register Write Protection bit
  6160                           ;	WRTC = OFF, Configuration registers are not write-protected
  6161                           ;	Data EEPROM Write Protection bit
  6162                           ;	WRTD = OFF, Data EEPROM is not write-protected
  6163                           ;	Storage Area Flash (SAF) Write Protection bit
  6164                           ;	WRTSAF = OFF, SAF is not write-protected
  6165                           ;	Application Block Write Protection bit
  6166                           ;	WRTAPP = OFF, Application Block is not write-protected
  6167   300008                     	org	3145736
  6168   300008  FF                 	db	255
  6169                           
  6170                           ;Config register CONFIG11 @ 0x300009
  6171                           ;	User Program Flash Memory (PFM) Code Protection bit
  6172                           ;	CP = OFF, User PFM code protection is disabled
  6173   300009                     	org	3145737
  6174   300009  FF                 	db	255
  6175                           
  6176                           ;Config register CONFIG12 @ 0x30000A
  6177                           ;	Data EEPROM Code Protection bit
  6178                           ;	CPD = OFF, Data EEPROM code protection is disabled
  6179   30000A                     	org	3145738
  6180   30000A  FF                 	db	255
  6181                           
  6182                           ;Config register CONFIG14 @ 0x300018
  6183                           ;	unspecified, using default values
  6184                           ;	SAF Lock Enable bit
  6185                           ;	SAFLOCK = 0x1, unprogrammed default
  6186   300018                     	org	3145752
  6187   300018  FF                 	db	255
  6188                           
  6189                           ;Config register CONFIG9 @ 0x300019
  6190                           ;	unspecified, using default values
  6191                           ;	SAF Block Size Selection bits
  6192                           ;	SAFSZ = 0xFF, unprogrammed default
  6193   300019                     	org	3145753
  6194   300019  FF                 	db	255
  6195                           tosu	equ	0x4FF
  6196                           tosh	equ	0x4FE
  6197                           tosl	equ	0x4FD
  6198                           stkptr	equ	0x4FC
  6199                           pclatu	equ	0x4FB
  6200                           pclath	equ	0x4FA
  6201                           pcl	equ	0x4F9
  6202                           tblptru	equ	0x4F8
  6203                           tblptrh	equ	0x4F7
  6204                           tblptrl	equ	0x4F6
  6205                           tablat	equ	0x4F5
  6206                           prodh	equ	0x4F4
  6207                           prodl	equ	0x4F3
  6208                           indf0	equ	0x4EF
  6209                           postinc0	equ	0x4EE
  6210                           postdec0	equ	0x4ED
  6211                           preinc0	equ	0x4EC
  6212                           plusw0	equ	0x4EB
  6213                           fsr0h	equ	0x4EA
  6214                           fsr0l	equ	0x4E9
  6215                           wreg	equ	0x4E8
  6216                           indf1	equ	0x4E7
  6217                           postinc1	equ	0x4E6
  6218                           postdec1	equ	0x4E5
  6219                           preinc1	equ	0x4E4
  6220                           plusw1	equ	0x4E3
  6221                           fsr1h	equ	0x4E2
  6222                           fsr1l	equ	0x4E1
  6223                           bsr	equ	0x4E0
  6224                           indf2	equ	0x4DF
  6225                           postinc2	equ	0x4DE
  6226                           postdec2	equ	0x4DD
  6227                           preinc2	equ	0x4DC
  6228                           plusw2	equ	0x4DB
  6229                           fsr2h	equ	0x4DA
  6230                           fsr2l	equ	0x4D9
  6231                           status	equ	0x4D8


Microchip Technology PIC18 Macro Assembler V2.46 build 20240104201356 
Symbol Table                                                                                                                                               Sat Feb 17 18:49:13 2024

                             FF 0525                              COL 051B                              PAD 10AD                              ROW 0575  
                            STR 1086             GLCDDRAWCHAR_SSD1306 0F3C                             FF_H 0526                             FSR0 04E9  
                           LOCX 0566                             LOCY 0567                SYSINTEGERTEMPA_H 0506                SYSINTEGERTEMPB_H 050A  
                           PROD 04F3                SYSINTEGERTEMPX_H 0501                            AFSR0 04E9                            DDF_X 051F  
                          DDF_Y 0521                            BOX17 05A8                            GLCDX 053C                            GLCDY 053D  
                          INDF0 04EF                            INDF1 04E7                            FSR0H 04EA                            OSCEN 007E  
                          XCHAR 05A9                            PRODH 04F4                            PRODL 04F3                            PORTA 0487  
                          PORTB 0488                            PORTC 0489                            TRISA 048D                            TRISB 048E  
                          TRISC 048F                     LINEDIFFX_X2 0552                     LINEDIFFY_X2 0556                  SYSCOMPLESSTHAN 1B06  
                   LINECOLOUR_E 054F                     LINECOLOUR_H 054D                     LINECOLOUR_U 054E                           ADCON0 022F  
                         CCOUNT 050F                           ENDIF3 1202                           ENDIF4 133A                           ENDIF5 1310  
                         ANSELA 0416                           ENDIF6 133A                           ANSELB 0420                           ENDIF7 1176  
                         ANSELC 042A                           ENDIF8 05D8                           ENDIF9 0608                           RB5PPS 0326  
                         RB6PPS 0327                           RB7PPS 0328                           LINEX1 055E                           LINEX2 0560  
                         LINEY1 0562                           LINEY2 0564                           FN_PAD 14FC                           TABLAT 04F5  
                         FN_STR 196A                     SI2CWAIT4ACK 18C6                           OSCFRQ 0080                           TBLPTR 04F6  
                         YCALC1 05AE                           YCALC2 05B0                     SI2CWAIT4MDR 190A                           STATUS 04D8  
                     I2C1SDAPPS 03AE                       I2C1SCLPPS 03AD                    STRINGTABLE52 1DC2                    STRINGTABLE81 1DC4  
                  STRINGPOINTER 057A                SYSREADSTRINGPART 1D62                          I2C1CLK 01F9                          I2C1CNT 01ED  
                        I2C1ERR 01EC                          I2C1PIR 01EA                          I2C1TXB 01F0                          I2CBYTE 0545  
                        CHARCOL 0511                          AFSR0_H 04EA                          CHARROW 0518                          DELAY_S 08F4  
                        ENDIF10 0666                          ENDIF11 06C4                          ENDIF20 1FB2                          ENDIF12 086E  
                        ENDIF21 204A                          ENDIF13 0A32                          ENDIF22 20B8                          ENDIF14 1E12  
                        ENDIF30 1CD6                          ENDIF23 20D6                          ENDIF31 1CE4                          ENDIF24 227C  
                        ENDIF16 1E3A                          ENDIF32 1CFE                          ENDIF40 1A5A                          ENDIF25 21CE  
                        ENDIF17 1E9C                          ENDIF33 1C5A                          ENDIF41 1AA4                          ENDIF26 2266  
                        ENDIF18 1EBA                          ENDIF34 1C9A                          ENDIF42 1622                          ENDIF50 0F28  
                        ENDIF19 2060                          ENDIF27 1D36                          ENDIF35 1B64                          ENDIF43 1576  
                        ENDIF51 0F60                          ENDIF28 1D44                          ENDIF36 1B3A                          ENDIF44 15BC  
                        ENDIF52 0FA6                          ENDIF60 096A                          ENDIF29 1D54                          ENDIF45 1610  
                        ENDIF53 106E                          ENDIF61 0988                          ENDIF38 19BE                          ENDIF70 18C2  
                        ENDIF62 1650                          ENDIF54 10B8                          ENDIF46 0E5A                          DDF_X_H 0520  
                        ENDIF39 1A0E                          ENDIF71 178E                          ENDIF55 10D8                          ENDIF80 1906  
                        ENDIF72 179A                          ENDIF64 16CC                          ENDIF48 0F28                          ENDIF81 18E6  
                        ENDIF73 1812                          ENDIF65 16EE                          ENDIF49 0EF0                          ENDIF82 192A  
                        ENDIF74 181E                          ENDIF66 1726                          ENDIF58 091A                          DDF_Y_H 0522  
                        ENDIF67 1BCA                          ENDIF83 1936                          ENDIF75 1862                          ENDIF59 092E  
                        ENDIF68 1BF0                          ENDIF84 195A                          ENDIF76 186E                          ENDIF85 1966  
                        ENDIF69 18B6                          ENDIF79 18FA                 INITGLCD_SSD1306 134A                          ELSE4_1 1312  
                        LINEERR 0558                          INITPPS 14B2                          INITSYS 14CE                          OSCCON1 007A  
                        OSCCON3 007C               WRITE_DATA_SSD1306 1DE4                          TBLPTRH 04F7                          PREINC0 04EC  
                        PREINC1 04E4                          TBLPTRU 04F8                          OSCTUNE 007F                    SI2CWAIT4STOP 193A  
                        XRADIUS 05AC                          XOFFSET 05AA                          YOFFSET 05B2                       CHARLOCX_H 0515  
                     CHARLOCY_H 0517                          _LINE70 2062                          _LINE69 1E46                       DELAYTEMP2 0501  
         SYSFORLOOPABSVALUE12_H 0581                     LONGNUMBER_E 056B                     LONGNUMBER_H 0569                     LONGNUMBER_U 056A  
                SYSFORLOOPEND10 1610                  SYSFORLOOPEND11 0E5A                  SYSFORLOOPEND12 0F28                  SYSFORLOOPEND13 0E98  
                SYSFORLOOPEND14 10FA                  SYSFORLOOPEND15 10EA                  SYSFORLOOPEND16 10D8                  SYSFORLOOPEND17 10B8  
                SYSFORLOOPEND18 0988                  SYSFORLOOPEND19 096A                     FN__HEXPICAS 1DFA                       GLCDCHANGE 052C  
                SYSFORLOOPSTEP2 0584                       GLCDCOLOUR 052D                          isa$std 0001                   STRINGTABLE134 1DC6  
                     GLCDPRINT5 1178                       GLCDTEMP_H 053B                       GLCDPRINT8 120C                    SYSDIV32START 1C5E  
                  SYSDIV16START 1BCE                       DRAWLINE_H 0524                       LCDVALUE_E 054B                       LCDVALUE_H 0549  
                     LCDVALUE_U 054A                   LINEDIFFX_X2_H 0553          CURSOR_POSITION_SSD1306 0872                   LINEDIFFY_X2_H 0557  
                SYSINTEGERTEMPA 0505                  SYSINTEGERTEMPB 0509                  SYSINTEGERTEMPX 0500         SYSLCDPRINTDATAHANDLER_H 0587  
               GLCDBACKGROUND_H 052A                    SYSARRAYTEMP1 057B                    SYSARRAYTEMP2 057C               SYSCOPYSTRINGCHECK 1B8E  
                     LINECOLOUR 054C                       BYTENUMBER 050E                SYSCOMPLESSTHAN16 1B10                    SYSDIVMULTA_H 0508  
                  SYSDIVMULTB_H 050C                         I2C1ADB1 01F2                    SYSDIVMULTX_H 0503                         I2C1CON0 01E6  
                       I2C1CON1 01E7                         I2C1CON2 01E8                    SYSDOLOOP_E10 1790                    SYSDOLOOP_E11 1814  
                  SYSDOLOOP_E12 1864                    SYSDOLOOP_E13 18FC                    SYSDOLOOP_E14 192C                    SYSDOLOOP_E15 195C  
                  SYSDOLOOP_S10 1764                    SYSDOLOOP_S11 17C6                    SYSDOLOOP_S12 1838                    SYSDOLOOP_S13 18C8  
                  SYSDOLOOP_S14 190C                    SYSDOLOOP_S15 193C                    SYSCOPYSTRING 1B7E                         CHARCODE 0510  
                       CHARCOLS 0513                         HI2CINIT 1344                         HI2CMODE 1348                         CHARLOCX 0514  
                       CHARLOCY 0516                         CHARROWS 051A                         DELAYUS1 189A                         DELAYUS2 18A6  
                       DELAYUS3 18B2                         DELAYUS4 178A                         DELAYUS5 17B4                         DELAYUS6 17C0  
                       DELAYUS7 17DA                         DELAYUS8 17E6                         DELAYUS9 1800                         DELAY_MS 08D8  
                     SCLT16TRUE 1B28                         CIRCLE20 06C6                       LONGNUMBER 0568                         ELSE20_1 1F94  
                       ELSE12_1 082C                         ELSE21_1 202C                         ELSE22_1 20B4                         ELSE23_1 20D2  
                       ELSE24_1 21E6                         ELSE25_1 21B0                         ELSE17_1 1E98                         ELSE26_1 2248  
                       ELSE18_1 1EB6                         ELSE42_1 15C4                         ELSE19_1 1FCA                         ELSE35_1 1B60  
                       ELSE53_1 104A                         ELSE71_1 1786                         ELSE64_1 16C6                         ELSE48_1 0EF2  
                       ELSE73_1 17FA                         ELSE65_1 16E8                         ELSE82_1 1922                         ELSE75_1 1856  
                       ELSE84_1 1952                         ELSE69_1 18AE                         ELSE79_1 18F2                         GLCDTEMP 053A  
                       DRAWLINE 0523                         LCDVALUE 0548             GLCDFNTDEFAULTHEIGHT 0531                   GLCDBACKGROUND 0529  
                       SI2CINIT 172A                         SI2CSEND 175A                         LINEX1_H 055F                         LINEX2_H 0561  
                       LINEY1_H 0563                         LINEY2_H 0565                         SI2CSTOP 187C                    SYSREADSTRING 1D56  
                       DS_START 08F4                SYSLONGDIVMULTA_E 058B                SYSLONGDIVMULTA_H 0589                SYSLONGDIVMULTB_E 058F  
              SYSLONGDIVMULTB_H 058D                SYSLONGDIVMULTA_U 058A                SYSLONGDIVMULTB_U 058E                SYSLONGDIVMULTX_E 0593  
              SYSLONGDIVMULTX_H 0591                SYSLONGDIVMULTX_U 0592                         RESETVEC 0000                         YCALC1_H 05AF  
                       YCALC2_H 05B1                  SYSLONGDIVMULTA 0588                  SYSLONGDIVMULTB 058C                  SYSLONGDIVMULTX 0590  
                       POSCHARX 056C                         POSCHARY 056E                       POSCHARX_H 056D                         POSTINC0 04EE  
                  SYSSELECTEND1 100A                    SYSSELECTEND2 186E              SSD1306_BUFFERALIAS 10FF                         SYSPAD_0 10AD  
                       SYSTEMP1 059E                         SYSTEMP2 05A2                         SYSTEMP3 05A4                         SYSSTR_0 1086  
                SYSSELECT1CASE1 0FAA                  SYSSELECT1CASE2 0FBC                  SYSSELECT1CASE3 0FD0                  SYSSELECT1CASE4 0FE4  
                SYSSELECT1CASE5 0FF8                  SYSSELECT2CASE1 175A                  SYSSELECT2CASE2 179C                  SYSSELECT2CASE3 1820  
          WRITE_COMMAND_SSD1306 1DD0       SSD1306_BUFFERLOCATIONCALC 0577                    SYSWAITTEMPMS 0502                    SYSWAITTEMPUS 0505  
                  SYSMULTSUBINT 1D22                       STRINGLOCX 0579                   SYSCALCTEMPA_E 0508                   SYSCALCTEMPA_H 0506  
                 SYSCALCTEMPA_U 0507                   SYSCALCTEMPX_H 0501            SYSSYSINSTRINGHANDLER 059C                       WORDNUMBER 05A7  
       GLCDPRINT_STRING_COUNTER 0539                       SYSDIVLOOP 0504                     PSET_SSD1306 1624                   GLCDDRAWSTRING 1106  
                     SYSTEMP1_E 05A1                       SYSTEMP1_H 059F                       SYSTEMP2_H 05A3                       SYSTEMP1_U 05A0  
               SYSFORLOOPSTEP11 0582                       SYSVALTEMP 05A5                       SYSVALTENS 1A70                    BASPROGRAMEND 05A4  
                  SYSSTRINGCOPY 1B94                    SYSSTRINGREAD 1D70                   GLCDFNTDEFAULT 0530                       SYSSTRDATA 0597  
                  SYSSTRINGTEMP 0598                       SYSSTRINGA 0507                   GLCDFOREGROUND 0534                SYSCHARSHANDLER_H 057F  
                 FILLEDCIRCLE23 098A                  SYSVALTHOUSANDS 19D6     SSD1306_BUFFERLOCATIONCALC_H 0578              HI2CWAITMSSPTIMEOUT 0544  
              SYSREPEATLOOPEND1 1664                SYSREPEATLOOPEND2 1672                SYSREPEATLOOPEND3 16DC                SYSREPEATLOOPEND4 0884  
              SYSREPEATLOOPEND5 08BA                  SYSWAITTEMPMS_H 0503                  SYSWAITTEMPUS_H 0506                      CURRCHARCOL 051C  
                    CURRCHARVAL 051E                      CURRCHARROW 051D                   GLCDPRINTLOC_H 0538                  SYSPRINTBUFFLEN 0594  
                 SYSCOMPEQUAL32 1AE8                   SYSCOMPEQUAL16 1AD6                      LINEDIFFX_H 0551                      LINEDIFFY_H 0555  
             SYSCOMPLESSTHANINT 1B2C             SYSFORLOOPABSVALUE12 0580                      LINESTEPX_H 055B                      LINESTEPY_H 055D  
                      I2C1STAT0 01E4                        I2C1STAT1 01E5                      RADIUSERR_H 0574                     STRINGTABLE1 1D7C  
                   STRINGTABLE2 1D84                     STRINGTABLE3 1D92                     STRINGTABLE4 1DA8                     STRINGTABLE5 1DB2  
                   STRINGTABLE6 1DB4                     STRINGTABLE7 1DB8                     STRINGTABLE8 1DC0           SYSLCDPRINTDATAHANDLER 0586  
                 HI2C1LASTERROR 0540                  HI2CCURRENTMODE 0543          SYSSYSINSTRINGHANDLER_H 059D                        CHARCOL_H 0512  
                    INXRADIUS_H 0547                        CHARROW_H 0519                        DELAYUS10 180C                        DELAYUS11 185E  
                      DELAYUS12 18F6                        DELAYUS13 1926                        DELAYUS14 1956                        DELAYTEMP 0500  
                      DELAYUSO1 1898                        DELAYUSO5 17B2                        DELAYUSO7 17D8                        DELAYUSO9 17FE  
                   SYSCALCTEMPA 0505                     SYSCALCTEMPX 0500                     WORDNUMBER_H 05A8                   SYSFORLOOPEND1 05A0  
                 SYSFORLOOPEND2 1202                   SYSFORLOOPEND3 133A                   SYSFORLOOPEND4 1176                   SYSFORLOOPEND5 0666  
                 SYSFORLOOPEND6 06C4                   SYSFORLOOPEND7 1E2A                   SYSFORLOOPEND8 1576                   SYSFORLOOPEND9 15BC  
                      GLCDBITNO 052B                     SYSCHARCOUNT 057D                        DMS_INNER 08E2                        DMS_OUTER 08DE  
                      DMS_START 08DA                        LINEDIFFX 0550                        LINEDIFFY 0554                     SYSCOMPEQUAL 1ACC  
                    SCLTINTTRUE 1B7A                SYSCOPYSTRINGPART 1B88                        LINEERR_H 0559                        SI2CSTART 1872  
                   SYSDIVSUBINT 1CC2                        LINESTEPX 055A                        LINESTEPY 055C                     SYSDOLOOP_E1 05A2  
                   SYSDOLOOP_E2 1276                     SYSDOLOOP_E3 0870                     SYSDOLOOP_E4 0B28                     SYSDOLOOP_E5 1FB4  
                   SYSDOLOOP_E6 204C                     SYSDOLOOP_E7 21D0                     SYSDOLOOP_E8 2268                     SYSDOLOOP_E9 18B8  
                      RADIUSERR 0573                     SYSDOLOOP_S1 02C6                     SYSDOLOOP_S2 1210                     SYSDOLOOP_S3 06F8  
                   SYSDOLOOP_S4 0A02                     SYSDOLOOP_S5 1F42                     SYSDOLOOP_S6 1FD6                     SYSDOLOOP_S7 215E  
                   SYSDOLOOP_S8 21F2                     SYSDOLOOP_S9 1880                        INXRADIUS 0546                     SYSFORLOOP10 15C8  
                   SYSFORLOOP11 0E1A                     SYSFORLOOP12 0E60                     SYSFORLOOP13 0E86                     SYSFORLOOP14 0FA8  
                   SYSFORLOOP15 1010                     SYSFORLOOP16 1018                     SYSFORLOOP17 1020                     SYSFORLOOP18 0932  
                   SYSFORLOOP19 0936               SYSSTRINGREADCHECK 1D6A                     SYSBYTETEMPA 0505                     SYSBYTETEMPB 0509  
                   SYSBYTETEMPX 0500                     SYSLONGTEMPA 0505                     SYSLONGTEMPB 0509                     SYSLONGTEMPX 0500  
                      PRINTLOCX 056F                        PRINTLOCY 0571                   SYSLONGTEMPA_E 0508                   SYSLONGTEMPA_H 0506  
                 SYSLONGTEMPB_E 050C                   SYSLONGTEMPB_H 050A                   SYSLONGTEMPA_U 0507                   SYSLONGTEMPB_U 050B  
                 SYSLONGTEMPX_E 0503                   SYSLONGTEMPX_H 0501                   SYSLONGTEMPX_U 0502               SYSFORLOOPSTEP11_H 0583  
                   SYSVALTEMP_H 05A6                   SYSREPEATLOOP1 165A                   SYSREPEATLOOP2 166A                   SYSREPEATLOOP3 16D6  
                 SYSREPEATLOOP4 087C                   SYSREPEATLOOP5 08B0                     SYSWAITLOOP1 1828                   SYSREPEATTEMP1 0595  
                 SYSREPEATTEMP4 0596                     SYSWAITTEMPS 0504                  BASPROGRAMSTART 000C                        OUTSTRING 10D6  
                 GLCD_YORDINATE 053E                     SYSMULTSUB16 1D00                        XRADIUS_H 05AD                      PRINTLOCX_H 0570  
                    PRINTLOCY_H 0572                        XOFFSET_H 05AB                        YOFFSET_H 05B3                        YORDINATE 05B4  
                SYSSTRINGLENGTH 0506                  SYSSTRINGPARAM1 1097                  SYSSTRINGTABLES 1D7C                     SYSSTRINGA_H 0508  
                      _HEXPICAS 1082                        SYSSTRLEN 0599                     SYSWORDTEMPA 0505                     SYSWORDTEMPB 0509  
               HI2CACKPOLLSTATE 0542                     SYSWORDTEMPX 0500                    GLCDFONTWIDTH 0533                   SYSVALHUNDREDS 1A24  
               GLCDFOREGROUND_H 0535           SYSSYSINSTRING3HANDLER 059A                FILLEDBOX_SSD1306 0904                 GLCD_YORDINATE_H 053F  
                 SYSPRINTBUFFER 108C                  SSD1306SENDBYTE 0576                      SYSDIVSUB16 1B9E                      SYSDIVSUB32 1C06  
                    SYSDIVMULTA 0507                      SYSDIVMULTB 050B                      SYSDIVMULTX 0502                      SYSFORLOOP1 02CA  
                    SYSFORLOOP2 1196                      SYSFORLOOP3 1282                      SYSFORLOOP4 1112                      SYSFORLOOP5 0610  
                    SYSFORLOOP6 066E                      SYSFORLOOP7 1E1E                      SYSFORLOOP8 1536                      SYSFORLOOP9 157C  
             GLCDFNTDEFAULTSIZE 0532                     GLCDCHARCOL3 0B2A                     GLCDCHARCOL4 0BBE                     GLCDCHARCOL5 0C52  
                   GLCDCHARCOL6 0CE6                     GLCDCHARCOL7 0D7A                     GLCDDATATEMP 052F                      SYSSIGNBYTE 050D  
              SYSFORLOOPSTEP2_H 0585                  GLCDCLS_SSD1306 0E0E                     GLCDCOLOUR_H 052E                  SYSCHARSHANDLER 057E  
                      isa$xinst 0000                     FILLCIRCLEXX 0527                     FILLCIRCLEYY 0528                   SYSWORDTEMPA_H 0506  
                 SYSWORDTEMPB_H 050A                   SYSWORDTEMPX_H 0501                     GLCDPRINTLEN 0536                     GLCDPRINTLOC 0537  
              TABLEGLCDCHARCOL3 0B4C                TABLEGLCDCHARCOL4 0BE0                TABLEGLCDCHARCOL5 0C74                TABLEGLCDCHARCOL6 0D08  
              TABLEGLCDCHARCOL7 0D9C                HI2C1STATEMACHINE 0541                   SYS_HEXPICAS_0 1082                   SYS_HEXPICAS_1 1083  
                 SYS_HEXPICAS_2 1084         SYSSYSINSTRING3HANDLER_H 059B  
