

Microchip MPLAB XC8 Assembler V2.46 build 20240104201356 
D:\GreatCowBASICGits\Demonstration_Sources.git\Vendor_Boards\Great_Cow_Basic_Demo_Board\18Fx6q20_ChipRange_Demonstrations\210_i2c_glcd_sprites_using_ssd13 Sat Feb 17 18:24:43 2024

02-17-2024
     1                           	processor	18F16Q20
     2                           	pagewidth 180
     3                           	psect	udata_acs,global,class=COMRAM,space=1,delta=1,lowdata,noexec
     4                           	psect	udata_bank5,global,class=BANK5,space=1,delta=1,lowdata,noexec
     5                           	psect	udata_bank6,global,class=BANK6,space=1,delta=1,lowdata,noexec
     6                           	psect	udata_bank7,global,class=BANK7,space=1,delta=1,lowdata,noexec
     7                           	psect	udata_bank8,global,class=BANK8,space=1,delta=1,lowdata,noexec
     8                           	psect	udata_bank9,global,class=BANK9,space=1,delta=1,lowdata,noexec
     9                           	psect	udata_bank10,global,class=BANK10,space=1,delta=1,lowdata,noexec
    10                           	psect	udata_bank11,global,class=BANK11,space=1,delta=1,lowdata,noexec
    11                           	psect	udata_bank12,global,class=BANK12,space=1,delta=1,lowdata,noexec
    12                           	psect	udata_bank13,global,class=BANK13,space=1,delta=1,lowdata,noexec
    13                           	psect	udata_bank14,global,class=BANK14,space=1,delta=1,lowdata,noexec
    14                           	psect	udata_bank15,global,class=BANK15,space=1,delta=1,lowdata,noexec
    15                           	psect	udata_bank16,global,class=BANK16,space=1,delta=1,noexec
    16                           	psect	udata_bank17,global,class=BANK17,space=1,delta=1,noexec
    17                           	psect	udata_bank18,global,class=BANK18,space=1,delta=1,noexec
    18                           	psect	udata_bank19,global,class=BANK19,space=1,delta=1,noexec
    19                           	psect	udata_bank20,global,class=BANK20,space=1,delta=1,noexec
    20                           	psect	udata,global,class=RAM,space=1,delta=1,noexec
    21                           	psect	code,global,reloc=2,class=CODE,delta=1
    22                           	psect	data,global,reloc=2,class=CONST,delta=1,noexec
    23                           	psect	edata,global,class=EEDATA,space=3,delta=1,noexec
    24                           	psect	RESETVEC,global,abs,delta=1
    25                           	psect	config,global,abs,ovrld,class=CONFIG,space=4,delta=1,noexec
    26                           
    27                           ;'Program compiled by GCBASIC (2024.2.16 (Windows 64 bit) : Build 1337) for Microchip PIC-AS using FreeBASIC 1.07.1/2024-02-15 CRC247
    28                           ;'  See the GCBASIC forums at http://sourceforge.net/projects/gcbasic/forums,
    29                           ;'  Check the documentation and Help at http://gcbasic.sourceforge.net/help/,
    30                           ;'or, email:
    31                           ;'   evanvennn at users dot sourceforge dot net
    32                           ;'********************************************************************************
    33                           ;'Set up the assembler options (Chip type, clock source, other bits and pieces)
    34                           ;'PROCESSOR   18F16Q20
    35   000000                     
    36                           ;' Reverse lookup file(s)
    37                           ;' C:\Program Files\Microchip\xc8\v2.46\pic\include\proc\pic18f16q20.inc
    38                           ;' C:\Program Files\Microchip\xc8\v2.46\pic\dat\cfgmap\18f16q20.cfgmap
    39                           ;' Alternative CONFIG file is to be found at C:\Program Files\Microchip\xc8\vX.YY\pic\dat\cfgdata as per Microchip support ticket #00730936 
    40                           ;'********************************************************************************
    41                           ;'Explicit PIC-AS constants to resolve the crazyness of the PIC-AS syntax
    42                           ;'These are therefore the same as MPASM
    43                           ;'********************************************************************************
    44                           ;'Explicit CONFIG
    45                           ;'Inferred CONFIG
    46                           ;'********************************************************************************
    47                           ;' The XC8 xc.inc include file.  This MUST be placed after the CONFIG statements.
    48   000000                     
    49                           	psect	edata
    50   000000                     stk_offset	set	0
    51   000000                     auto_size	set	0
    52                           
    53                           ; stack_auto defines a symbol /name/_offset which equates to the
    54                           ; stack offset of the auto object in question
    55   000000                     
    56                           ; stack_param defines a symbol /name/_offset which equates to the
    57                           ; stack offset of the parameter object in question
    58   000000                     
    59                           ; alloc_stack adjusts the SP to allocate space for auto objects
    60                           ; it also links in to the btemp symbol so that can be used
    61   000000                     
    62                           ; restore_stack adjusts the SP to remove all auto and parameter
    63                           ; objects from the stack prior to returning from a function
    64   000000                     
    65                           ;'********************************************************************************
    66                           ;'Set aside RAM memory locations for variables. All variables are global.
    67   000000                     
    68                           ;'********************************************************************************
    69                           ;'ALIAS VARIABLES
    70   000000                     
    71                           ;'********************************************************************************
    72                           
    73                           	psect	RESETVEC
    74   000000                     RESETVEC:
    75                           
    76                           ;'VECTORS
    77   000000                     	org	0
    78   000000  EF06  F000         	goto	BASPROGRAMSTART
    79   000008                     	org	8
    80   000008  0010               	retfie	
    81                           
    82                           ;'********************************************************************************
    83                           ;'PROGRAM_MEMORY_PAGE: 0
    84   00000C                     	org	12
    85   00000C                     BASPROGRAMSTART:
    86                           	callstack 0
    87                           
    88                           ;'CALL INITIALISATION ROUTINES
    89   00000C  ECA1  F007         	call	INITSYS
    90   000010  EC8E  F007         	call	INITPPS
    91   000014  EC24  F007         	call	HI2CINIT
    92   000018  EC9C  F007         	call	INITRANDOM
    93   00001C  EC27  F007         	call	INITGLCD_SSD1306
    94                           
    95                           ;'START_OF_THE_MAIN_PROGRAM
    96                           ;''
    97                           ;''THIS DEMONSTRATION PROGRAM IS A SIMPLE GLCD DEMONSTRATION OF THE SSD1306 GLCD CAPABILITIES.
    98                           ;''
    99                           ;''THIS PROGRAM SHOWS HOW TO DRAW SPRITES ON AN SSD1306 I2C DEVICE.
   100                           ;''ONLY SUPPORT I2C AND ((CRCCON0) and 0FFh), 0, b GLCD MODE - SUPPORTED FROM V1.XX ONWARDS
   101                           ;''
   102                           ;''THE #DEFINE 'SPRITECHOICE' DEFINES THE SPRITE TO BE MANAGED.
   103                           ;''YOU CAN DEFINE YOUR OWN ((CWG1CON1) and 0FFh), 5, b THE SPRITE TABLES. EACH TABLE IS 8 PIXLES VERTICAL - COL1 TO COL8 ((CWG1CON1) and 0FFh), 5, b
      +                           EACH TABLE.
   104                           ;''
   105                           ;''
   106                           ;''************************************************************************
   107                           ;''AUTHOR EVANV
   108                           ;''LICENCE GPL
   109                           ;''VERSION 1.00
   110                           ;''DATE 31.11.2022
   111                           ;'----- CONFIGURATION
   112                           ;'CHIP SETTINGS.
   113                           ;'PIC PPS TOOL VERSION: 0.0.6.5
   114                           ;'ADD THIS CODE SEGMENT TO YOUR GCBASIC SOURCE PROGRAM
   115                           ;'
   116                           ;'HARDWARE
   117                           ;'-------------------PORTA----------------
   118                           ;'BIT#:  -7---6---5---4---3---2---1---0---
   119                           ;'IO:    -----------------SW---------ADC--
   120                           ;'-----------------------------------------
   121                           ;'
   122                           ;'
   123                           ;'-------------------PORTB----------------
   124                           ;'BIT#:  -7---6---5---4---3---2---1---0---
   125                           ;'IO:    TX--SCL-SDA----------------------
   126                           ;'----------------------------------------
   127                           ;'
   128                           ;'------------------PORTC-----------------
   129                           ;'BIT#:  -7---6---5---4---3---2---1---0---
   130                           ;'IO:    LED-LED-LED-LED------------------
   131                           ;'----------------------------------------
   132                           ;'
   133                           ;'DEFINE CONSTANTS TO MAKE THINGS EASIER. WE CAN REUSE THESE AT ANY TIME.
   134                           ;'SET THE PORTS AS AN OUTPUT
   135                           ;'DIR LEDD7 OUT
   136   000020  9E8F               	bcf	1167,7,c
   137                           
   138                           ;'DIR LEDD6 OUT
   139   000022  9C8F               	bcf	1167,6,c
   140                           
   141                           ;'DIR LEDD5 OUT
   142   000024  9A8F               	bcf	1167,5,c
   143                           
   144                           ;'DIR LEDD4 OUT
   145   000026  988F               	bcf	1167,4,c
   146                           
   147                           ;'THIS IS THE PORTA.0 PORT
   148                           ;'DIR POTENTIOMETER IN
   149   000028  808D               	bsf	1165,0,c
   150                           
   151                           ;'DIR     SWITCHIN      IN
   152   00002A  868D               	bsf	1165,3,c
   153                           
   154                           ;'DEFINE I2C SETTINGS
   155                           ;'HI2CMODE (MASTER)
   156   00002C  0E0C               	movlw	12
   157   00002E  6E3D               	movwf	1341,c
   158   000030  EC26  F007         	call	HI2CMODE
   159                           
   160                           ;'THESE CONSTANTS ALLOW YOU TO CHANGE THE GLCD MEMORY USAGE.
   161                           ;'*****************************************************************************************************
   162                           ;'MAIN PROGRAM COMMENCES HERE.. EVERYTHING BEFORE THIS IS SETUP FOR THE BOARD.
   163                           ;'SELECT THE SPRITE AND THE USER DELAY
   164                           ;'2MS IS THE LOWER LIMIT OF USER VISUAL PERCEPTION
   165                           ;'*******************************************************************************************
   166                           ;'DRAW INITIAL SCREEN
   167                           ;'BOX 0,0,127,63
   168   000034  6A42               	clrf	1346,c
   169   000036  6A43               	clrf	1347,c
   170   000038  6A46               	clrf	1350,c
   171   00003A  6A47               	clrf	1351,c
   172   00003C  0E7F               	movlw	127
   173   00003E  6E44               	movwf	1348,c
   174   000040  6A45               	clrf	1349,c
   175   000042  0E3F               	movlw	63
   176   000044  6E48               	movwf	1352,c
   177   000046  6A49               	clrf	1353,c
   178   000048  C52B F540          	movff	1323,1344
   179   00004C  C52C F541          	movff	1324,1345
   180   000050  D8DE               	rcall	BOX19
   181                           
   182                           ;'GLCDPRINT ( 2, 36, "GCBASIC")
   183   000052  0E02               	movlw	2
   184   000054  6E51               	movwf	1361,c
   185   000056  6A52               	clrf	1362,c
   186   000058  0E24               	movlw	36
   187   00005A  6E53               	movwf	1363,c
   188   00005C  6A54               	clrf	1364,c
   189   00005E  EE14 F0ED          	lfsr	1,4333
   190   000062  0EDE               	movlw	low STRINGTABLE1
   191   000064  6EF6               	movwf	tblptrl,c
   192   000066  0E14               	movlw	high STRINGTABLE1
   193   000068  6EF7               	movwf	tblptrh,c
   194   00006A  0E00               	movlw	low (STRINGTABLE1 shr (0+16))
   195   00006C  6EF8               	movwf	tblptru,c
   196   00006E  EC5C  F00A         	call	SYSREADSTRING
   197   000072  0EED               	movlw	237
   198   000074  0105               	banksel	1382
   199   000076  6F66               	movwf	1382,b
   200   000078  0E10               	movlw	16
   201   00007A  6F67               	movwf	1383,b
   202                           
   203                           ;'USING SYSSTRINGPARAM1*7
   204   00007C  0100               	banksel	0
   205   00007E  ECDB  F006         	call	GLCDPRINT7
   206                           
   207                           ;'GLCDPRINT ( 2, 46, "GLCD LIBRARY 2024")
   208   000082  0E02               	movlw	2
   209   000084  6E51               	movwf	1361,c
   210   000086  6A52               	clrf	1362,c
   211   000088  0E2E               	movlw	46
   212   00008A  6E53               	movwf	1363,c
   213   00008C  6A54               	clrf	1364,c
   214   00008E  EE14 F0ED          	lfsr	1,4333
   215   000092  0EE6               	movlw	low STRINGTABLE2
   216   000094  6EF6               	movwf	tblptrl,c
   217   000096  0E14               	movlw	high STRINGTABLE2
   218   000098  6EF7               	movwf	tblptrh,c
   219   00009A  0E00               	movlw	low (STRINGTABLE2 shr (0+16))
   220   00009C  6EF8               	movwf	tblptru,c
   221   00009E  EC5C  F00A         	call	SYSREADSTRING
   222   0000A2  0EED               	movlw	237
   223   0000A4  0105               	banksel	1382
   224   0000A6  6F66               	movwf	1382,b
   225   0000A8  0E10               	movlw	16
   226   0000AA  6F67               	movwf	1383,b
   227                           
   228                           ;'USING SYSSTRINGPARAM1*17
   229   0000AC  0100               	banksel	0
   230   0000AE  ECDB  F006         	call	GLCDPRINT7
   231                           
   232                           ;'GLCDPRINT ( 2, 54, "SPRITE SUPPORT")
   233   0000B2  0E02               	movlw	2
   234   0000B4  6E51               	movwf	1361,c
   235   0000B6  6A52               	clrf	1362,c
   236   0000B8  0E36               	movlw	54
   237   0000BA  6E53               	movwf	1363,c
   238   0000BC  6A54               	clrf	1364,c
   239   0000BE  EE14 F0ED          	lfsr	1,4333
   240   0000C2  0EF8               	movlw	low STRINGTABLE3
   241   0000C4  6EF6               	movwf	tblptrl,c
   242   0000C6  0E14               	movlw	high STRINGTABLE3
   243   0000C8  6EF7               	movwf	tblptrh,c
   244   0000CA  0E00               	movlw	low (STRINGTABLE3 shr (0+16))
   245   0000CC  6EF8               	movwf	tblptru,c
   246   0000CE  EC5C  F00A         	call	SYSREADSTRING
   247   0000D2  0EED               	movlw	237
   248   0000D4  0105               	banksel	1382
   249   0000D6  6F66               	movwf	1382,b
   250   0000D8  0E10               	movlw	16
   251   0000DA  6F67               	movwf	1383,b
   252                           
   253                           ;'USING SYSSTRINGPARAM1*14
   254   0000DC  0100               	banksel	0
   255   0000DE  ECDB  F006         	call	GLCDPRINT7
   256                           
   257                           ;'WAIT 3 S
   258   0000E2  0E03               	movlw	3
   259   0000E4  6E04               	movwf	1284,c
   260   0000E6  D961               	rcall	DELAY_S
   261                           
   262                           ;'GLCDCLS
   263   0000E8  DADA               	rcall	GLCDCLS_SSD1306
   264                           
   265                           ;'BOX 0,0,127,63
   266   0000EA  6A42               	clrf	1346,c
   267   0000EC  6A43               	clrf	1347,c
   268   0000EE  6A46               	clrf	1350,c
   269   0000F0  6A47               	clrf	1351,c
   270   0000F2  0E7F               	movlw	127
   271   0000F4  6E44               	movwf	1348,c
   272   0000F6  6A45               	clrf	1349,c
   273   0000F8  0E3F               	movlw	63
   274   0000FA  6E48               	movwf	1352,c
   275   0000FC  6A49               	clrf	1353,c
   276   0000FE  C52B F540          	movff	1323,1344
   277   000102  C52C F541          	movff	1324,1345
   278   000106  D883               	rcall	BOX19
   279                           
   280                           ;'DIMENSION AND INITIALISE VARIABLES
   281                           ;'DIM OLDX, OLDY AS BYTE
   282                           ;'DIM CURX, CURY AS BYTE
   283                           ;'DIM DIRX, DIRY AS BYTE
   284                           ;'CURX = 63
   285   000108  0E3F               	movlw	63
   286   00010A  6E1A               	movwf	1306,c
   287                           
   288                           ;'CURY = 31
   289   00010C  0E1F               	movlw	31
   290   00010E  6E1B               	movwf	1307,c
   291                           
   292                           ;'OLDX = CURX
   293   000110  C51A F54C          	movff	1306,1356
   294                           
   295                           ;'OLDY = CURY
   296   000114  C51B F54D          	movff	1307,1357
   297                           
   298                           ;'DRAW INITIAL SPRITE
   299                           ;'GLCDDRAWSPRITE_SSD1306 CURX,CURY, SPRITECHOICE, GLCDFOREGROUND
   300   000118  C51A F536          	movff	1306,1334
   301   00011C  C51B F537          	movff	1307,1335
   302   000120  0E02               	movlw	2
   303   000122  6E0B               	movwf	1291,c
   304   000124  ECC6  F004         	call	GLCDDRAWSPRITE_SSD1306
   305                           
   306                           ;'SET INITIAL DIRECTION
   307                           ;'IF RANDOM > 127 THEN
   308   000128  EC3B  F008         	call	FN_RANDOM
   309   00012C  5055               	movf	1365,w,c
   310   00012E  087F               	sublw	127
   311   000130  B0D8               	btfsc	status,0,c
   312   000132  D003               	bra	ELSE1_1
   313                           
   314                           ;'DIRX=1
   315   000134  0E01               	movlw	1
   316   000136  6E1C               	movwf	1308,c
   317                           
   318                           ;'ELSE
   319   000138  D001               	bra	ENDIF1
   320   00013A                     ELSE1_1:
   321                           	callstack 0
   322                           
   323                           ;'DIRX=255
   324   00013A  681C               	setf	1308,c
   325   00013C                     ENDIF1:
   326                           	callstack 0
   327                           
   328                           ;'IF RANDOM > 127 THEN
   329   00013C  EC3B  F008         	call	FN_RANDOM
   330   000140  5055               	movf	1365,w,c
   331   000142  087F               	sublw	127
   332   000144  B0D8               	btfsc	status,0,c
   333   000146  D003               	bra	ELSE2_1
   334                           
   335                           ;'DIRY=1
   336   000148  0E01               	movlw	1
   337   00014A  6E1D               	movwf	1309,c
   338                           
   339                           ;'ELSE
   340   00014C  D001               	bra	ENDIF2
   341   00014E                     ELSE2_1:
   342                           	callstack 0
   343                           
   344                           ;'DIRY=255
   345   00014E  681D               	setf	1309,c
   346   000150                     ENDIF2:
   347                           	callstack 0
   348   000150                     SYSDOLOOP_S1:
   349                           	callstack 0
   350                           
   351                           ;'HANDLE BOUNCE
   352                           ;'IF  CURX>0 AND CURX<119  THEN
   353   000150  C51A F509          	movff	1306,1289
   354   000154  6A05               	clrf	1285,c
   355   000156  EC35  F00A         	call	SYSCOMPLESSTHAN
   356   00015A  C500 F56C          	movff	1280,1388
   357   00015E  C51A F505          	movff	1306,1285
   358   000162  0E77               	movlw	119
   359   000164  6E09               	movwf	1289,c
   360   000166  EC35  F00A         	call	SYSCOMPLESSTHAN
   361   00016A  0105               	banksel	1388
   362   00016C  516C               	movf	1388,w,b
   363   00016E  1400               	andwf	1280,w,c
   364   000170  6F6E               	movwf	1390,b
   365   000172  A16E               	btfss	1390,0,b
   366   000174  D005               	bra	ELSE3_1
   367                           
   368                           ;'OLDX = CURX
   369   000176  C51A F54C          	movff	1306,1356
   370                           
   371                           ;'CURX=CURX+DIRX
   372   00017A  501C               	movf	1308,w,c
   373   00017C  261A               	addwf	1306,f,c
   374                           
   375                           ;'ELSE
   376   00017E  D00B               	bra	ENDIF3
   377   000180                     ELSE3_1:
   378                           	callstack 0
   379                           
   380                           ;'IF DIRX = 1 THEN
   381   000180  041C               	decf	1308,w,c
   382   000182  A4D8               	btfss	status,2,c
   383   000184  D002               	bra	ELSE5_1
   384                           
   385                           ;'DIRX=255
   386   000186  681C               	setf	1308,c
   387                           
   388                           ;'ELSE
   389   000188  D002               	bra	ENDIF5
   390   00018A                     ELSE5_1:
   391                           	callstack 0
   392                           
   393                           ;'DIRX=1
   394   00018A  0E01               	movlw	1
   395   00018C  6E1C               	movwf	1308,c
   396   00018E                     ENDIF5:
   397                           	callstack 0
   398                           
   399                           ;'OLDX = CURX
   400   00018E  C51A F54C          	movff	1306,1356
   401                           
   402                           ;'CURX=CURX+DIRX
   403   000192  501C               	movf	1308,w,c
   404   000194  261A               	addwf	1306,f,c
   405   000196                     ENDIF3:
   406                           	callstack 0
   407                           
   408                           ;'IF CURY >1 AND CURY<55 THEN
   409   000196  C51B F509          	movff	1307,1289
   410   00019A  0E01               	movlw	1
   411   00019C  6E05               	movwf	1285,c
   412   00019E  0100               	banksel	0
   413   0001A0  EC35  F00A         	call	SYSCOMPLESSTHAN
   414   0001A4  C500 F56C          	movff	1280,1388
   415   0001A8  C51B F505          	movff	1307,1285
   416   0001AC  0E37               	movlw	55
   417   0001AE  6E09               	movwf	1289,c
   418   0001B0  EC35  F00A         	call	SYSCOMPLESSTHAN
   419   0001B4  0105               	banksel	1388
   420   0001B6  516C               	movf	1388,w,b
   421   0001B8  1400               	andwf	1280,w,c
   422   0001BA  6F6E               	movwf	1390,b
   423   0001BC  A16E               	btfss	1390,0,b
   424   0001BE  D005               	bra	ELSE4_1
   425                           
   426                           ;'OLDY = CURY
   427   0001C0  C51B F54D          	movff	1307,1357
   428                           
   429                           ;'CURY=CURY+DIRY
   430   0001C4  501D               	movf	1309,w,c
   431   0001C6  261B               	addwf	1307,f,c
   432                           
   433                           ;'ELSE
   434   0001C8  D00B               	bra	ENDIF4
   435   0001CA                     ELSE4_1:
   436                           	callstack 0
   437                           
   438                           ;'IF DIRY = 1 THEN
   439   0001CA  041D               	decf	1309,w,c
   440   0001CC  A4D8               	btfss	status,2,c
   441   0001CE  D002               	bra	ELSE6_1
   442                           
   443                           ;'DIRY=255
   444   0001D0  681D               	setf	1309,c
   445                           
   446                           ;'ELSE
   447   0001D2  D002               	bra	ENDIF6
   448   0001D4                     ELSE6_1:
   449                           	callstack 0
   450                           
   451                           ;'DIRY=1
   452   0001D4  0E01               	movlw	1
   453   0001D6  6E1D               	movwf	1309,c
   454   0001D8                     ENDIF6:
   455                           	callstack 0
   456                           
   457                           ;'OLDY = CURY
   458   0001D8  C51B F54D          	movff	1307,1357
   459                           
   460                           ;'CURY=CURY+DIRY
   461   0001DC  501D               	movf	1309,w,c
   462   0001DE  261B               	addwf	1307,f,c
   463   0001E0                     ENDIF4:
   464                           	callstack 0
   465                           
   466                           ;'END OF HANDLE BOUNCE
   467                           ;'DRAW SPRITE
   468                           ;'GLCDDRAWSPRITE_SSD1306 OLDX,OLDY, SPRITECHOICE
   469   0001E0  C54C F536          	movff	1356,1334
   470   0001E4  C54D F537          	movff	1357,1335
   471   0001E8  0E02               	movlw	2
   472   0001EA  6E0B               	movwf	1291,c
   473   0001EC  0100               	banksel	0
   474   0001EE  DBCE               	rcall	GLCDDRAWSPRITE_SSD1306
   475                           
   476                           ;'GLCDDRAWSPRITE_SSD1306 CURX,CURY, SPRITECHOICE
   477   0001F0  C51A F536          	movff	1306,1334
   478   0001F4  C51B F537          	movff	1307,1335
   479   0001F8  0E02               	movlw	2
   480   0001FA  6E0B               	movwf	1291,c
   481   0001FC  DBC7               	rcall	GLCDDRAWSPRITE_SSD1306
   482                           
   483                           ;'USER DELAY
   484                           ;'SO YOU CAN SEE IT!
   485                           ;'WAIT SPRITEDELAY
   486   0001FE  0E0A               	movlw	10
   487   000200  6E02               	movwf	1282,c
   488   000202  6A03               	clrf	1283,c
   489   000204  D8C4               	rcall	DELAY_MS
   490                           
   491                           ;'LOOP
   492   000206  D7A4               	bra	SYSDOLOOP_S1
   493   000208                     SYSDOLOOP_E1:
   494                           	callstack 0
   495                           
   496                           ;'END
   497   000208  D000               	bra	BASPROGRAMEND
   498   00020A                     BASPROGRAMEND:
   499                           	callstack 0
   500   00020A  0003               	sleep	
   501   00020C  D7FE               	bra	BASPROGRAMEND
   502   00020E                     BOX19:
   503                           	callstack 0
   504                           
   505                           ;'DIM GLCDTEMP AS WORD
   506                           ;'MAKE SURE THAT STARTING POINT (1) IS ALWAYS LESS THAN END POINT (2)
   507                           ;'IF LINEX1 > LINEX2 THEN
   508   00020E  C542 F509          	movff	1346,1289
   509   000212  C543 F50A          	movff	1347,1290
   510   000216  C544 F505          	movff	1348,1285
   511   00021A  C545 F506          	movff	1349,1286
   512   00021E  EC3A  F00A         	call	SYSCOMPLESSTHAN16
   513   000222  A000               	btfss	1280,0,c
   514   000224  D00C               	bra	ENDIF13
   515                           
   516                           ;'GLCDTEMP = LINEX1
   517   000226  C542 F534          	movff	1346,1332
   518   00022A  C543 F535          	movff	1347,1333
   519                           
   520                           ;'LINEX1 = LINEX2
   521   00022E  C544 F542          	movff	1348,1346
   522   000232  C545 F543          	movff	1349,1347
   523                           
   524                           ;'LINEX2 = GLCDTEMP
   525   000236  C534 F544          	movff	1332,1348
   526   00023A  C535 F545          	movff	1333,1349
   527   00023E                     ENDIF13:
   528                           	callstack 0
   529                           
   530                           ;'IF LINEY1 > LINEY2 THEN
   531   00023E  C546 F509          	movff	1350,1289
   532   000242  C547 F50A          	movff	1351,1290
   533   000246  C548 F505          	movff	1352,1285
   534   00024A  C549 F506          	movff	1353,1286
   535   00024E  EC3A  F00A         	call	SYSCOMPLESSTHAN16
   536   000252  A000               	btfss	1280,0,c
   537   000254  D00C               	bra	ENDIF14
   538                           
   539                           ;'GLCDTEMP = LINEY1
   540   000256  C546 F534          	movff	1350,1332
   541   00025A  C547 F535          	movff	1351,1333
   542                           
   543                           ;'LINEY1 = LINEY2
   544   00025E  C548 F546          	movff	1352,1350
   545   000262  C549 F547          	movff	1353,1351
   546                           
   547                           ;'LINEY2 = GLCDTEMP
   548   000266  C534 F548          	movff	1332,1352
   549   00026A  C535 F549          	movff	1333,1353
   550   00026E                     ENDIF14:
   551                           	callstack 0
   552                           
   553                           ;'DIM DRAWLINE AS WORD
   554                           ;'DRAW LINES GOING ACROSS
   555                           ;'FOR DRAWLINE = LINEX1 TO LINEX2
   556   00026E  C542 F51E          	movff	1346,1310
   557   000272  C543 F51F          	movff	1347,1311
   558   000276                     SYSFORLOOP5:
   559                           	callstack 0
   560                           
   561                           ;'PSET DRAWLINE, LINEY1, LINECOLOUR
   562   000276  C51E F536          	movff	1310,1334
   563   00027A  C546 F537          	movff	1350,1335
   564   00027E  C540 F524          	movff	1344,1316
   565   000282  C541 F525          	movff	1345,1317
   566   000286  ECB8  F007         	call	PSET_SSD1306
   567                           
   568                           ;'PSET DRAWLINE, LINEY2, LINECOLOUR
   569   00028A  C51E F536          	movff	1310,1334
   570   00028E  C548 F537          	movff	1352,1335
   571   000292  C540 F524          	movff	1344,1316
   572   000296  C541 F525          	movff	1345,1317
   573   00029A  ECB8  F007         	call	PSET_SSD1306
   574                           
   575                           ;'NEXT
   576                           ;'POSITIVE VALUE STEP HANDLER IN FOR-NEXT STATEMENT :#4P 
   577   00029E  501E               	movf	1310,w,c
   578   0002A0  5C44               	subwf	1348,w,c
   579   0002A2  0105               	banksel	1390
   580   0002A4  6F6E               	movwf	1390,b
   581   0002A6  501F               	movf	1311,w,c
   582   0002A8  5845               	subwfb	1349,w,c
   583   0002AA  6F6F               	movwf	1391,b
   584   0002AC  C56E F505          	movff	1390,1285
   585   0002B0  C56F F506          	movff	1391,1286
   586   0002B4  6A09               	clrf	1289,c
   587   0002B6  6A0A               	clrf	1290,c
   588   0002B8  0100               	banksel	0
   589   0002BA  EC2C  F00A         	call	SYSCOMPEQUAL16
   590   0002BE  1E00               	comf	1280,f,c
   591   0002C0  A000               	btfss	1280,0,c
   592   0002C2  D004               	bra	ENDIF15
   593                           
   594                           ;'SET LOOPVAR TO LOOPVAR + STEPVALUE WHERE STEPVALUE IS A POSITIVE VALUE
   595   0002C4  2A1E               	incf	1310,f,c
   596   0002C6  B4D8               	btfsc	status,2,c
   597   0002C8  2A1F               	incf	1311,f,c
   598   0002CA  D7D5               	bra	SYSFORLOOP5
   599   0002CC                     ENDIF15:
   600                           	callstack 0
   601   0002CC                     SYSFORLOOPEND5:
   602                           	callstack 0
   603                           
   604                           ;'DRAW LINES GOING DOWN
   605                           ;'FOR DRAWLINE = LINEY1 TO LINEY2
   606   0002CC  C546 F51E          	movff	1350,1310
   607   0002D0  C547 F51F          	movff	1351,1311
   608   0002D4                     SYSFORLOOP6:
   609                           	callstack 0
   610                           
   611                           ;'PSET LINEX1, DRAWLINE, LINECOLOUR
   612   0002D4  C542 F536          	movff	1346,1334
   613   0002D8  C51E F537          	movff	1310,1335
   614   0002DC  C540 F524          	movff	1344,1316
   615   0002E0  C541 F525          	movff	1345,1317
   616   0002E4  ECB8  F007         	call	PSET_SSD1306
   617                           
   618                           ;'PSET LINEX2, DRAWLINE, LINECOLOUR
   619   0002E8  C544 F536          	movff	1348,1334
   620   0002EC  C51E F537          	movff	1310,1335
   621   0002F0  C540 F524          	movff	1344,1316
   622   0002F4  C541 F525          	movff	1345,1317
   623   0002F8  ECB8  F007         	call	PSET_SSD1306
   624                           
   625                           ;'NEXT
   626                           ;'POSITIVE VALUE STEP HANDLER IN FOR-NEXT STATEMENT :#4P 
   627   0002FC  501E               	movf	1310,w,c
   628   0002FE  5C48               	subwf	1352,w,c
   629   000300  0105               	banksel	1390
   630   000302  6F6E               	movwf	1390,b
   631   000304  501F               	movf	1311,w,c
   632   000306  5849               	subwfb	1353,w,c
   633   000308  6F6F               	movwf	1391,b
   634   00030A  C56E F505          	movff	1390,1285
   635   00030E  C56F F506          	movff	1391,1286
   636   000312  6A09               	clrf	1289,c
   637   000314  6A0A               	clrf	1290,c
   638   000316  0100               	banksel	0
   639   000318  EC2C  F00A         	call	SYSCOMPEQUAL16
   640   00031C  1E00               	comf	1280,f,c
   641   00031E  A000               	btfss	1280,0,c
   642   000320  D004               	bra	ENDIF16
   643                           
   644                           ;'SET LOOPVAR TO LOOPVAR + STEPVALUE WHERE STEPVALUE IS A POSITIVE VALUE
   645   000322  2A1E               	incf	1310,f,c
   646   000324  B4D8               	btfsc	status,2,c
   647   000326  2A1F               	incf	1311,f,c
   648   000328  D7D5               	bra	SYSFORLOOP6
   649   00032A                     ENDIF16:
   650                           	callstack 0
   651   00032A                     SYSFORLOOPEND6:
   652                           	callstack 0
   653   00032A  0012               	return	
   654   00032C                     CURSOR_POSITION_SSD1306:
   655                           	callstack 0
   656                           
   657                           ;'DIM POSCHARX, POSCHARX AS WORD
   658                           ;'POSCHARY = LOCY / 8
   659                           ;'FASTER THAN /8
   660                           ;'POSCHARY = LOCY
   661   00032C  C54B F550          	movff	1355,1360
   662                           
   663                           ;'REPEAT 3
   664   000330  0E03               	movlw	3
   665   000332  0105               	banksel	1387
   666   000334  6F6B               	movwf	1387,b
   667   000336                     SYSREPEATLOOP9:
   668                           	callstack 0
   669                           
   670                           ;'SET C OFF
   671   000336  90D8               	bcf	status,0,c
   672                           
   673                           ;'ROTATE POSCHARY RIGHT
   674   000338  3250               	rrcf	1360,f,c
   675                           
   676                           ;'END REPEAT
   677   00033A  2F6B               	decfsz	1387,f,b
   678   00033C  D7FC               	bra	SYSREPEATLOOP9
   679   00033E                     SYSREPEATLOOPEND9:
   680                           	callstack 0
   681                           
   682                           ;'WRITE_COMMAND_SSD1306( 0XB0 + POSCHARY )   ' SET PAGE ADDRESS
   683   00033E  0EB0               	movlw	176
   684   000340  2450               	addwf	1360,w,c
   685   000342  6E5B               	movwf	1371,c
   686   000344  0100               	banksel	0
   687   000346  EC84  F00A         	call	WRITE_COMMAND_SSD1306
   688                           
   689                           ;'POSCHARX = ( LOCX  & 0X0F )  ' LOWER NIBBLE
   690   00034A  0E0F               	movlw	15
   691   00034C  144A               	andwf	1354,w,c
   692   00034E  6E4E               	movwf	1358,c
   693   000350  6A4F               	clrf	1359,c
   694                           
   695                           ;'WRITE_COMMAND_SSD1306( POSCHARX )
   696   000352  C54E F55B          	movff	1358,1371
   697   000356  EC84  F00A         	call	WRITE_COMMAND_SSD1306
   698                           
   699                           ;'POSCHARX = LOCX
   700   00035A  C54A F54E          	movff	1354,1358
   701   00035E  6A4F               	clrf	1359,c
   702                           
   703                           ;'REPEAT 4
   704   000360  0E04               	movlw	4
   705   000362  0105               	banksel	1387
   706   000364  6F6B               	movwf	1387,b
   707   000366                     SYSREPEATLOOP10:
   708                           	callstack 0
   709                           
   710                           ;'SET C OFF
   711   000366  90D8               	bcf	status,0,c
   712                           
   713                           ;'ROTATE POSCHARX RIGHT
   714   000368  324F               	rrcf	1359,f,c
   715   00036A  324E               	rrcf	1358,f,c
   716                           
   717                           ;'END REPEAT
   718   00036C  2F6B               	decfsz	1387,f,b
   719   00036E  D7FB               	bra	SYSREPEATLOOP10
   720   000370                     SYSREPEATLOOPEND10:
   721                           	callstack 0
   722                           
   723                           ;'POSCHARX = ( POSCHARX & 0X0F ) + 0X10
   724   000370  0E0F               	movlw	15
   725   000372  144E               	andwf	1358,w,c
   726   000374  6F6C               	movwf	1388,b
   727   000376  6B6D               	clrf	1389,b
   728   000378  0E10               	movlw	16
   729   00037A  256C               	addwf	1388,w,b
   730   00037C  6E4E               	movwf	1358,c
   731   00037E  0E00               	movlw	0
   732   000380  216D               	addwfc	1389,w,b
   733   000382  6E4F               	movwf	1359,c
   734                           
   735                           ;'WRITE_COMMAND_SSD1306 ( POSCHARX )
   736   000384  C54E F55B          	movff	1358,1371
   737   000388  0100               	banksel	0
   738   00038A  EF84  F00A         	goto	WRITE_COMMAND_SSD1306
   739   00038E                     DELAY_MS:
   740                           	callstack 0
   741   00038E  2A03               	incf	1283,f,c
   742   000390                     DMS_START:
   743                           	callstack 0
   744   000390  0E81               	movlw	129
   745   000392  6E01               	movwf	1281,c
   746   000394                     DMS_OUTER:
   747                           	callstack 0
   748   000394  0E28               	movlw	40
   749   000396  6E00               	movwf	1280,c
   750   000398                     DMS_INNER:
   751                           	callstack 0
   752   000398  2E00               	decfsz	1280,f,c
   753   00039A  D7FE               	bra	DMS_INNER
   754   00039C  2E01               	decfsz	1281,f,c
   755   00039E  D7FA               	bra	DMS_OUTER
   756   0003A0  2E02               	decfsz	1282,f,c
   757   0003A2  D7F6               	bra	DMS_START
   758   0003A4  2E03               	decfsz	1283,f,c
   759   0003A6  D7F4               	bra	DMS_START
   760   0003A8  0012               	return	
   761   0003AA                     DELAY_S:
   762                           	callstack 0
   763   0003AA                     DS_START:
   764                           	callstack 0
   765   0003AA  0EE8               	movlw	232
   766   0003AC  6E02               	movwf	1282,c
   767   0003AE  0E03               	movlw	3
   768   0003B0  6E03               	movwf	1283,c
   769   0003B2  DFED               	rcall	DELAY_MS
   770   0003B4  2E04               	decfsz	1284,f,c
   771   0003B6  D7F9               	bra	DS_START
   772   0003B8  0012               	return	
   773   0003BA                     GLCDCHARCOL3:
   774                           	callstack 0
   775   0003BA  0E71               	movlw	113
   776   0003BC  6007               	cpfslt	1287,c
   777   0003BE  0C00               	retlw	0
   778   0003C0  5007               	movf	1287,w,c
   779   0003C2  0FDC               	addlw	low TABLEGLCDCHARCOL3
   780   0003C4  6EF6               	movwf	tblptrl,c
   781   0003C6  0E03               	movlw	high TABLEGLCDCHARCOL3
   782   0003C8  B0D8               	btfsc	status,0,c
   783   0003CA  0F01               	addlw	1
   784   0003CC  6EF7               	movwf	tblptrh,c
   785   0003CE  0E00               	movlw	low (TABLEGLCDCHARCOL3 shr (0+16))
   786   0003D0  B0D8               	btfsc	status,0,c
   787   0003D2  0F01               	addlw	1
   788   0003D4  6EF8               	movwf	tblptru,c
   789   0003D6  0008               	tblrd		*
   790   0003D8  50F5               	movf	tablat,w,c
   791   0003DA  0012               	return	
   792   0003DC                     TABLEGLCDCHARCOL3:
   793                           	callstack 0
   794   0003DC  70 00 10 0C 0A 88 22 38 20 08 20 10 10 80 80 40 04 00 00 00 28 48 46 6C 00 00 00 28 	db	112,0,16,12,10,136,34,56,32,8,32,16,16,128,128,64,4,0,0,0,40,72,70,108,0,0,0,40
   795   0003F8  10 00 10 00 40 7C 00 84 82 30 4E 78 06 6C 0C 00 00 10 28 00 04 64 F8 FE 7C FE 	db	16,0,16,0,64,124,0,132,130,48,78,120,6,108,12,0,0,16,40,0,4,100,248,254,124,254
   796   000412  FE FE 7C FE 00 40 FE FE FE FE 7C FE 7C FE 4C 02 7E 3E 7E C6 0E C2 	db	254,254,124,254,0,64,254,254,254,254,124,254,124,254,76,2,126,62,126,198,14,194
   797   000428  00 04 00 08 80 00 40 FE 70 70 70 10 10 FE 00 40 FE 00 F8 F8 70 F8 10 F8 	db	0,4,0,8,128,0,64,254,112,112,112,16,16,254,0,64,254,0,248,248,112,248,16,248
   798   000440  90 10 78 38 78 88 18 88 00 00 00 20 78 	db	144,16,120,56,120,136,24,136,0,0,0,32,120
   799   00044D  00                 	align	2	;X4
   800   00044E                     GLCDCHARCOL4:
   801                           	callstack 0
   802   00044E  0E71               	movlw	113
   803   000450  6007               	cpfslt	1287,c
   804   000452  0C00               	retlw	0
   805   000454  5007               	movf	1287,w,c
   806   000456  0F70               	addlw	low TABLEGLCDCHARCOL4
   807   000458  6EF6               	movwf	tblptrl,c
   808   00045A  0E04               	movlw	high TABLEGLCDCHARCOL4
   809   00045C  B0D8               	btfsc	status,0,c
   810   00045E  0F01               	addlw	1
   811   000460  6EF7               	movwf	tblptrh,c
   812   000462  0E00               	movlw	low (TABLEGLCDCHARCOL4 shr (0+16))
   813   000464  B0D8               	btfsc	status,0,c
   814   000466  0F01               	addlw	1
   815   000468  6EF8               	movwf	tblptru,c
   816   00046A  0008               	tblrd		*
   817   00046C  50F5               	movf	tablat,w,c
   818   00046E  0012               	return	
   819   000470                     TABLEGLCDCHARCOL4:
   820                           	callstack 0
   821   000470  70 FE 38 0A 06 CC 66 7C 70 04 40 10 38 88 A2 70 1C 00 00 0E FE 54 26 92 	db	112,254,56,10,6,204,102,124,112,4,64,16,56,136,162,112,28,0,0,14,254,84,38,146
   822   000488  0A 38 82 10 10 A0 10 C0 20 A2 84 C2 82 28 8A 94 02 92 92 6C AC 28 	db	10,56,130,16,16,160,16,192,32,162,132,194,130,40,138,148,2,146,146,108,172,40
   823   00049E  28 82 02 92 24 92 82 82 92 12 82 10 82 80 10 80 04 08 82 12 82 12 92 02 	db	40,130,2,146,36,146,130,130,146,18,130,16,130,128,16,128,4,8,130,18,130,18,146,2
   824   0004B6  80 40 80 28 10 A2 FE 08 82 04 80 02 A8 90 88 88 A8 FC A8 10 90 80 	db	128,64,128,40,16,162,254,8,130,4,128,2,168,144,136,136,168,252,168,16,144,128
   825   0004CC  20 82 08 10 88 28 28 10 A8 7C 80 40 80 50 A0 C8 10 00 82 10 44 	db	32,130,8,16,136,40,40,16,168,124,128,64,128,80,160,200,16,0,130,16,68
   826   0004E1  00                 	align	2	;X4
   827   0004E2                     GLCDCHARCOL5:
   828                           	callstack 0
   829   0004E2  0E71               	movlw	113
   830   0004E4  6007               	cpfslt	1287,c
   831   0004E6  0C00               	retlw	0
   832   0004E8  5007               	movf	1287,w,c
   833   0004EA  0F04               	addlw	low TABLEGLCDCHARCOL5
   834   0004EC  6EF6               	movwf	tblptrl,c
   835   0004EE  0E05               	movlw	high TABLEGLCDCHARCOL5
   836   0004F0  B0D8               	btfsc	status,0,c
   837   0004F2  0F01               	addlw	1
   838   0004F4  6EF7               	movwf	tblptrh,c
   839   0004F6  0E00               	movlw	low (TABLEGLCDCHARCOL5 shr (0+16))
   840   0004F8  B0D8               	btfsc	status,0,c
   841   0004FA  0F01               	addlw	1
   842   0004FC  6EF8               	movwf	tblptru,c
   843   0004FE  0008               	tblrd		*
   844   000500  50F5               	movf	tablat,w,c
   845   000502  0012               	return	
   846   000504                     TABLEGLCDCHARCOL5:
   847                           	callstack 0
   848   000504  70 7C 7C 00 00 EE EE 7C A8 FE FE 54 54 94 94 7C 7C 00 9E 00 28 FE 10 AA 	db	112,124,124,0,0,238,238,124,168,254,254,84,84,148,148,124,124,0,158,0,40,254,16,170
   849   00051C  06 44 44 7C 7C 60 10 C0 10 92 FE A2 8A 24 8A 92 E2 92 92 6C 6C 44 	db	6,68,68,124,124,96,16,192,16,146,254,162,138,36,138,146,226,146,146,108,108,68
   850   000532  28 44 A2 F2 22 92 82 82 92 12 92 10 FE 82 28 80 18 10 82 12 A2 32 	db	40,68,162,242,34,146,130,130,146,18,146,16,254,130,40,128,24,16,130,18,162,50
   851   000548  92 FE 80 80 70 10 E0 92 82 10 82 02 80 04 A8 88 88 88 A8 12 A8 08 	db	146,254,128,128,112,16,224,146,130,16,130,2,128,4,168,136,136,136,168,18,168,8
   852   00055E  FA 88 50 FE F0 08 88 28 28 08 A8 90 80 80 60 20 A0 A8 6C FE 6C 10 	db	250,136,80,254,240,8,136,40,40,8,168,144,128,128,96,32,160,168,108,254,108,16
   853   000574  42                 	db	66
   854   000575  00                 	align	2	;X4
   855   000576                     GLCDCHARCOL6:
   856                           	callstack 0
   857   000576  0E71               	movlw	113
   858   000578  6007               	cpfslt	1287,c
   859   00057A  0C00               	retlw	0
   860   00057C  5007               	movf	1287,w,c
   861   00057E  0F98               	addlw	low TABLEGLCDCHARCOL6
   862   000580  6EF6               	movwf	tblptrl,c
   863   000582  0E05               	movlw	high TABLEGLCDCHARCOL6
   864   000584  B0D8               	btfsc	status,0,c
   865   000586  0F01               	addlw	1
   866   000588  6EF7               	movwf	tblptrh,c
   867   00058A  0E00               	movlw	low (TABLEGLCDCHARCOL6 shr (0+16))
   868   00058C  B0D8               	btfsc	status,0,c
   869   00058E  0F01               	addlw	1
   870   000590  6EF8               	movwf	tblptru,c
   871   000592  0008               	tblrd		*
   872   000594  50F5               	movf	tablat,w,c
   873   000596  0012               	return	
   874   000598                     TABLEGLCDCHARCOL6:
   875                           	callstack 0
   876   000598  70 38 FE 0C 0A CC 66 7C 20 04 40 38 10 A2 88 70 1C 00 00 0E FE 54 C8 44 	db	112,56,254,12,10,204,102,124,32,4,64,56,16,162,136,112,28,0,0,14,254,84,200,68
   877   0005B0  00 82 38 10 10 00 10 00 08 8A 80 92 96 FE 8A 92 12 92 52 00 00 82 28 28 12 82 	db	0,130,56,16,16,0,16,0,8,138,128,146,150,254,138,146,18,146,82,0,0,130,40,40,18,130
   878   0005CA  24 92 82 44 92 12 92 10 82 7E 44 80 04 20 82 12 42 52 92 02 80 40 80 28 	db	36,146,130,68,146,18,146,16,130,126,68,128,4,32,130,18,66,82,146,2,128,64,128,40
   879   0005E2  10 8A 82 20 FE 04 80 08 A8 88 88 90 A8 02 A8 08 80 7A 88 80 08 08 88 28 	db	16,138,130,32,254,4,128,8,168,136,136,144,168,2,168,8,128,122,136,128,8,8,136,40
   880   0005FA  30 08 A8 80 40 40 80 50 A0 98 82 00 10 20 44 	db	48,8,168,128,64,64,128,80,160,152,130,0,16,32,68
   881   000609  00                 	align	2	;X4
   882   00060A                     GLCDCHARCOL7:
   883                           	callstack 0
   884   00060A  0E71               	movlw	113
   885   00060C  6007               	cpfslt	1287,c
   886   00060E  0C00               	retlw	0
   887   000610  5007               	movf	1287,w,c
   888   000612  0F2C               	addlw	low TABLEGLCDCHARCOL7
   889   000614  6EF6               	movwf	tblptrl,c
   890   000616  0E06               	movlw	high TABLEGLCDCHARCOL7
   891   000618  B0D8               	btfsc	status,0,c
   892   00061A  0F01               	addlw	1
   893   00061C  6EF7               	movwf	tblptrh,c
   894   00061E  0E00               	movlw	low (TABLEGLCDCHARCOL7 shr (0+16))
   895   000620  B0D8               	btfsc	status,0,c
   896   000622  0F01               	addlw	1
   897   000624  6EF8               	movwf	tblptru,c
   898   000626  0008               	tblrd		*
   899   000628  50F5               	movf	tablat,w,c
   900   00062A  0012               	return	
   901   00062C                     TABLEGLCDCHARCOL7:
   902                           	callstack 0
   903   00062C  70 10 00 0A 06 88 22 38 3E 08 20 10 10 80 80 40 04 00 00 00 28 24 C4 A0 00 00 00 28 	db	112,16,0,10,6,136,34,56,62,8,32,16,16,128,128,64,4,0,0,0,40,36,196,160,0,0,0,40
   904   000648  10 00 10 00 04 7C 00 8C 62 20 72 60 0E 6C 3C 00 00 00 28 10 0C 7C F8 6C 44 38 	db	16,0,16,0,4,124,0,140,98,32,114,96,14,108,60,0,0,0,40,16,12,124,248,108,68,56
   905   000662  82 02 F4 FE 00 02 82 80 FE FE 7C 0C BC 8C 64 02 7E 3E 7E C6 0E 86 00 40 	db	130,2,244,254,0,2,130,128,254,254,124,12,188,140,100,2,126,62,126,198,14,134,0,64
   906   00067A  00 08 80 00 F0 70 40 FE 30 04 78 F0 00 00 00 00 F0 F0 70 10 F8 10 40 40 F8 38 	db	0,8,128,0,240,112,64,254,48,4,120,240,0,0,0,0,240,240,112,16,248,16,64,64,248,56
   907   000694  78 88 78 88 00 00 00 10 78 	db	120,136,120,136,0,0,0,16,120
   908   00069D  00                 	align	2	;X4
   909   00069E                     GLCDCLS_SSD1306:
   910                           	callstack 0
   911                           
   912                           ;'INITIALISE GLOBAL VARIABLE. REQUIRED VARIABLE FOR CIRCLE IN ALL DEVICE DRIVERS- DO NOT DELETE
   913                           ;'GLCD_YORDINATE = 0
   914   00069E  6A38               	clrf	1336,c
   915   0006A0  6A39               	clrf	1337,c
   916                           
   917                           ;'FOR SSD1306_BUFFERLOCATIONCALC = 1 TO GLCD_HEIGHT * GLCD_WIDTH / 8
   918   0006A2  0E01               	movlw	1
   919   0006A4  6E5C               	movwf	1372,c
   920   0006A6  6A5D               	clrf	1373,c
   921   0006A8                     SYSFORLOOP7:
   922                           	callstack 0
   923                           
   924                           ;'SSD1306_BUFFERALIAS(SSD1306_BUFFERLOCATIONCALC) = 0
   925   0006A8  EE04 F0FF          	lfsr	0,4351
   926   0006AC  505C               	movf	1372,w,c
   927   0006AE  26E9               	addwf	fsr0l,f,c
   928   0006B0  505D               	movf	1373,w,c
   929   0006B2  22EA               	addwfc	fsr0h,f,c
   930   0006B4  6AEF               	clrf	indf0,c
   931                           
   932                           ;'NEXT
   933                           ;'POSITIVE VALUE STEP HANDLER IN FOR-NEXT STATEMENT :#4P 
   934   0006B6  505C               	movf	1372,w,c
   935   0006B8  0800               	sublw	0
   936   0006BA  0105               	banksel	1388
   937   0006BC  6F6C               	movwf	1388,b
   938   0006BE  0E04               	movlw	4
   939   0006C0  6F6E               	movwf	1390,b
   940   0006C2  505D               	movf	1373,w,c
   941   0006C4  596E               	subwfb	1390,w,b
   942   0006C6  6F6D               	movwf	1389,b
   943   0006C8  C56C F505          	movff	1388,1285
   944   0006CC  C56D F506          	movff	1389,1286
   945   0006D0  6A09               	clrf	1289,c
   946   0006D2  6A0A               	clrf	1290,c
   947   0006D4  0100               	banksel	0
   948   0006D6  EC2C  F00A         	call	SYSCOMPEQUAL16
   949   0006DA  1E00               	comf	1280,f,c
   950   0006DC  A000               	btfss	1280,0,c
   951   0006DE  D004               	bra	ENDIF34
   952                           
   953                           ;'SET LOOPVAR TO LOOPVAR + STEPVALUE WHERE STEPVALUE IS A POSITIVE VALUE
   954   0006E0  2A5C               	incf	1372,f,c
   955   0006E2  B4D8               	btfsc	status,2,c
   956   0006E4  2A5D               	incf	1373,f,c
   957   0006E6  D7E0               	bra	SYSFORLOOP7
   958   0006E8                     ENDIF34:
   959                           	callstack 0
   960   0006E8                     SYSFORLOOPEND7:
   961                           	callstack 0
   962                           
   963                           ;'1.14 CHANGED TO TRANSACTION
   964                           ;'FOR SSD1306_BUFFERLOCATIONCALC = 0 TO GLCD_HEIGHT-1 STEP 8
   965   0006E8  6A5C               	clrf	1372,c
   966   0006EA  6A5D               	clrf	1373,c
   967   0006EC                     SYSFORLOOP8:
   968                           	callstack 0
   969                           
   970                           ;'INIT SYSFORLOOPSTEP7 :#0
   971   0006EC  0E08               	movlw	8
   972   0006EE  0105               	banksel	1380
   973   0006F0  6F64               	movwf	1380,b
   974   0006F2  6B65               	clrf	1381,b
   975                           
   976                           ;'CURSOR_POSITION_SSD1306 ( 0 , SSD1306_BUFFERLOCATIONCALC )
   977   0006F4  6A4A               	clrf	1354,c
   978   0006F6  C55C F54B          	movff	1372,1355
   979   0006FA  0100               	banksel	0
   980   0006FC  DE17               	rcall	CURSOR_POSITION_SSD1306
   981                           
   982                           ;'OPEN_TRANSACTION_SSD1306
   983                           ;'MACRO SOURCE: GLCD_SSD1306.H (1241)
   984                           ;'4WIRE NOT SUPPORTED, SEE WRITE_TRANSACTION_DATA_SSD1306
   985                           ;'HI2CSTART
   986   0006FE  ECF6  F008         	call	SI2CSTART
   987                           
   988                           ;'HI2CSEND GLCD_I2C_ADDRESS
   989   000702  0E78               	movlw	120
   990   000704  6E3F               	movwf	1343,c
   991   000706  EC7C  F008         	call	SI2CSEND
   992                           
   993                           ;'HI2CSEND 0X40
   994   00070A  0E40               	movlw	64
   995   00070C  6E3F               	movwf	1343,c
   996   00070E  EC7C  F008         	call	SI2CSEND
   997                           
   998                           ;'FOR GLCDTEMP = 0 TO 127
   999                           ;'LEGACY METHOD
  1000   000712  6834               	setf	1332,c
  1001   000714                     SYSFORLOOP9:
  1002                           	callstack 0
  1003   000714  2A34               	incf	1332,f,c
  1004                           
  1005                           ;'WRITE_TRANSACTION_DATA_SSD1306(GLCDBACKGROUND)
  1006                           ;'MACRO SOURCE: GLCD_SSD1306.H (1272)
  1007                           ;'HI2CSEND SSD1306SENDBYTE
  1008   000716  C520 F53F          	movff	1312,1343
  1009   00071A  EC7C  F008         	call	SI2CSEND
  1010                           
  1011                           ;'NEXT
  1012   00071E  0E7F               	movlw	127
  1013   000720  5C34               	subwf	1332,w,c
  1014   000722  A0D8               	btfss	status,0,c
  1015   000724  D7F7               	bra	SYSFORLOOP9
  1016   000726                     SYSFORLOOPEND9:
  1017                           	callstack 0
  1018                           
  1019                           ;'CLOSE_TRANSACTION_SSD1306
  1020                           ;'MACRO SOURCE: GLCD_SSD1306.H (1305)
  1021                           ;'4WIRE NOT SUPPORTED, SEE WRITE_TRANSACTION_DATA_SSD1306
  1022                           ;'HI2CSTOP
  1023   000726  ECFB  F008         	call	SI2CSTOP
  1024                           
  1025                           ;'NEXT
  1026                           ;'INTEGER NEGATIVE STEP HANDLER IN FOR-NEXT STATEMENT
  1027   00072A  0105               	banksel	1381
  1028   00072C  AF65               	btfss	1381,7,b
  1029   00072E  D028               	bra	ELSE36_1
  1030                           
  1031                           ;'SET SYSFORLOOPABSVALUE TO -STEPVALUE :#1 
  1032   000730  1D64               	comf	1380,w,b
  1033   000732  6F62               	movwf	1378,b
  1034   000734  1D65               	comf	1381,w,b
  1035   000736  6F63               	movwf	1379,b
  1036   000738  2B62               	incf	1378,f,b
  1037   00073A  B4D8               	btfsc	status,2,c
  1038   00073C  2B63               	incf	1379,f,b
  1039                           
  1040                           ;'IF ( SSD1306_BUFFERLOCATIONCALC - 64-1) } [WORD]SYSFORLOOPABSVALUE8 THEN  :#1N 
  1041   00073E  0E40               	movlw	64
  1042   000740  5C5C               	subwf	1372,w,c
  1043   000742  6F6C               	movwf	1388,b
  1044   000744  0E00               	movlw	0
  1045   000746  585D               	subwfb	1373,w,c
  1046   000748  6F6D               	movwf	1389,b
  1047   00074A  0E01               	movlw	1
  1048   00074C  5D6C               	subwf	1388,w,b
  1049   00074E  6F6E               	movwf	1390,b
  1050   000750  0E00               	movlw	0
  1051   000752  596D               	subwfb	1389,w,b
  1052   000754  6F6F               	movwf	1391,b
  1053   000756  C56E F505          	movff	1390,1285
  1054   00075A  C56F F506          	movff	1391,1286
  1055   00075E  C562 F509          	movff	1378,1289
  1056   000762  C563 F50A          	movff	1379,1290
  1057   000766  0100               	banksel	0
  1058   000768  EC3A  F00A         	call	SYSCOMPLESSTHAN16
  1059   00076C  1E00               	comf	1280,f,c
  1060   00076E  A000               	btfss	1280,0,c
  1061   000770  D006               	bra	ENDIF37
  1062                           
  1063                           ;'SET LOOPVAR TO LOOPVAR + STEPVALUE WHERE STEPVALUE IS A NEGATIVE VALUE
  1064   000772  0105               	banksel	1380
  1065   000774  5164               	movf	1380,w,b
  1066   000776  265C               	addwf	1372,f,c
  1067   000778  5165               	movf	1381,w,b
  1068   00077A  225D               	addwfc	1373,f,c
  1069   00077C  D7B7               	bra	SYSFORLOOP8
  1070   00077E                     ENDIF37:
  1071                           	callstack 0
  1072   00077E  D01B               	bra	ENDIF36
  1073   000780                     ELSE36_1:
  1074                           	callstack 0
  1075                           
  1076                           ;'INTEGER POSITIVE STEP HANDLER IN FOR-NEXT STATEMENT
  1077                           ;'IF ([WORD]64-1 - [WORD]SSD1306_BUFFERLOCATIONCALC) } [WORD]SYSFORLOOPSTEP7 THEN :#1P 
  1078   000780  505C               	movf	1372,w,c
  1079   000782  083F               	sublw	63
  1080   000784  6F6C               	movwf	1388,b
  1081   000786  6B70               	clrf	1392,b
  1082   000788  505D               	movf	1373,w,c
  1083   00078A  5970               	subwfb	1392,w,b
  1084   00078C  6F6D               	movwf	1389,b
  1085   00078E  C56C F505          	movff	1388,1285
  1086   000792  C56D F506          	movff	1389,1286
  1087   000796  C564 F509          	movff	1380,1289
  1088   00079A  C565 F50A          	movff	1381,1290
  1089   00079E  0100               	banksel	0
  1090   0007A0  EC3A  F00A         	call	SYSCOMPLESSTHAN16
  1091   0007A4  1E00               	comf	1280,f,c
  1092   0007A6  A000               	btfss	1280,0,c
  1093   0007A8  D006               	bra	ENDIF38
  1094                           
  1095                           ;'SET LOOPVAR TO LOOPVAR + STEPVALUE WHERE STEPVALUE IS A POSITIVE VALUE
  1096   0007AA  0105               	banksel	1380
  1097   0007AC  5164               	movf	1380,w,b
  1098   0007AE  265C               	addwf	1372,f,c
  1099   0007B0  5165               	movf	1381,w,b
  1100   0007B2  225D               	addwfc	1373,f,c
  1101   0007B4  D79B               	bra	SYSFORLOOP8
  1102   0007B6                     ENDIF38:
  1103                           	callstack 0
  1104   0007B6                     ENDIF36:
  1105                           	callstack 0
  1106   0007B6                     SYSFORLOOPEND8:
  1107                           	callstack 0
  1108                           
  1109                           ;'REMOVED AT 1.14. RETAINED FOR DOCUMENTATION ONLY
  1110                           ;'CURSOR_POSITION_SSD1306 ( 0 , 0 )
  1111                           ;'FOR SSD1306_BUFFERLOCATIONCALC = 0 TO GLCD_HEIGHT-1 STEP 8
  1112                           ;'FOR GLCDTEMP = 0 TO 127
  1113                           ;'WRITE_DATA_SSD1306(GLCDBACKGROUND)
  1114                           ;'NEXT
  1115                           ;'NEXT
  1116                           ;'CURSOR_POSITION_SSD1306 ( 0 , 0 )
  1117   0007B6  6A4A               	clrf	1354,c
  1118   0007B8  6A4B               	clrf	1355,c
  1119   0007BA  DDB8               	rcall	CURSOR_POSITION_SSD1306
  1120                           
  1121                           ;'PRINTLOCX =0
  1122   0007BC  6A51               	clrf	1361,c
  1123                           
  1124                           ;'PRINTLOCY =0
  1125   0007BE  6A53               	clrf	1363,c
  1126   0007C0  0012               	return	
  1127   0007C2                     GLCDDRAWCHAR_SSD1306:
  1128                           	callstack 0
  1129                           
  1130                           ;'THIS IS NOW IN FOUR PARTS
  1131                           ;'1. HANDLER FOR GLCD LM MODE
  1132                           ;'2. PREAMBLE
  1133                           ;'3. GCB FONT SET HANDLER
  1134                           ;'4. OLED FONT SET HANDLER
  1135                           ;'***** HANDLER FOR GLCD LM MODE
  1136                           ;'****** PREAMBLE
  1137                           ;'INVERT COLORS IF REQUIRED
  1138                           ;'IF LINECOLOUR <> GLCDFOREGROUND  THEN
  1139   0007C2  C540 F505          	movff	1344,1285
  1140   0007C6  C541 F506          	movff	1345,1286
  1141   0007CA  C52B F509          	movff	1323,1289
  1142   0007CE  C52C F50A          	movff	1324,1290
  1143   0007D2  EC2C  F00A         	call	SYSCOMPEQUAL16
  1144   0007D6  1E00               	comf	1280,f,c
  1145   0007D8  A000               	btfss	1280,0,c
  1146   0007DA  D005               	bra	ENDIF39
  1147                           
  1148                           ;'INVERTED COLOURS
  1149                           ;'GLCDBACKGROUND = 1
  1150   0007DC  0E01               	movlw	1
  1151   0007DE  6E20               	movwf	1312,c
  1152   0007E0  6A21               	clrf	1313,c
  1153                           
  1154                           ;'GLCDFOREGROUND = 0
  1155   0007E2  6A2B               	clrf	1323,c
  1156   0007E4  6A2C               	clrf	1324,c
  1157   0007E6                     ENDIF39:
  1158                           	callstack 0
  1159                           
  1160                           ;'DIM CHARCOL, CHARROW AS WORD
  1161                           ;'CHARCODE -= 15
  1162   0007E6  0E0F               	movlw	15
  1163   0007E8  5E0B               	subwf	1291,f,c
  1164                           
  1165                           ;'CHARCOL=0
  1166   0007EA  6A0C               	clrf	1292,c
  1167   0007EC  6A0D               	clrf	1293,c
  1168                           
  1169                           ;'CURSOR_POSITION_SSD1306 ( CHARLOCX , CHARLOCY )
  1170   0007EE  C50F F54A          	movff	1295,1354
  1171   0007F2  C511 F54B          	movff	1297,1355
  1172   0007F6  DD9A               	rcall	CURSOR_POSITION_SSD1306
  1173                           
  1174                           ;'1.14 ADDED TRANSACTION
  1175                           ;'****** GCB FONT SET HANDLER
  1176                           ;'IF CHARCODE>=178 AND CHARCODE<=202 THEN
  1177   0007F8  C50B F505          	movff	1291,1285
  1178   0007FC  0EB2               	movlw	178
  1179   0007FE  6E09               	movwf	1289,c
  1180   000800  EC35  F00A         	call	SYSCOMPLESSTHAN
  1181   000804  1E00               	comf	1280,f,c
  1182   000806  C500 F570          	movff	1280,1392
  1183   00080A  C50B F509          	movff	1291,1289
  1184   00080E  0ECA               	movlw	202
  1185   000810  6E05               	movwf	1285,c
  1186   000812  EC35  F00A         	call	SYSCOMPLESSTHAN
  1187   000816  1E00               	comf	1280,f,c
  1188   000818  0105               	banksel	1392
  1189   00081A  5170               	movf	1392,w,b
  1190   00081C  1400               	andwf	1280,w,c
  1191   00081E  6F6C               	movwf	1388,b
  1192   000820  A16C               	btfss	1388,0,b
  1193   000822  D004               	bra	ENDIF40
  1194                           
  1195                           ;'CHARLOCY=CHARLOCY-1
  1196   000824  0E01               	movlw	1
  1197   000826  5E11               	subwf	1297,f,c
  1198   000828  0E00               	movlw	0
  1199   00082A  5A12               	subwfb	1298,f,c
  1200   00082C                     ENDIF40:
  1201                           	callstack 0
  1202                           
  1203                           ;'FOR CURRCHARCOL = 1 TO 5
  1204                           ;'LEGACY METHOD
  1205   00082C  6A17               	clrf	1303,c
  1206   00082E                     SYSFORLOOP10:
  1207                           	callstack 0
  1208   00082E  2A17               	incf	1303,f,c
  1209   000830                     SYSSELECT5CASE1:
  1210                           	callstack 0
  1211   000830  0417               	decf	1303,w,c
  1212   000832  A4D8               	btfss	status,2,c
  1213   000834  D006               	bra	SYSSELECT5CASE2
  1214                           
  1215                           ;'CASE 1: READTABLE GLCDCHARCOL3, CHARCODE, CURRCHARVAL
  1216   000836  C50B F507          	movff	1291,1287
  1217   00083A  0100               	banksel	0
  1218   00083C  DDBE               	rcall	GLCDCHARCOL3
  1219   00083E  6E19               	movwf	1305,c
  1220                           
  1221                           ;'CASE 2: READTABLE GLCDCHARCOL4, CHARCODE, CURRCHARVAL
  1222   000840  D027               	bra	SYSSELECTEND5
  1223   000842                     SYSSELECT5CASE2:
  1224                           	callstack 0
  1225   000842  0E02               	movlw	2
  1226   000844  5C17               	subwf	1303,w,c
  1227   000846  A4D8               	btfss	status,2,c
  1228   000848  D006               	bra	SYSSELECT5CASE3
  1229                           
  1230                           ;'CASE 2: READTABLE GLCDCHARCOL4, CHARCODE, CURRCHARVAL
  1231   00084A  C50B F507          	movff	1291,1287
  1232   00084E  0100               	banksel	0
  1233   000850  DDFE               	rcall	GLCDCHARCOL4
  1234   000852  6E19               	movwf	1305,c
  1235                           
  1236                           ;'CASE 3: READTABLE GLCDCHARCOL5, CHARCODE, CURRCHARVAL
  1237   000854  D01D               	bra	SYSSELECTEND5
  1238   000856                     SYSSELECT5CASE3:
  1239                           	callstack 0
  1240   000856  0E03               	movlw	3
  1241   000858  5C17               	subwf	1303,w,c
  1242   00085A  A4D8               	btfss	status,2,c
  1243   00085C  D006               	bra	SYSSELECT5CASE4
  1244                           
  1245                           ;'CASE 3: READTABLE GLCDCHARCOL5, CHARCODE, CURRCHARVAL
  1246   00085E  C50B F507          	movff	1291,1287
  1247   000862  0100               	banksel	0
  1248   000864  DE3E               	rcall	GLCDCHARCOL5
  1249   000866  6E19               	movwf	1305,c
  1250                           
  1251                           ;'CASE 4: READTABLE GLCDCHARCOL6, CHARCODE, CURRCHARVAL
  1252   000868  D013               	bra	SYSSELECTEND5
  1253   00086A                     SYSSELECT5CASE4:
  1254                           	callstack 0
  1255   00086A  0E04               	movlw	4
  1256   00086C  5C17               	subwf	1303,w,c
  1257   00086E  A4D8               	btfss	status,2,c
  1258   000870  D006               	bra	SYSSELECT5CASE5
  1259                           
  1260                           ;'CASE 4: READTABLE GLCDCHARCOL6, CHARCODE, CURRCHARVAL
  1261   000872  C50B F507          	movff	1291,1287
  1262   000876  0100               	banksel	0
  1263   000878  DE7E               	rcall	GLCDCHARCOL6
  1264   00087A  6E19               	movwf	1305,c
  1265                           
  1266                           ;'CASE 5: READTABLE GLCDCHARCOL7, CHARCODE, CURRCHARVAL
  1267   00087C  D009               	bra	SYSSELECTEND5
  1268   00087E                     SYSSELECT5CASE5:
  1269                           	callstack 0
  1270   00087E  0E05               	movlw	5
  1271   000880  5C17               	subwf	1303,w,c
  1272   000882  A4D8               	btfss	status,2,c
  1273   000884  D005               	bra	SYSSELECTEND5
  1274                           
  1275                           ;'CASE 5: READTABLE GLCDCHARCOL7, CHARCODE, CURRCHARVAL
  1276   000886  C50B F507          	movff	1291,1287
  1277   00088A  0100               	banksel	0
  1278   00088C  DEBE               	rcall	GLCDCHARCOL7
  1279   00088E  6E19               	movwf	1305,c
  1280   000890                     SYSSELECTEND5:
  1281                           	callstack 0
  1282                           
  1283                           ;'FULL MEMORY GLCD MODE
  1284                           ;'CHARROW=0
  1285   000890  6A13               	clrf	1299,c
  1286   000892  6A14               	clrf	1300,c
  1287                           
  1288                           ;'FOR CURRCHARROW = 1 TO 8
  1289                           ;'LEGACY METHOD
  1290   000894  6A18               	clrf	1304,c
  1291   000896                     SYSFORLOOP11:
  1292                           	callstack 0
  1293   000896  2A18               	incf	1304,f,c
  1294                           
  1295                           ;'CHARCOLS=0
  1296   000898  6A0E               	clrf	1294,c
  1297                           
  1298                           ;'FOR COL=1 TO GLCDFNTDEFAULTSIZE
  1299   00089A  0E01               	movlw	1
  1300   00089C  6E16               	movwf	1302,c
  1301   00089E                     SYSFORLOOP12:
  1302                           	callstack 0
  1303                           
  1304                           ;'CHARROWS=0
  1305   00089E  6A15               	clrf	1301,c
  1306                           
  1307                           ;'FOR ROW=1 TO GLCDFNTDEFAULTSIZE
  1308   0008A0  0E01               	movlw	1
  1309   0008A2  6E5A               	movwf	1370,c
  1310   0008A4                     SYSFORLOOP13:
  1311                           	callstack 0
  1312                           
  1313                           ;'IF CURRCHARVAL.0=1 THEN
  1314   0008A4  A019               	btfss	1305,0,c
  1315   0008A6  D014               	bra	ELSE41_1
  1316                           
  1317                           ;'PSET [WORD]CHARLOCX + CHARCOL + CHARCOLS, [WORD]CHARLOCY + CHARROW + CHARROWS, LINECOLOUR
  1318   0008A8  500C               	movf	1292,w,c
  1319   0008AA  240F               	addwf	1295,w,c
  1320   0008AC  0105               	banksel	1392
  1321   0008AE  6F70               	movwf	1392,b
  1322   0008B0  500E               	movf	1294,w,c
  1323   0008B2  2570               	addwf	1392,w,b
  1324   0008B4  6E36               	movwf	1334,c
  1325   0008B6  5013               	movf	1299,w,c
  1326   0008B8  2411               	addwf	1297,w,c
  1327   0008BA  6F70               	movwf	1392,b
  1328   0008BC  5015               	movf	1301,w,c
  1329   0008BE  2570               	addwf	1392,w,b
  1330   0008C0  6E37               	movwf	1335,c
  1331   0008C2  C540 F524          	movff	1344,1316
  1332   0008C6  C541 F525          	movff	1345,1317
  1333   0008CA  0100               	banksel	0
  1334   0008CC  DB51               	rcall	PSET_SSD1306
  1335                           
  1336                           ;'ELSE
  1337   0008CE  D013               	bra	ENDIF41
  1338   0008D0                     ELSE41_1:
  1339                           	callstack 0
  1340                           
  1341                           ;'PSET [WORD]CHARLOCX + CHARCOL + CHARCOLS, [WORD]CHARLOCY + CHARROW + CHARROWS, GLCDBACKGROUND
  1342   0008D0  500C               	movf	1292,w,c
  1343   0008D2  240F               	addwf	1295,w,c
  1344   0008D4  0105               	banksel	1392
  1345   0008D6  6F70               	movwf	1392,b
  1346   0008D8  500E               	movf	1294,w,c
  1347   0008DA  2570               	addwf	1392,w,b
  1348   0008DC  6E36               	movwf	1334,c
  1349   0008DE  5013               	movf	1299,w,c
  1350   0008E0  2411               	addwf	1297,w,c
  1351   0008E2  6F70               	movwf	1392,b
  1352   0008E4  5015               	movf	1301,w,c
  1353   0008E6  2570               	addwf	1392,w,b
  1354   0008E8  6E37               	movwf	1335,c
  1355   0008EA  C520 F524          	movff	1312,1316
  1356   0008EE  C521 F525          	movff	1313,1317
  1357   0008F2  0100               	banksel	0
  1358   0008F4  DB3D               	rcall	PSET_SSD1306
  1359   0008F6                     ENDIF41:
  1360                           	callstack 0
  1361                           
  1362                           ;'PUT OUT A WHITE INTERCHARACTER PIXEL/SPACE
  1363                           ;'PSET [WORD]CHARLOCX + ( GLCDFONTWIDTH * GLCDFNTDEFAULTSIZE) , [WORD]CHARLOCY + CHARROW + CHARROWS , GLCDBACKGROUND
  1364   0008F6  502A               	movf	1322,w,c
  1365   0008F8  0229               	mulwf	1321,c
  1366   0008FA  C4F3 F570          	movff	prodl,1392
  1367   0008FE  0105               	banksel	1392
  1368   000900  5170               	movf	1392,w,b
  1369   000902  240F               	addwf	1295,w,c
  1370   000904  6E36               	movwf	1334,c
  1371   000906  5013               	movf	1299,w,c
  1372   000908  2411               	addwf	1297,w,c
  1373   00090A  6F70               	movwf	1392,b
  1374   00090C  5015               	movf	1301,w,c
  1375   00090E  2570               	addwf	1392,w,b
  1376   000910  6E37               	movwf	1335,c
  1377   000912  C520 F524          	movff	1312,1316
  1378   000916  C521 F525          	movff	1313,1317
  1379   00091A  0100               	banksel	0
  1380   00091C  DB29               	rcall	PSET_SSD1306
  1381                           
  1382                           ;'CHARROWS +=1
  1383   00091E  2A15               	incf	1301,f,c
  1384                           
  1385                           ;'NEXT ROW
  1386                           ;'POSITIVE VALUE STEP HANDLER IN FOR-NEXT STATEMENT :#4P 
  1387   000920  505A               	movf	1370,w,c
  1388   000922  5C29               	subwf	1321,w,c
  1389   000924  0105               	banksel	1392
  1390   000926  6F70               	movwf	1392,b
  1391   000928  C570 F505          	movff	1392,1285
  1392   00092C  6A09               	clrf	1289,c
  1393   00092E  0100               	banksel	0
  1394   000930  EC27  F00A         	call	SYSCOMPEQUAL
  1395   000934  1E00               	comf	1280,f,c
  1396   000936  A000               	btfss	1280,0,c
  1397   000938  D002               	bra	ENDIF42
  1398                           
  1399                           ;'SET LOOPVAR TO LOOPVAR + STEPVALUE WHERE STEPVALUE IS A POSITIVE VALUE
  1400   00093A  2A5A               	incf	1370,f,c
  1401   00093C  D7B3               	bra	SYSFORLOOP13
  1402   00093E                     ENDIF42:
  1403                           	callstack 0
  1404   00093E                     SYSFORLOOPEND13:
  1405                           	callstack 0
  1406                           
  1407                           ;'CHARCOLS +=1
  1408   00093E  2A0E               	incf	1294,f,c
  1409                           
  1410                           ;'NEXT COL
  1411                           ;'POSITIVE VALUE STEP HANDLER IN FOR-NEXT STATEMENT :#4P 
  1412   000940  5016               	movf	1302,w,c
  1413   000942  5C29               	subwf	1321,w,c
  1414   000944  0105               	banksel	1392
  1415   000946  6F70               	movwf	1392,b
  1416   000948  C570 F505          	movff	1392,1285
  1417   00094C  6A09               	clrf	1289,c
  1418   00094E  0100               	banksel	0
  1419   000950  EC27  F00A         	call	SYSCOMPEQUAL
  1420   000954  1E00               	comf	1280,f,c
  1421   000956  A000               	btfss	1280,0,c
  1422   000958  D002               	bra	ENDIF43
  1423                           
  1424                           ;'SET LOOPVAR TO LOOPVAR + STEPVALUE WHERE STEPVALUE IS A POSITIVE VALUE
  1425   00095A  2A16               	incf	1302,f,c
  1426   00095C  D7A0               	bra	SYSFORLOOP12
  1427   00095E                     ENDIF43:
  1428                           	callstack 0
  1429   00095E                     SYSFORLOOPEND12:
  1430                           	callstack 0
  1431                           
  1432                           ;'ROTATE CURRCHARVAL RIGHT
  1433   00095E  3219               	rrcf	1305,f,c
  1434                           
  1435                           ;'CHARROW +=GLCDFNTDEFAULTSIZE
  1436   000960  5029               	movf	1321,w,c
  1437   000962  2613               	addwf	1299,f,c
  1438   000964  0E00               	movlw	0
  1439   000966  2214               	addwfc	1300,f,c
  1440                           
  1441                           ;'NEXT
  1442   000968  0E08               	movlw	8
  1443   00096A  5C18               	subwf	1304,w,c
  1444   00096C  A0D8               	btfss	status,0,c
  1445   00096E  D793               	bra	SYSFORLOOP11
  1446   000970                     SYSFORLOOPEND11:
  1447                           	callstack 0
  1448                           
  1449                           ;'CHARCOL +=GLCDFNTDEFAULTSIZE
  1450   000970  5029               	movf	1321,w,c
  1451   000972  260C               	addwf	1292,f,c
  1452   000974  0E00               	movlw	0
  1453   000976  220D               	addwfc	1293,f,c
  1454                           
  1455                           ;'1.14 LOW MEMORY GLCD MODE
  1456                           ;'1.12 CHARACTER GLCD MODE
  1457                           ;'HANDLES SPECIFIC DRAW SEQUENCE. THIS CATERS FOR WRITE ONLY OF A BIT VALUE. NO READ OPERATION.
  1458                           ;'NEXT
  1459   000978  0E05               	movlw	5
  1460   00097A  5C17               	subwf	1303,w,c
  1461   00097C  A0D8               	btfss	status,0,c
  1462   00097E  D757               	bra	SYSFORLOOP10
  1463   000980                     SYSFORLOOPEND10:
  1464                           	callstack 0
  1465                           
  1466                           ;'****** OLED FONT SET HANDLER
  1467                           ;'1.14 ADDED TRANSACTION
  1468                           ;'RESTORE
  1469                           ;'GLCDBACKGROUND = 0
  1470   000980  6A20               	clrf	1312,c
  1471   000982  6A21               	clrf	1313,c
  1472                           
  1473                           ;'GLCDFOREGROUND = 1
  1474   000984  0E01               	movlw	1
  1475   000986  6E2B               	movwf	1323,c
  1476   000988  6A2C               	clrf	1324,c
  1477   00098A  0012               	return	
  1478   00098C                     GLCDDRAWSPRITE_SSD1306:
  1479                           	callstack 0
  1480                           
  1481                           ;'DIM CURRCHARVAL, CURRCHARCOL, SSD1306_PAGE, GLCDHICHANGE, GLCDLOCHANGE, GLCDROTATEBITS, GLCDTEMP AS BYTE
  1482                           ;'CALCULATE DEVICE ROW
  1483                           ;'SSD1306_PAGE = GLCDY
  1484   00098C  C537 F55E          	movff	1335,1374
  1485                           
  1486                           ;'REPEAT 3
  1487   000990  0E03               	movlw	3
  1488   000992  0105               	banksel	1384
  1489   000994  6F68               	movwf	1384,b
  1490   000996                     SYSREPEATLOOP1:
  1491                           	callstack 0
  1492                           
  1493                           ;'SET C OFF
  1494   000996  90D8               	bcf	status,0,c
  1495                           
  1496                           ;'ROTATE SSD1306_PAGE RIGHT
  1497   000998  325E               	rrcf	1374,f,c
  1498                           
  1499                           ;'END REPEAT
  1500   00099A  2F68               	decfsz	1384,f,b
  1501   00099C  D7FC               	bra	SYSREPEATLOOP1
  1502   00099E                     SYSREPEATLOOPEND1:
  1503                           	callstack 0
  1504                           
  1505                           ;'SSD1306_PAGE IS NOW THE CORRECT ROW
  1506                           ;'CALCULATE BUFFER ELEMENT
  1507                           ;'SSD1306_BUFFERLOCATIONCALC = GLCDY AND 0XF8
  1508   00099E  0EF8               	movlw	248
  1509   0009A0  1437               	andwf	1335,w,c
  1510   0009A2  6E5C               	movwf	1372,c
  1511   0009A4  6A5D               	clrf	1373,c
  1512                           
  1513                           ;'REPEAT 4
  1514   0009A6  0E04               	movlw	4
  1515   0009A8  6F68               	movwf	1384,b
  1516   0009AA                     SYSREPEATLOOP2:
  1517                           	callstack 0
  1518                           
  1519                           ;'SET C OFF
  1520   0009AA  90D8               	bcf	status,0,c
  1521                           
  1522                           ;'ROTATE SSD1306_BUFFERLOCATIONCALC LEFT
  1523   0009AC  365C               	rlcf	1372,f,c
  1524   0009AE  365D               	rlcf	1373,f,c
  1525                           
  1526                           ;'END REPEAT
  1527   0009B0  2F68               	decfsz	1384,f,b
  1528   0009B2  D7FB               	bra	SYSREPEATLOOP2
  1529   0009B4                     SYSREPEATLOOPEND2:
  1530                           	callstack 0
  1531                           
  1532                           ;'SSD1306_BUFFERLOCATIONCALC = (SSD1306_BUFFERLOCATIONCALC OR GLCDX)
  1533   0009B4  505C               	movf	1372,w,c
  1534   0009B6  1036               	iorwf	1334,w,c
  1535   0009B8  6E5C               	movwf	1372,c
  1536                           
  1537                           ;'INCREMENT AS WE DO NOT USE ELEMENT 0 IN THE ARRAY
  1538                           ;'SSD1306_BUFFERLOCATIONCALC++
  1539   0009BA  2A5C               	incf	1372,f,c
  1540   0009BC  B4D8               	btfsc	status,2,c
  1541   0009BE  2A5D               	incf	1373,f,c
  1542                           
  1543                           ;'SSD1306_BUFFERLOCATIONCALC IS NOW THE CORRECT BUFFER ELEMENT
  1544                           ;'IS THE Y POSITION OF SPRITE ON A ROW POSITIN 0?
  1545                           ;'IF ( GLCDY MOD 8 ) = 0 THEN
  1546   0009C0  C537 F505          	movff	1335,1285
  1547   0009C4  0E08               	movlw	8
  1548   0009C6  6E09               	movwf	1289,c
  1549   0009C8  0100               	banksel	0
  1550   0009CA  EC48  F00A         	call	SYSDIVSUB
  1551   0009CE  C500 F56C          	movff	1280,1388
  1552   0009D2  C56C F505          	movff	1388,1285
  1553   0009D6  6A09               	clrf	1289,c
  1554   0009D8  EC27  F00A         	call	SYSCOMPEQUAL
  1555   0009DC  A000               	btfss	1280,0,c
  1556   0009DE  D0A0               	bra	ELSE7_1
  1557                           
  1558                           ;'USES GLDX AND SS1306_PAGE VARIABLES
  1559                           ;'CURSOR_POSITION_SSD1306_FAST
  1560                           ;'MACRO SOURCE: 210_I2C_GLCD_SPRITES_USING_SSD1306.GCB (429)
  1561                           ;'DIM I2CBYTE AS BYTE
  1562                           ;'HI2CSTART
  1563   0009E0  ECF6  F008         	call	SI2CSTART
  1564                           
  1565                           ;'HI2CSEND GLCD_I2C_ADDRESS
  1566   0009E4  0E78               	movlw	120
  1567   0009E6  6E3F               	movwf	1343,c
  1568   0009E8  DB87               	rcall	SI2CSEND
  1569                           
  1570                           ;'HI2CSEND 0X00
  1571   0009EA  6A3F               	clrf	1343,c
  1572   0009EC  DB85               	rcall	SI2CSEND
  1573                           
  1574                           ;'HI2CSEND 0XB0 + SSD1306_PAGE
  1575   0009EE  0EB0               	movlw	176
  1576   0009F0  245E               	addwf	1374,w,c
  1577   0009F2  6E3F               	movwf	1343,c
  1578   0009F4  DB81               	rcall	SI2CSEND
  1579                           
  1580                           ;'HI2CSTOP
  1581   0009F6  ECFB  F008         	call	SI2CSTOP
  1582                           
  1583                           ;'HI2CSTART
  1584   0009FA  DBF8               	rcall	SI2CSTART
  1585                           
  1586                           ;'HI2CSEND GLCD_I2C_ADDRESS
  1587   0009FC  0E78               	movlw	120
  1588   0009FE  6E3F               	movwf	1343,c
  1589   000A00  DB7B               	rcall	SI2CSEND
  1590                           
  1591                           ;'HI2CSEND 0X00
  1592   000A02  6A3F               	clrf	1343,c
  1593   000A04  DB79               	rcall	SI2CSEND
  1594                           
  1595                           ;'LOWER NIBBLE
  1596                           ;'I2CBYTE = ( GLCDX  & 0X0F )
  1597   000A06  0E0F               	movlw	15
  1598   000A08  1436               	andwf	1334,w,c
  1599   000A0A  6E3F               	movwf	1343,c
  1600                           
  1601                           ;'HI2CSEND I2CBYTE
  1602   000A0C  DB75               	rcall	SI2CSEND
  1603                           
  1604                           ;'HI2CSTOP
  1605   000A0E  DBF3               	rcall	SI2CSTOP
  1606                           
  1607                           ;'HI2CSTART
  1608   000A10  DBED               	rcall	SI2CSTART
  1609                           
  1610                           ;'HI2CSEND GLCD_I2C_ADDRESS
  1611   000A12  0E78               	movlw	120
  1612   000A14  6E3F               	movwf	1343,c
  1613   000A16  DB70               	rcall	SI2CSEND
  1614                           
  1615                           ;'HI2CSEND 0X00
  1616   000A18  6A3F               	clrf	1343,c
  1617   000A1A  DB6E               	rcall	SI2CSEND
  1618                           
  1619                           ;'I2CBYTE = ( SWAP4(GLCDX) & 0X0F ) + 0X10
  1620   000A1C  C536 F561          	movff	1334,1377
  1621   000A20  EC22  F00A         	call	FN_SWAP4
  1622   000A24  0E0F               	movlw	15
  1623   000A26  0105               	banksel	1376
  1624   000A28  1560               	andwf	1376,w,b
  1625   000A2A  6F6C               	movwf	1388,b
  1626   000A2C  0E10               	movlw	16
  1627   000A2E  256C               	addwf	1388,w,b
  1628   000A30  6E3F               	movwf	1343,c
  1629                           
  1630                           ;'HI2CSEND I2CBYTE
  1631   000A32  0100               	banksel	0
  1632   000A34  DB61               	rcall	SI2CSEND
  1633                           
  1634                           ;'HI2CSTOP
  1635   000A36  DBDF               	rcall	SI2CSTOP
  1636                           
  1637                           ;'READ 8 PIXELS VALUE INTO CURRCHARVAL THEN WRITE TO DISPLAY
  1638                           ;'OPEN_TRANSACTION_SSD1306
  1639                           ;'MACRO SOURCE: GLCD_SSD1306.H (1241)
  1640                           ;'4WIRE NOT SUPPORTED, SEE WRITE_TRANSACTION_DATA_SSD1306
  1641                           ;'HI2CSTART
  1642   000A38  DBD9               	rcall	SI2CSTART
  1643                           
  1644                           ;'HI2CSEND GLCD_I2C_ADDRESS
  1645   000A3A  0E78               	movlw	120
  1646   000A3C  6E3F               	movwf	1343,c
  1647   000A3E  DB5C               	rcall	SI2CSEND
  1648                           
  1649                           ;'HI2CSEND 0X40
  1650   000A40  0E40               	movlw	64
  1651   000A42  6E3F               	movwf	1343,c
  1652   000A44  DB59               	rcall	SI2CSEND
  1653                           
  1654                           ;'FOR CURRCHARCOL = 1 TO 8
  1655                           ;'LEGACY METHOD
  1656   000A46  6A17               	clrf	1303,c
  1657   000A48                     SYSFORLOOP1:
  1658                           	callstack 0
  1659   000A48  2A17               	incf	1303,f,c
  1660   000A4A                     SYSSELECT1CASE1:
  1661                           	callstack 0
  1662   000A4A  0417               	decf	1303,w,c
  1663   000A4C  A4D8               	btfss	status,2,c
  1664   000A4E  D006               	bra	SYSSELECT1CASE2
  1665                           
  1666                           ;'CASE 1: READTABLE SPRITE1, CHARCODE, CURRCHARVAL
  1667   000A50  C50B F507          	movff	1291,1287
  1668   000A54  EC72  F009         	call	SPRITE1
  1669   000A58  6E19               	movwf	1305,c
  1670                           
  1671                           ;'CASE 2: READTABLE SPRITE2, CHARCODE, CURRCHARVAL
  1672   000A5A  D045               	bra	SYSSELECTEND1
  1673   000A5C                     SYSSELECT1CASE2:
  1674                           	callstack 0
  1675   000A5C  0E02               	movlw	2
  1676   000A5E  5C17               	subwf	1303,w,c
  1677   000A60  A4D8               	btfss	status,2,c
  1678   000A62  D006               	bra	SYSSELECT1CASE3
  1679                           
  1680                           ;'CASE 2: READTABLE SPRITE2, CHARCODE, CURRCHARVAL
  1681   000A64  C50B F507          	movff	1291,1287
  1682   000A68  EC88  F009         	call	SPRITE2
  1683   000A6C  6E19               	movwf	1305,c
  1684                           
  1685                           ;'CASE 3: READTABLE SPRITE3, CHARCODE, CURRCHARVAL
  1686   000A6E  D03B               	bra	SYSSELECTEND1
  1687   000A70                     SYSSELECT1CASE3:
  1688                           	callstack 0
  1689   000A70  0E03               	movlw	3
  1690   000A72  5C17               	subwf	1303,w,c
  1691   000A74  A4D8               	btfss	status,2,c
  1692   000A76  D006               	bra	SYSSELECT1CASE4
  1693                           
  1694                           ;'CASE 3: READTABLE SPRITE3, CHARCODE, CURRCHARVAL
  1695   000A78  C50B F507          	movff	1291,1287
  1696   000A7C  EC9E  F009         	call	SPRITE3
  1697   000A80  6E19               	movwf	1305,c
  1698                           
  1699                           ;'CASE 4: READTABLE SPRITE4, CHARCODE, CURRCHARVAL
  1700   000A82  D031               	bra	SYSSELECTEND1
  1701   000A84                     SYSSELECT1CASE4:
  1702                           	callstack 0
  1703   000A84  0E04               	movlw	4
  1704   000A86  5C17               	subwf	1303,w,c
  1705   000A88  A4D8               	btfss	status,2,c
  1706   000A8A  D006               	bra	SYSSELECT1CASE5
  1707                           
  1708                           ;'CASE 4: READTABLE SPRITE4, CHARCODE, CURRCHARVAL
  1709   000A8C  C50B F507          	movff	1291,1287
  1710   000A90  ECB4  F009         	call	SPRITE4
  1711   000A94  6E19               	movwf	1305,c
  1712                           
  1713                           ;'CASE 5: READTABLE SPRITE5, CHARCODE, CURRCHARVAL
  1714   000A96  D027               	bra	SYSSELECTEND1
  1715   000A98                     SYSSELECT1CASE5:
  1716                           	callstack 0
  1717   000A98  0E05               	movlw	5
  1718   000A9A  5C17               	subwf	1303,w,c
  1719   000A9C  A4D8               	btfss	status,2,c
  1720   000A9E  D006               	bra	SYSSELECT1CASE6
  1721                           
  1722                           ;'CASE 5: READTABLE SPRITE5, CHARCODE, CURRCHARVAL
  1723   000AA0  C50B F507          	movff	1291,1287
  1724   000AA4  ECCA  F009         	call	SPRITE5
  1725   000AA8  6E19               	movwf	1305,c
  1726                           
  1727                           ;'CASE 6: READTABLE SPRITE6, CHARCODE, CURRCHARVAL
  1728   000AAA  D01D               	bra	SYSSELECTEND1
  1729   000AAC                     SYSSELECT1CASE6:
  1730                           	callstack 0
  1731   000AAC  0E06               	movlw	6
  1732   000AAE  5C17               	subwf	1303,w,c
  1733   000AB0  A4D8               	btfss	status,2,c
  1734   000AB2  D006               	bra	SYSSELECT1CASE7
  1735                           
  1736                           ;'CASE 6: READTABLE SPRITE6, CHARCODE, CURRCHARVAL
  1737   000AB4  C50B F507          	movff	1291,1287
  1738   000AB8  ECE0  F009         	call	SPRITE6
  1739   000ABC  6E19               	movwf	1305,c
  1740                           
  1741                           ;'CASE 7: READTABLE SPRITE7, CHARCODE, CURRCHARVAL
  1742   000ABE  D013               	bra	SYSSELECTEND1
  1743   000AC0                     SYSSELECT1CASE7:
  1744                           	callstack 0
  1745   000AC0  0E07               	movlw	7
  1746   000AC2  5C17               	subwf	1303,w,c
  1747   000AC4  A4D8               	btfss	status,2,c
  1748   000AC6  D006               	bra	SYSSELECT1CASE8
  1749                           
  1750                           ;'CASE 7: READTABLE SPRITE7, CHARCODE, CURRCHARVAL
  1751   000AC8  C50B F507          	movff	1291,1287
  1752   000ACC  ECF6  F009         	call	SPRITE7
  1753   000AD0  6E19               	movwf	1305,c
  1754                           
  1755                           ;'CASE 8: READTABLE SPRITE8, CHARCODE, CURRCHARVAL
  1756   000AD2  D009               	bra	SYSSELECTEND1
  1757   000AD4                     SYSSELECT1CASE8:
  1758                           	callstack 0
  1759   000AD4  0E08               	movlw	8
  1760   000AD6  5C17               	subwf	1303,w,c
  1761   000AD8  A4D8               	btfss	status,2,c
  1762   000ADA  D005               	bra	SYSSELECTEND1
  1763                           
  1764                           ;'CASE 8: READTABLE SPRITE8, CHARCODE, CURRCHARVAL
  1765   000ADC  C50B F507          	movff	1291,1287
  1766   000AE0  EC0C  F00A         	call	SPRITE8
  1767   000AE4  6E19               	movwf	1305,c
  1768   000AE6                     SYSSELECTEND1:
  1769                           	callstack 0
  1770                           
  1771                           ;'XOR PIXELS INTO BUFFER
  1772                           ;'GLCDTEMP = SSD1306_BUFFERALIAS(SSD1306_BUFFERLOCATIONCALC) XOR CURRCHARVAL
  1773   000AE6  EE04 F0FF          	lfsr	0,4351
  1774   000AEA  505C               	movf	1372,w,c
  1775   000AEC  26E9               	addwf	fsr0l,f,c
  1776   000AEE  505D               	movf	1373,w,c
  1777   000AF0  22EA               	addwfc	fsr0h,f,c
  1778   000AF2  50EF               	movf	indf0,w,c
  1779   000AF4  1819               	xorwf	1305,w,c
  1780   000AF6  6E34               	movwf	1332,c
  1781                           
  1782                           ;'SSD1306_BUFFERALIAS(SSD1306_BUFFERLOCATIONCALC) = GLCDTEMP
  1783   000AF8  EE04 F0FF          	lfsr	0,4351
  1784   000AFC  505C               	movf	1372,w,c
  1785   000AFE  26E9               	addwf	fsr0l,f,c
  1786   000B00  505D               	movf	1373,w,c
  1787   000B02  22EA               	addwfc	fsr0h,f,c
  1788   000B04  C534 F4EF          	movff	1332,indf0
  1789                           
  1790                           ;'WRITE BUFFER THIS WILL INCREMENT THE DEVICE POINT AS PART OF THE WRITE OPERATION
  1791                           ;'WRITE_TRANSACTION_DATA_SSD1306(GLCDTEMP)
  1792                           ;'MACRO SOURCE: GLCD_SSD1306.H (1272)
  1793                           ;'HI2CSEND SSD1306SENDBYTE
  1794   000B08  C534 F53F          	movff	1332,1343
  1795   000B0C  DAF5               	rcall	SI2CSEND
  1796                           
  1797                           ;'INCREMENT BUFFER BY 1 TO MATCH DEVICE INCREMENT
  1798                           ;'SSD1306_BUFFERLOCATIONCALC++
  1799   000B0E  2A5C               	incf	1372,f,c
  1800   000B10  B4D8               	btfsc	status,2,c
  1801   000B12  2A5D               	incf	1373,f,c
  1802                           
  1803                           ;'NEXT
  1804   000B14  0E08               	movlw	8
  1805   000B16  5C17               	subwf	1303,w,c
  1806   000B18  A0D8               	btfss	status,0,c
  1807   000B1A  D796               	bra	SYSFORLOOP1
  1808   000B1C                     SYSFORLOOPEND1:
  1809                           	callstack 0
  1810                           
  1811                           ;'CLOSE_TRANSACTION_SSD1306
  1812                           ;'MACRO SOURCE: GLCD_SSD1306.H (1305)
  1813                           ;'4WIRE NOT SUPPORTED, SEE WRITE_TRANSACTION_DATA_SSD1306
  1814                           ;'HI2CSTOP
  1815   000B1C  DB6C               	rcall	SI2CSTOP
  1816                           
  1817                           ;'ELSE
  1818   000B1E  D14A               	bra	ENDIF7
  1819   000B20                     ELSE7_1:
  1820                           	callstack 0
  1821                           
  1822                           ;'HANDLE TOP PORTION OF THE SPRITE AS WE ARE NOT AT 0 PIXEL OF A ROW
  1823                           ;'SEND THE TOP PIXELS
  1824                           ;'CURSOR_POSITION_SSD1306_FAST
  1825                           ;'MACRO SOURCE: 210_I2C_GLCD_SPRITES_USING_SSD1306.GCB (429)
  1826                           ;'DIM I2CBYTE AS BYTE
  1827                           ;'HI2CSTART
  1828   000B20  DB65               	rcall	SI2CSTART
  1829                           
  1830                           ;'HI2CSEND GLCD_I2C_ADDRESS
  1831   000B22  0E78               	movlw	120
  1832   000B24  6E3F               	movwf	1343,c
  1833   000B26  DAE8               	rcall	SI2CSEND
  1834                           
  1835                           ;'HI2CSEND 0X00
  1836   000B28  6A3F               	clrf	1343,c
  1837   000B2A  DAE6               	rcall	SI2CSEND
  1838                           
  1839                           ;'HI2CSEND 0XB0 + SSD1306_PAGE
  1840   000B2C  0EB0               	movlw	176
  1841   000B2E  245E               	addwf	1374,w,c
  1842   000B30  6E3F               	movwf	1343,c
  1843   000B32  DAE2               	rcall	SI2CSEND
  1844                           
  1845                           ;'HI2CSTOP
  1846   000B34  DB60               	rcall	SI2CSTOP
  1847                           
  1848                           ;'HI2CSTART
  1849   000B36  DB5A               	rcall	SI2CSTART
  1850                           
  1851                           ;'HI2CSEND GLCD_I2C_ADDRESS
  1852   000B38  0E78               	movlw	120
  1853   000B3A  6E3F               	movwf	1343,c
  1854   000B3C  DADD               	rcall	SI2CSEND
  1855                           
  1856                           ;'HI2CSEND 0X00
  1857   000B3E  6A3F               	clrf	1343,c
  1858   000B40  DADB               	rcall	SI2CSEND
  1859                           
  1860                           ;'LOWER NIBBLE
  1861                           ;'I2CBYTE = ( GLCDX  & 0X0F )
  1862   000B42  0E0F               	movlw	15
  1863   000B44  1436               	andwf	1334,w,c
  1864   000B46  6E3F               	movwf	1343,c
  1865                           
  1866                           ;'HI2CSEND I2CBYTE
  1867   000B48  DAD7               	rcall	SI2CSEND
  1868                           
  1869                           ;'HI2CSTOP
  1870   000B4A  DB55               	rcall	SI2CSTOP
  1871                           
  1872                           ;'HI2CSTART
  1873   000B4C  DB4F               	rcall	SI2CSTART
  1874                           
  1875                           ;'HI2CSEND GLCD_I2C_ADDRESS
  1876   000B4E  0E78               	movlw	120
  1877   000B50  6E3F               	movwf	1343,c
  1878   000B52  DAD2               	rcall	SI2CSEND
  1879                           
  1880                           ;'HI2CSEND 0X00
  1881   000B54  6A3F               	clrf	1343,c
  1882   000B56  DAD0               	rcall	SI2CSEND
  1883                           
  1884                           ;'I2CBYTE = ( SWAP4(GLCDX) & 0X0F ) + 0X10
  1885   000B58  C536 F561          	movff	1334,1377
  1886   000B5C  EC22  F00A         	call	FN_SWAP4
  1887   000B60  0E0F               	movlw	15
  1888   000B62  0105               	banksel	1376
  1889   000B64  1560               	andwf	1376,w,b
  1890   000B66  6F6C               	movwf	1388,b
  1891   000B68  0E10               	movlw	16
  1892   000B6A  256C               	addwf	1388,w,b
  1893   000B6C  6E3F               	movwf	1343,c
  1894                           
  1895                           ;'HI2CSEND I2CBYTE
  1896   000B6E  0100               	banksel	0
  1897   000B70  DAC3               	rcall	SI2CSEND
  1898                           
  1899                           ;'HI2CSTOP
  1900   000B72  DB41               	rcall	SI2CSTOP
  1901                           
  1902                           ;'OPEN_TRANSACTION_SSD1306
  1903                           ;'MACRO SOURCE: GLCD_SSD1306.H (1241)
  1904                           ;'4WIRE NOT SUPPORTED, SEE WRITE_TRANSACTION_DATA_SSD1306
  1905                           ;'HI2CSTART
  1906   000B74  DB3B               	rcall	SI2CSTART
  1907                           
  1908                           ;'HI2CSEND GLCD_I2C_ADDRESS
  1909   000B76  0E78               	movlw	120
  1910   000B78  6E3F               	movwf	1343,c
  1911   000B7A  DABE               	rcall	SI2CSEND
  1912                           
  1913                           ;'HI2CSEND 0X40
  1914   000B7C  0E40               	movlw	64
  1915   000B7E  6E3F               	movwf	1343,c
  1916   000B80  DABB               	rcall	SI2CSEND
  1917                           
  1918                           ;'FOR CURRCHARCOL = 1 TO 8
  1919                           ;'LEGACY METHOD
  1920   000B82  6A17               	clrf	1303,c
  1921   000B84                     SYSFORLOOP2:
  1922                           	callstack 0
  1923   000B84  2A17               	incf	1303,f,c
  1924   000B86                     SYSSELECT2CASE1:
  1925                           	callstack 0
  1926   000B86  0417               	decf	1303,w,c
  1927   000B88  A4D8               	btfss	status,2,c
  1928   000B8A  D005               	bra	SYSSELECT2CASE2
  1929                           
  1930                           ;'CASE 1: READTABLE SPRITE1, CHARCODE, GLCDHICHANGE
  1931   000B8C  C50B F507          	movff	1291,1287
  1932   000B90  DBA9               	rcall	SPRITE1
  1933   000B92  6E2D               	movwf	1325,c
  1934                           
  1935                           ;'CASE 2: READTABLE SPRITE2, CHARCODE, GLCDHICHANGE
  1936   000B94  D03F               	bra	SYSSELECTEND2
  1937   000B96                     SYSSELECT2CASE2:
  1938                           	callstack 0
  1939   000B96  0E02               	movlw	2
  1940   000B98  5C17               	subwf	1303,w,c
  1941   000B9A  A4D8               	btfss	status,2,c
  1942   000B9C  D005               	bra	SYSSELECT2CASE3
  1943                           
  1944                           ;'CASE 2: READTABLE SPRITE2, CHARCODE, GLCDHICHANGE
  1945   000B9E  C50B F507          	movff	1291,1287
  1946   000BA2  DBB6               	rcall	SPRITE2
  1947   000BA4  6E2D               	movwf	1325,c
  1948                           
  1949                           ;'CASE 3: READTABLE SPRITE3, CHARCODE, GLCDHICHANGE
  1950   000BA6  D036               	bra	SYSSELECTEND2
  1951   000BA8                     SYSSELECT2CASE3:
  1952                           	callstack 0
  1953   000BA8  0E03               	movlw	3
  1954   000BAA  5C17               	subwf	1303,w,c
  1955   000BAC  A4D8               	btfss	status,2,c
  1956   000BAE  D005               	bra	SYSSELECT2CASE4
  1957                           
  1958                           ;'CASE 3: READTABLE SPRITE3, CHARCODE, GLCDHICHANGE
  1959   000BB0  C50B F507          	movff	1291,1287
  1960   000BB4  DBC3               	rcall	SPRITE3
  1961   000BB6  6E2D               	movwf	1325,c
  1962                           
  1963                           ;'CASE 4: READTABLE SPRITE4, CHARCODE, GLCDHICHANGE
  1964   000BB8  D02D               	bra	SYSSELECTEND2
  1965   000BBA                     SYSSELECT2CASE4:
  1966                           	callstack 0
  1967   000BBA  0E04               	movlw	4
  1968   000BBC  5C17               	subwf	1303,w,c
  1969   000BBE  A4D8               	btfss	status,2,c
  1970   000BC0  D005               	bra	SYSSELECT2CASE5
  1971                           
  1972                           ;'CASE 4: READTABLE SPRITE4, CHARCODE, GLCDHICHANGE
  1973   000BC2  C50B F507          	movff	1291,1287
  1974   000BC6  DBD0               	rcall	SPRITE4
  1975   000BC8  6E2D               	movwf	1325,c
  1976                           
  1977                           ;'CASE 5: READTABLE SPRITE5, CHARCODE, GLCDHICHANGE
  1978   000BCA  D024               	bra	SYSSELECTEND2
  1979   000BCC                     SYSSELECT2CASE5:
  1980                           	callstack 0
  1981   000BCC  0E05               	movlw	5
  1982   000BCE  5C17               	subwf	1303,w,c
  1983   000BD0  A4D8               	btfss	status,2,c
  1984   000BD2  D005               	bra	SYSSELECT2CASE6
  1985                           
  1986                           ;'CASE 5: READTABLE SPRITE5, CHARCODE, GLCDHICHANGE
  1987   000BD4  C50B F507          	movff	1291,1287
  1988   000BD8  DBDD               	rcall	SPRITE5
  1989   000BDA  6E2D               	movwf	1325,c
  1990                           
  1991                           ;'CASE 6: READTABLE SPRITE6, CHARCODE, GLCDHICHANGE
  1992   000BDC  D01B               	bra	SYSSELECTEND2
  1993   000BDE                     SYSSELECT2CASE6:
  1994                           	callstack 0
  1995   000BDE  0E06               	movlw	6
  1996   000BE0  5C17               	subwf	1303,w,c
  1997   000BE2  A4D8               	btfss	status,2,c
  1998   000BE4  D005               	bra	SYSSELECT2CASE7
  1999                           
  2000                           ;'CASE 6: READTABLE SPRITE6, CHARCODE, GLCDHICHANGE
  2001   000BE6  C50B F507          	movff	1291,1287
  2002   000BEA  DBEA               	rcall	SPRITE6
  2003   000BEC  6E2D               	movwf	1325,c
  2004                           
  2005                           ;'CASE 7: READTABLE SPRITE7, CHARCODE, GLCDHICHANGE
  2006   000BEE  D012               	bra	SYSSELECTEND2
  2007   000BF0                     SYSSELECT2CASE7:
  2008                           	callstack 0
  2009   000BF0  0E07               	movlw	7
  2010   000BF2  5C17               	subwf	1303,w,c
  2011   000BF4  A4D8               	btfss	status,2,c
  2012   000BF6  D005               	bra	SYSSELECT2CASE8
  2013                           
  2014                           ;'CASE 7: READTABLE SPRITE7, CHARCODE, GLCDHICHANGE
  2015   000BF8  C50B F507          	movff	1291,1287
  2016   000BFC  DBF7               	rcall	SPRITE7
  2017   000BFE  6E2D               	movwf	1325,c
  2018                           
  2019                           ;'CASE 8: READTABLE SPRITE8, CHARCODE, GLCDHICHANGE
  2020   000C00  D009               	bra	SYSSELECTEND2
  2021   000C02                     SYSSELECT2CASE8:
  2022                           	callstack 0
  2023   000C02  0E08               	movlw	8
  2024   000C04  5C17               	subwf	1303,w,c
  2025   000C06  A4D8               	btfss	status,2,c
  2026   000C08  D005               	bra	SYSSELECTEND2
  2027                           
  2028                           ;'CASE 8: READTABLE SPRITE8, CHARCODE, GLCDHICHANGE
  2029   000C0A  C50B F507          	movff	1291,1287
  2030   000C0E  EC0C  F00A         	call	SPRITE8
  2031   000C12  6E2D               	movwf	1325,c
  2032   000C14                     SYSSELECTEND2:
  2033                           	callstack 0
  2034                           
  2035                           ;'HANDLE TOP ROW
  2036                           ;'GLCDROTATEBITS = GLCDY AND 7
  2037   000C14  0E07               	movlw	7
  2038   000C16  1437               	andwf	1335,w,c
  2039   000C18  6E33               	movwf	1331,c
  2040                           
  2041                           ;'REPEAT GLCDROTATEBITS
  2042   000C1A  C533 F568          	movff	1331,1384
  2043   000C1E  0105               	banksel	1384
  2044   000C20  5368               	movf	1384,f,b
  2045   000C22  B4D8               	btfsc	status,2,c
  2046   000C24  D004               	bra	SYSREPEATLOOPEND3
  2047   000C26                     SYSREPEATLOOP3:
  2048                           	callstack 0
  2049                           
  2050                           ;'SET C OFF
  2051   000C26  90D8               	bcf	status,0,c
  2052                           
  2053                           ;'ROTATE GLCDHICHANGE LEFT
  2054   000C28  362D               	rlcf	1325,f,c
  2055                           
  2056                           ;'END REPEAT
  2057   000C2A  2F68               	decfsz	1384,f,b
  2058   000C2C  D7FC               	bra	SYSREPEATLOOP3
  2059   000C2E                     SYSREPEATLOOPEND3:
  2060                           	callstack 0
  2061                           
  2062                           ;'GLCDTEMP = SSD1306_BUFFERALIAS(SSD1306_BUFFERLOCATIONCALC) XOR GLCDHICHANGE
  2063   000C2E  EE04 F0FF          	lfsr	0,4351
  2064   000C32  505C               	movf	1372,w,c
  2065   000C34  26E9               	addwf	fsr0l,f,c
  2066   000C36  505D               	movf	1373,w,c
  2067   000C38  22EA               	addwfc	fsr0h,f,c
  2068   000C3A  50EF               	movf	indf0,w,c
  2069   000C3C  182D               	xorwf	1325,w,c
  2070   000C3E  6E34               	movwf	1332,c
  2071                           
  2072                           ;'SSD1306_BUFFERALIAS(SSD1306_BUFFERLOCATIONCALC) = GLCDTEMP
  2073   000C40  EE04 F0FF          	lfsr	0,4351
  2074   000C44  505C               	movf	1372,w,c
  2075   000C46  26E9               	addwf	fsr0l,f,c
  2076   000C48  505D               	movf	1373,w,c
  2077   000C4A  22EA               	addwfc	fsr0h,f,c
  2078   000C4C  C534 F4EF          	movff	1332,indf0
  2079                           
  2080                           ;'WRITE_TRANSACTION_DATA_SSD1306(GLCDTEMP)
  2081                           ;'MACRO SOURCE: GLCD_SSD1306.H (1272)
  2082                           ;'HI2CSEND SSD1306SENDBYTE
  2083   000C50  C534 F53F          	movff	1332,1343
  2084   000C54  0100               	banksel	0
  2085   000C56  DA50               	rcall	SI2CSEND
  2086                           
  2087                           ;'SSD1306_BUFFERLOCATIONCALC++
  2088   000C58  2A5C               	incf	1372,f,c
  2089   000C5A  B4D8               	btfsc	status,2,c
  2090   000C5C  2A5D               	incf	1373,f,c
  2091                           
  2092                           ;'NEXT
  2093   000C5E  0E08               	movlw	8
  2094   000C60  5C17               	subwf	1303,w,c
  2095   000C62  A0D8               	btfss	status,0,c
  2096   000C64  D78F               	bra	SYSFORLOOP2
  2097   000C66                     SYSFORLOOPEND2:
  2098                           	callstack 0
  2099                           
  2100                           ;'CLOSE_TRANSACTION_SSD1306
  2101                           ;'MACRO SOURCE: GLCD_SSD1306.H (1305)
  2102                           ;'4WIRE NOT SUPPORTED, SEE WRITE_TRANSACTION_DATA_SSD1306
  2103                           ;'HI2CSTOP
  2104   000C66  DAC7               	rcall	SI2CSTOP
  2105                           
  2106                           ;'HANDLE BOTTOM PIXELS OF THE SPRITE
  2107                           ;'INCREMENT TO THE NEXT ROW
  2108                           ;'SSD1306_PAGE++
  2109   000C68  2A5E               	incf	1374,f,c
  2110                           
  2111                           ;'CURSOR_POSITION_SSD1306_FAST
  2112                           ;'MACRO SOURCE: 210_I2C_GLCD_SPRITES_USING_SSD1306.GCB (429)
  2113                           ;'DIM I2CBYTE AS BYTE
  2114                           ;'HI2CSTART
  2115   000C6A  DAC0               	rcall	SI2CSTART
  2116                           
  2117                           ;'HI2CSEND GLCD_I2C_ADDRESS
  2118   000C6C  0E78               	movlw	120
  2119   000C6E  6E3F               	movwf	1343,c
  2120   000C70  DA43               	rcall	SI2CSEND
  2121                           
  2122                           ;'HI2CSEND 0X00
  2123   000C72  6A3F               	clrf	1343,c
  2124   000C74  DA41               	rcall	SI2CSEND
  2125                           
  2126                           ;'HI2CSEND 0XB0 + SSD1306_PAGE
  2127   000C76  0EB0               	movlw	176
  2128   000C78  245E               	addwf	1374,w,c
  2129   000C7A  6E3F               	movwf	1343,c
  2130   000C7C  DA3D               	rcall	SI2CSEND
  2131                           
  2132                           ;'HI2CSTOP
  2133   000C7E  DABB               	rcall	SI2CSTOP
  2134                           
  2135                           ;'HI2CSTART
  2136   000C80  DAB5               	rcall	SI2CSTART
  2137                           
  2138                           ;'HI2CSEND GLCD_I2C_ADDRESS
  2139   000C82  0E78               	movlw	120
  2140   000C84  6E3F               	movwf	1343,c
  2141   000C86  DA38               	rcall	SI2CSEND
  2142                           
  2143                           ;'HI2CSEND 0X00
  2144   000C88  6A3F               	clrf	1343,c
  2145   000C8A  DA36               	rcall	SI2CSEND
  2146                           
  2147                           ;'LOWER NIBBLE
  2148                           ;'I2CBYTE = ( GLCDX  & 0X0F )
  2149   000C8C  0E0F               	movlw	15
  2150   000C8E  1436               	andwf	1334,w,c
  2151   000C90  6E3F               	movwf	1343,c
  2152                           
  2153                           ;'HI2CSEND I2CBYTE
  2154   000C92  DA32               	rcall	SI2CSEND
  2155                           
  2156                           ;'HI2CSTOP
  2157   000C94  DAB0               	rcall	SI2CSTOP
  2158                           
  2159                           ;'HI2CSTART
  2160   000C96  DAAA               	rcall	SI2CSTART
  2161                           
  2162                           ;'HI2CSEND GLCD_I2C_ADDRESS
  2163   000C98  0E78               	movlw	120
  2164   000C9A  6E3F               	movwf	1343,c
  2165   000C9C  DA2D               	rcall	SI2CSEND
  2166                           
  2167                           ;'HI2CSEND 0X00
  2168   000C9E  6A3F               	clrf	1343,c
  2169   000CA0  DA2B               	rcall	SI2CSEND
  2170                           
  2171                           ;'I2CBYTE = ( SWAP4(GLCDX) & 0X0F ) + 0X10
  2172   000CA2  C536 F561          	movff	1334,1377
  2173   000CA6  DBCE               	rcall	FN_SWAP4
  2174   000CA8  0E0F               	movlw	15
  2175   000CAA  0105               	banksel	1376
  2176   000CAC  1560               	andwf	1376,w,b
  2177   000CAE  6F6C               	movwf	1388,b
  2178   000CB0  0E10               	movlw	16
  2179   000CB2  256C               	addwf	1388,w,b
  2180   000CB4  6E3F               	movwf	1343,c
  2181                           
  2182                           ;'HI2CSEND I2CBYTE
  2183   000CB6  0100               	banksel	0
  2184   000CB8  DA1F               	rcall	SI2CSEND
  2185                           
  2186                           ;'HI2CSTOP
  2187   000CBA  DA9D               	rcall	SI2CSTOP
  2188                           
  2189                           ;'MOVE BUFFER POINTET TO THE NEXT ROW/BUFFER WHICH IS 128 BYTES, BUT, THE TOP HALF OF THE BUFFER HAS BEEN WRITE... 8 BYTES.
  2190                           ;'SO 128-8 = 120
  2191                           ;'SSD1306_BUFFERLOCATIONCALC = SSD1306_BUFFERLOCATIONCALC  + 120
  2192   000CBC  0E78               	movlw	120
  2193   000CBE  265C               	addwf	1372,f,c
  2194   000CC0  0E00               	movlw	0
  2195   000CC2  225D               	addwfc	1373,f,c
  2196                           
  2197                           ;'OPEN_TRANSACTION_SSD1306
  2198                           ;'MACRO SOURCE: GLCD_SSD1306.H (1241)
  2199                           ;'4WIRE NOT SUPPORTED, SEE WRITE_TRANSACTION_DATA_SSD1306
  2200                           ;'HI2CSTART
  2201   000CC4  DA93               	rcall	SI2CSTART
  2202                           
  2203                           ;'HI2CSEND GLCD_I2C_ADDRESS
  2204   000CC6  0E78               	movlw	120
  2205   000CC8  6E3F               	movwf	1343,c
  2206   000CCA  DA16               	rcall	SI2CSEND
  2207                           
  2208                           ;'HI2CSEND 0X40
  2209   000CCC  0E40               	movlw	64
  2210   000CCE  6E3F               	movwf	1343,c
  2211   000CD0  DA13               	rcall	SI2CSEND
  2212                           
  2213                           ;'FOR CURRCHARCOL = 1 TO 8
  2214                           ;'LEGACY METHOD
  2215   000CD2  6A17               	clrf	1303,c
  2216   000CD4                     SYSFORLOOP3:
  2217                           	callstack 0
  2218   000CD4  2A17               	incf	1303,f,c
  2219   000CD6                     SYSSELECT3CASE1:
  2220                           	callstack 0
  2221   000CD6  0417               	decf	1303,w,c
  2222   000CD8  A4D8               	btfss	status,2,c
  2223   000CDA  D005               	bra	SYSSELECT3CASE2
  2224                           
  2225                           ;'CASE 1: READTABLE SPRITE1, CHARCODE, GLCDHICHANGE
  2226   000CDC  C50B F507          	movff	1291,1287
  2227   000CE0  DB01               	rcall	SPRITE1
  2228   000CE2  6E2D               	movwf	1325,c
  2229                           
  2230                           ;'CASE 2: READTABLE SPRITE2, CHARCODE, GLCDHICHANGE
  2231   000CE4  D03E               	bra	SYSSELECTEND3
  2232   000CE6                     SYSSELECT3CASE2:
  2233                           	callstack 0
  2234   000CE6  0E02               	movlw	2
  2235   000CE8  5C17               	subwf	1303,w,c
  2236   000CEA  A4D8               	btfss	status,2,c
  2237   000CEC  D005               	bra	SYSSELECT3CASE3
  2238                           
  2239                           ;'CASE 2: READTABLE SPRITE2, CHARCODE, GLCDHICHANGE
  2240   000CEE  C50B F507          	movff	1291,1287
  2241   000CF2  DB0E               	rcall	SPRITE2
  2242   000CF4  6E2D               	movwf	1325,c
  2243                           
  2244                           ;'CASE 3: READTABLE SPRITE3, CHARCODE, GLCDHICHANGE
  2245   000CF6  D035               	bra	SYSSELECTEND3
  2246   000CF8                     SYSSELECT3CASE3:
  2247                           	callstack 0
  2248   000CF8  0E03               	movlw	3
  2249   000CFA  5C17               	subwf	1303,w,c
  2250   000CFC  A4D8               	btfss	status,2,c
  2251   000CFE  D005               	bra	SYSSELECT3CASE4
  2252                           
  2253                           ;'CASE 3: READTABLE SPRITE3, CHARCODE, GLCDHICHANGE
  2254   000D00  C50B F507          	movff	1291,1287
  2255   000D04  DB1B               	rcall	SPRITE3
  2256   000D06  6E2D               	movwf	1325,c
  2257                           
  2258                           ;'CASE 4: READTABLE SPRITE4, CHARCODE, GLCDHICHANGE
  2259   000D08  D02C               	bra	SYSSELECTEND3
  2260   000D0A                     SYSSELECT3CASE4:
  2261                           	callstack 0
  2262   000D0A  0E04               	movlw	4
  2263   000D0C  5C17               	subwf	1303,w,c
  2264   000D0E  A4D8               	btfss	status,2,c
  2265   000D10  D005               	bra	SYSSELECT3CASE5
  2266                           
  2267                           ;'CASE 4: READTABLE SPRITE4, CHARCODE, GLCDHICHANGE
  2268   000D12  C50B F507          	movff	1291,1287
  2269   000D16  DB28               	rcall	SPRITE4
  2270   000D18  6E2D               	movwf	1325,c
  2271                           
  2272                           ;'CASE 5: READTABLE SPRITE5, CHARCODE, GLCDHICHANGE
  2273   000D1A  D023               	bra	SYSSELECTEND3
  2274   000D1C                     SYSSELECT3CASE5:
  2275                           	callstack 0
  2276   000D1C  0E05               	movlw	5
  2277   000D1E  5C17               	subwf	1303,w,c
  2278   000D20  A4D8               	btfss	status,2,c
  2279   000D22  D005               	bra	SYSSELECT3CASE6
  2280                           
  2281                           ;'CASE 5: READTABLE SPRITE5, CHARCODE, GLCDHICHANGE
  2282   000D24  C50B F507          	movff	1291,1287
  2283   000D28  DB35               	rcall	SPRITE5
  2284   000D2A  6E2D               	movwf	1325,c
  2285                           
  2286                           ;'CASE 6: READTABLE SPRITE6, CHARCODE, GLCDHICHANGE
  2287   000D2C  D01A               	bra	SYSSELECTEND3
  2288   000D2E                     SYSSELECT3CASE6:
  2289                           	callstack 0
  2290   000D2E  0E06               	movlw	6
  2291   000D30  5C17               	subwf	1303,w,c
  2292   000D32  A4D8               	btfss	status,2,c
  2293   000D34  D005               	bra	SYSSELECT3CASE7
  2294                           
  2295                           ;'CASE 6: READTABLE SPRITE6, CHARCODE, GLCDHICHANGE
  2296   000D36  C50B F507          	movff	1291,1287
  2297   000D3A  DB42               	rcall	SPRITE6
  2298   000D3C  6E2D               	movwf	1325,c
  2299                           
  2300                           ;'CASE 7: READTABLE SPRITE7, CHARCODE, GLCDHICHANGE
  2301   000D3E  D011               	bra	SYSSELECTEND3
  2302   000D40                     SYSSELECT3CASE7:
  2303                           	callstack 0
  2304   000D40  0E07               	movlw	7
  2305   000D42  5C17               	subwf	1303,w,c
  2306   000D44  A4D8               	btfss	status,2,c
  2307   000D46  D005               	bra	SYSSELECT3CASE8
  2308                           
  2309                           ;'CASE 7: READTABLE SPRITE7, CHARCODE, GLCDHICHANGE
  2310   000D48  C50B F507          	movff	1291,1287
  2311   000D4C  DB4F               	rcall	SPRITE7
  2312   000D4E  6E2D               	movwf	1325,c
  2313                           
  2314                           ;'CASE 8: READTABLE SPRITE8, CHARCODE, GLCDHICHANGE
  2315   000D50  D008               	bra	SYSSELECTEND3
  2316   000D52                     SYSSELECT3CASE8:
  2317                           	callstack 0
  2318   000D52  0E08               	movlw	8
  2319   000D54  5C17               	subwf	1303,w,c
  2320   000D56  A4D8               	btfss	status,2,c
  2321   000D58  D004               	bra	SYSSELECTEND3
  2322                           
  2323                           ;'CASE 8: READTABLE SPRITE8, CHARCODE, GLCDHICHANGE
  2324   000D5A  C50B F507          	movff	1291,1287
  2325   000D5E  DB5C               	rcall	SPRITE8
  2326   000D60  6E2D               	movwf	1325,c
  2327   000D62                     SYSSELECTEND3:
  2328                           	callstack 0
  2329                           
  2330                           ;'GLCDLOCHANGE = 0
  2331   000D62  6A2E               	clrf	1326,c
  2332                           
  2333                           ;'REPEAT GLCDROTATEBITS
  2334   000D64  C533 F568          	movff	1331,1384
  2335   000D68  0105               	banksel	1384
  2336   000D6A  5368               	movf	1384,f,b
  2337   000D6C  B4D8               	btfsc	status,2,c
  2338   000D6E  D005               	bra	SYSREPEATLOOPEND4
  2339   000D70                     SYSREPEATLOOP4:
  2340                           	callstack 0
  2341                           
  2342                           ;'SET C OFF
  2343   000D70  90D8               	bcf	status,0,c
  2344                           
  2345                           ;'AS BITS MOVE TO LEFT C IS SET... MOVING IN GLCDLOCHANGE IN THE NEXT COMMAND
  2346                           ;'ROTATE GLCDHICHANGE LEFT
  2347   000D72  362D               	rlcf	1325,f,c
  2348                           
  2349                           ;'ROTATE GLCDLOCHANGE LEFT
  2350   000D74  362E               	rlcf	1326,f,c
  2351                           
  2352                           ;'END REPEAT
  2353   000D76  2F68               	decfsz	1384,f,b
  2354   000D78  D7FB               	bra	SYSREPEATLOOP4
  2355   000D7A                     SYSREPEATLOOPEND4:
  2356                           	callstack 0
  2357                           
  2358                           ;'GLCDTEMP = SSD1306_BUFFERALIAS(SSD1306_BUFFERLOCATIONCALC) XOR GLCDLOCHANGE
  2359   000D7A  EE04 F0FF          	lfsr	0,4351
  2360   000D7E  505C               	movf	1372,w,c
  2361   000D80  26E9               	addwf	fsr0l,f,c
  2362   000D82  505D               	movf	1373,w,c
  2363   000D84  22EA               	addwfc	fsr0h,f,c
  2364   000D86  50EF               	movf	indf0,w,c
  2365   000D88  182E               	xorwf	1326,w,c
  2366   000D8A  6E34               	movwf	1332,c
  2367                           
  2368                           ;'SSD1306_BUFFERALIAS(SSD1306_BUFFERLOCATIONCALC) = GLCDTEMP
  2369   000D8C  EE04 F0FF          	lfsr	0,4351
  2370   000D90  505C               	movf	1372,w,c
  2371   000D92  26E9               	addwf	fsr0l,f,c
  2372   000D94  505D               	movf	1373,w,c
  2373   000D96  22EA               	addwfc	fsr0h,f,c
  2374   000D98  C534 F4EF          	movff	1332,indf0
  2375                           
  2376                           ;'WRITE_TRANSACTION_DATA_SSD1306(GLCDTEMP)
  2377                           ;'MACRO SOURCE: GLCD_SSD1306.H (1272)
  2378                           ;'HI2CSEND SSD1306SENDBYTE
  2379   000D9C  C534 F53F          	movff	1332,1343
  2380   000DA0  0100               	banksel	0
  2381   000DA2  D9AA               	rcall	SI2CSEND
  2382                           
  2383                           ;'SSD1306_BUFFERLOCATIONCALC++
  2384   000DA4  2A5C               	incf	1372,f,c
  2385   000DA6  B4D8               	btfsc	status,2,c
  2386   000DA8  2A5D               	incf	1373,f,c
  2387                           
  2388                           ;'NEXT
  2389   000DAA  0E08               	movlw	8
  2390   000DAC  5C17               	subwf	1303,w,c
  2391   000DAE  A0D8               	btfss	status,0,c
  2392   000DB0  D791               	bra	SYSFORLOOP3
  2393   000DB2                     SYSFORLOOPEND3:
  2394                           	callstack 0
  2395                           
  2396                           ;'CLOSE_TRANSACTION_SSD1306
  2397                           ;'MACRO SOURCE: GLCD_SSD1306.H (1305)
  2398                           ;'4WIRE NOT SUPPORTED, SEE WRITE_TRANSACTION_DATA_SSD1306
  2399                           ;'HI2CSTOP
  2400   000DB2  DA21               	rcall	SI2CSTOP
  2401   000DB4                     ENDIF7:
  2402                           	callstack 0
  2403   000DB4  0012               	return	
  2404   000DB6                     GLCDPRINT7:
  2405                           	callstack 0
  2406                           
  2407                           ;'GLCD.H SUB GLCDPRINT
  2408                           ;'DIM GLCDPRINTLOC  AS WORD
  2409                           ;'DIM GLCDPRINT_STRING_COUNTER, GLCDPRINTLEN AS BYTE
  2410                           ;'GLCDPRINTLEN = LCDPRINTDATA(0)
  2411   000DB6  C566 F4E9          	movff	1382,fsr0l
  2412   000DBA  C567 F4EA          	movff	1383,fsr0h
  2413   000DBE  C4EF F52F          	movff	indf0,1327
  2414                           
  2415                           ;'IF GLCDPRINTLEN = 0 THEN EXIT SUB
  2416   000DC2  522F               	movf	1327,f,c
  2417   000DC4  B4D8               	btfsc	status,2,c
  2418                           
  2419                           ;'IF GLCDPRINTLEN = 0 THEN EXIT SUB
  2420   000DC6  0012               	return	
  2421                           
  2422                           ;'IF GLCDPRINTLEN = 0 THEN EXIT SUB
  2423                           ;'GLCDPRINTLOC = PRINTLOCX
  2424   000DC8  C551 F530          	movff	1361,1328
  2425   000DCC  C552 F531          	movff	1362,1329
  2426                           
  2427                           ;'WRITE DATA
  2428                           ;'FOR GLCDPRINT_STRING_COUNTER = 1 TO GLCDPRINTLEN
  2429   000DD0  0E01               	movlw	1
  2430   000DD2  6E32               	movwf	1330,c
  2431   000DD4                     SYSFORLOOP4:
  2432                           	callstack 0
  2433                           
  2434                           ;'GLCDDRAWCHAR  GLCDPRINTLOC, PRINTLOCY, LCDPRINTDATA(GLCDPRINT_STRING_COUNTER)
  2435   000DD4  C530 F50F          	movff	1328,1295
  2436   000DD8  C531 F510          	movff	1329,1296
  2437   000DDC  C553 F511          	movff	1363,1297
  2438   000DE0  C554 F512          	movff	1364,1298
  2439   000DE4  5032               	movf	1330,w,c
  2440   000DE6  0105               	banksel	1382
  2441   000DE8  2566               	addwf	1382,w,b
  2442   000DEA  6EE9               	movwf	fsr0l,c
  2443   000DEC  0E00               	movlw	0
  2444   000DEE  2167               	addwfc	1383,w,b
  2445   000DF0  6EEA               	movwf	fsr0h,c
  2446   000DF2  C4EF F50B          	movff	indf0,1291
  2447   000DF6  C52B F540          	movff	1323,1344
  2448   000DFA  C52C F541          	movff	1324,1345
  2449   000DFE  0100               	banksel	0
  2450   000E00  DCE0               	rcall	GLCDDRAWCHAR_SSD1306
  2451                           
  2452                           ;'GLCDPRINTINCREMENTPIXELPOSITIONMACRO
  2453                           ;'MACRO SOURCE: GLCD.H (1462)
  2454                           ;'GLCDPRINTLOC = GLCDPRINTLOC + ( GLCDFONTWIDTH * GLCDFNTDEFAULTSIZE )+1
  2455   000E02  502A               	movf	1322,w,c
  2456   000E04  0229               	mulwf	1321,c
  2457   000E06  C4F3 F56C          	movff	prodl,1388
  2458   000E0A  0105               	banksel	1388
  2459   000E0C  516C               	movf	1388,w,b
  2460   000E0E  2430               	addwf	1328,w,c
  2461   000E10  6F6E               	movwf	1390,b
  2462   000E12  0E00               	movlw	0
  2463   000E14  2031               	addwfc	1329,w,c
  2464   000E16  6F6F               	movwf	1391,b
  2465   000E18  0E01               	movlw	1
  2466   000E1A  256E               	addwf	1390,w,b
  2467   000E1C  6E30               	movwf	1328,c
  2468   000E1E  0E00               	movlw	0
  2469   000E20  216F               	addwfc	1391,w,b
  2470   000E22  6E31               	movwf	1329,c
  2471                           
  2472                           ;'NEXT
  2473                           ;'POSITIVE VALUE STEP HANDLER IN FOR-NEXT STATEMENT :#4P 
  2474   000E24  5032               	movf	1330,w,c
  2475   000E26  5C2F               	subwf	1327,w,c
  2476   000E28  6F6C               	movwf	1388,b
  2477   000E2A  C56C F505          	movff	1388,1285
  2478   000E2E  6A09               	clrf	1289,c
  2479   000E30  0100               	banksel	0
  2480   000E32  DB0D               	rcall	SYSCOMPEQUAL
  2481   000E34  1E00               	comf	1280,f,c
  2482   000E36  A000               	btfss	1280,0,c
  2483   000E38  D002               	bra	ENDIF12
  2484                           
  2485                           ;'SET LOOPVAR TO LOOPVAR + STEPVALUE WHERE STEPVALUE IS A POSITIVE VALUE
  2486   000E3A  2A32               	incf	1330,f,c
  2487   000E3C  D7CB               	bra	SYSFORLOOP4
  2488   000E3E                     ENDIF12:
  2489                           	callstack 0
  2490   000E3E                     SYSFORLOOPEND4:
  2491                           	callstack 0
  2492                           
  2493                           ;'UPDATE THE CURRENT X POSITION FOR GLCDPRINTSTRING
  2494                           ;'PRINTLOCX = GLCDPRINTLOC
  2495   000E3E  C530 F551          	movff	1328,1361
  2496   000E42  C531 F552          	movff	1329,1362
  2497   000E46  0012               	return	
  2498   000E48                     HI2CINIT:
  2499                           	callstack 0
  2500                           
  2501                           ;'ASM SHOWDEBUG  THIS METHOD SETS THE VARIABLE `HI2CCURRENTMODE`, AND, IF REQUIRED CALLS THE METHOD `SI2CINIT` TO SET UP NEW MSSP MODULES - AKA K-MO
      +                          DE FAMILY CHIPS
  2502                           ;'HI2CCURRENTMODE = 0
  2503   000E48  6A3D               	clrf	1341,c
  2504                           
  2505                           ;'INITIALISE THE I2C MODULE
  2506                           ;'SI2CINIT
  2507   000E4A  D13E               	bra	SI2CINIT
  2508   000E4C                     HI2CMODE:
  2509                           	callstack 0
  2510                           
  2511                           ;'ASM SHOWDEBUG  THIS METHOD SETS THE VARIABLE `HI2CCURRENTMODE`, AND, IF REQUIRED, SETS THE SSPCON1.BITS
  2512   000E4C  0012               	return	
  2513   000E4E                     INITGLCD_SSD1306:
  2514                           	callstack 0
  2515                           
  2516                           ;'COLOURS //SET THESE FIRST
  2517                           ;'GLCDBACKGROUND = 0
  2518   000E4E  6A20               	clrf	1312,c
  2519   000E50  6A21               	clrf	1313,c
  2520                           
  2521                           ;'GLCDFOREGROUND = 1
  2522   000E52  0E01               	movlw	1
  2523   000E54  6E2B               	movwf	1323,c
  2524   000E56  6A2C               	clrf	1324,c
  2525                           
  2526                           ;'GLCDFONTWIDTH = 5
  2527   000E58  0E05               	movlw	5
  2528   000E5A  6E2A               	movwf	1322,c
  2529                           
  2530                           ;'GLCDFNTDEFAULTHEIGHT = 7  'USED BY GLCDPRINTSTRING AND GLCDPRINTSTRINGLN
  2531   000E5C  0E07               	movlw	7
  2532   000E5E  6E28               	movwf	1320,c
  2533                           
  2534                           ;'DIM PRINTLOCX, PRINTLOCY AS WORD
  2535                           ;'GLCDFNTDEFAULT = 0
  2536   000E60  6A27               	clrf	1319,c
  2537                           
  2538                           ;'GLCDFNTDEFAULTSIZE = 1
  2539   000E62  0E01               	movlw	1
  2540   000E64  6E29               	movwf	1321,c
  2541                           
  2542                           ;'WAIT 255 MS             'ADDED TO ENSURE THE CHARGE PUMP AND POWER IS OPERATIONAL.
  2543   000E66  6802               	setf	1282,c
  2544   000E68  6A03               	clrf	1283,c
  2545   000E6A  ECC7  F001         	call	DELAY_MS
  2546                           
  2547                           ;'HI2CMODE MASTER
  2548   000E6E  0E0C               	movlw	12
  2549   000E70  6E3D               	movwf	1341,c
  2550   000E72  DFEC               	rcall	HI2CMODE
  2551                           
  2552                           ;'WAIT 15 MS  'WAIT FOR POWER-UP AND RESET
  2553   000E74  0E0F               	movlw	15
  2554   000E76  6E02               	movwf	1282,c
  2555   000E78  6A03               	clrf	1283,c
  2556   000E7A  ECC7  F001         	call	DELAY_MS
  2557                           
  2558                           ;'SETUP CODE FOR SSD1306 CONTROLLERS
  2559                           ;'INIT SEQUENCE FOR 128X64 OLED MODULE
  2560                           ;'WRITE_COMMAND_SSD1306(SSD1306_DISPLAYOFF)                    ' 0XAE
  2561   000E7E  0EAE               	movlw	174
  2562   000E80  6E5B               	movwf	1371,c
  2563   000E82  DB42               	rcall	WRITE_COMMAND_SSD1306
  2564                           
  2565                           ;'WRITE_COMMAND_SSD1306(SSD1306_DEACTIVATE_SCROLL)
  2566   000E84  0E2E               	movlw	46
  2567   000E86  6E5B               	movwf	1371,c
  2568   000E88  DB3F               	rcall	WRITE_COMMAND_SSD1306
  2569                           
  2570                           ;'WRITE_COMMAND_SSD1306(SSD1306_SETDISPLAYCLOCKDIV)            ' 0XD5
  2571   000E8A  0ED5               	movlw	213
  2572   000E8C  6E5B               	movwf	1371,c
  2573   000E8E  DB3C               	rcall	WRITE_COMMAND_SSD1306
  2574                           
  2575                           ;'WRITE_COMMAND_SSD1306(0X80)                                  ' THE SUGGESTED RATIO 0X80
  2576   000E90  0E80               	movlw	128
  2577   000E92  6E5B               	movwf	1371,c
  2578   000E94  DB39               	rcall	WRITE_COMMAND_SSD1306
  2579                           
  2580                           ;'WRITE_COMMAND_SSD1306(SSD1306_SETMULTIPLEX)                  ' 0XA8
  2581   000E96  0EA8               	movlw	168
  2582   000E98  6E5B               	movwf	1371,c
  2583   000E9A  DB36               	rcall	WRITE_COMMAND_SSD1306
  2584                           
  2585                           ;'WRITE_COMMAND_SSD1306(0X3F)                                 '64 PIXELS
  2586   000E9C  0E3F               	movlw	63
  2587   000E9E  6E5B               	movwf	1371,c
  2588   000EA0  DB33               	rcall	WRITE_COMMAND_SSD1306
  2589                           
  2590                           ;'WRITE_COMMAND_SSD1306(SSD1306_SETDISPLAYOFFSET)              ' 0XD3
  2591   000EA2  0ED3               	movlw	211
  2592   000EA4  6E5B               	movwf	1371,c
  2593   000EA6  DB30               	rcall	WRITE_COMMAND_SSD1306
  2594                           
  2595                           ;'WRITE_COMMAND_SSD1306(0X00)                                   ' NO OFFSET
  2596   000EA8  6A5B               	clrf	1371,c
  2597   000EAA  DB2E               	rcall	WRITE_COMMAND_SSD1306
  2598                           
  2599                           ;'WRITE_COMMAND_SSD1306(SSD1306_SETSTARTLINE | 0X00)            ' LINE #0
  2600   000EAC  0E40               	movlw	64
  2601   000EAE  6E5B               	movwf	1371,c
  2602   000EB0  DB2B               	rcall	WRITE_COMMAND_SSD1306
  2603                           
  2604                           ;'WRITE_COMMAND_SSD1306(SSD1306_CHARGEPUMP)                    ' 0X8D
  2605   000EB2  0E8D               	movlw	141
  2606   000EB4  6E5B               	movwf	1371,c
  2607   000EB6  DB28               	rcall	WRITE_COMMAND_SSD1306
  2608                           
  2609                           ;'IF (SSD1306_VCCSTATE = SSD1306_EXTERNALVCC) THEN
  2610                           ;'WRITE_COMMAND_SSD1306(0X14)
  2611   000EB8  0E14               	movlw	20
  2612   000EBA  6E5B               	movwf	1371,c
  2613   000EBC  DB25               	rcall	WRITE_COMMAND_SSD1306
  2614                           
  2615                           ;'END IF
  2616                           ;'WRITE_COMMAND_SSD1306(SSD1306_MEMORYMODE)                    ' 0X20
  2617   000EBE  0E20               	movlw	32
  2618   000EC0  6E5B               	movwf	1371,c
  2619   000EC2  DB22               	rcall	WRITE_COMMAND_SSD1306
  2620                           
  2621                           ;'WRITE_COMMAND_SSD1306(0X00)                                  ' 0X00 ACT LIKE KS0108 - DO NOT SELECT!!
  2622                           ;'WRITE_COMMAND_SSD1306(0X10)                                  ' 0X01 ACT LIKE PCD8544
  2623   000EC4  0E10               	movlw	16
  2624   000EC6  6E5B               	movwf	1371,c
  2625   000EC8  DB1F               	rcall	WRITE_COMMAND_SSD1306
  2626                           
  2627                           ;'WRITE_COMMAND_SSD1306(SSD1306_SEGREMAP | 0X1)
  2628   000ECA  0EA1               	movlw	161
  2629   000ECC  6E5B               	movwf	1371,c
  2630   000ECE  DB1C               	rcall	WRITE_COMMAND_SSD1306
  2631                           
  2632                           ;'WRITE_COMMAND_SSD1306(SSD1306_COMSCANDEC)
  2633   000ED0  0EC8               	movlw	200
  2634   000ED2  6E5B               	movwf	1371,c
  2635   000ED4  DB19               	rcall	WRITE_COMMAND_SSD1306
  2636                           
  2637                           ;'WRITE_COMMAND_SSD1306(SSD1306_SETCOMPINS)                    ' 0XDA
  2638   000ED6  0EDA               	movlw	218
  2639   000ED8  6E5B               	movwf	1371,c
  2640   000EDA  DB16               	rcall	WRITE_COMMAND_SSD1306
  2641                           
  2642                           ;'WRITE_COMMAND_SSD1306(0X12)                                 '64 PIXELS
  2643   000EDC  0E12               	movlw	18
  2644   000EDE  6E5B               	movwf	1371,c
  2645   000EE0  DB13               	rcall	WRITE_COMMAND_SSD1306
  2646                           
  2647                           ;'WRITE_COMMAND_SSD1306(SSD1306_SETCONTRAST)                   ' 0X81
  2648   000EE2  0E81               	movlw	129
  2649   000EE4  6E5B               	movwf	1371,c
  2650   000EE6  DB10               	rcall	WRITE_COMMAND_SSD1306
  2651                           
  2652                           ;'IF SSD1306_VCCSTATE = SSD1306_EXTERNALVCC THEN
  2653                           ;'WRITE_COMMAND_SSD1306(0XCF)
  2654   000EE8  0ECF               	movlw	207
  2655   000EEA  6E5B               	movwf	1371,c
  2656   000EEC  DB0D               	rcall	WRITE_COMMAND_SSD1306
  2657                           
  2658                           ;'END IF
  2659                           ;'WRITE_COMMAND_SSD1306(SSD1306_SETPRECHARGE)                  ' 0XD9
  2660   000EEE  0ED9               	movlw	217
  2661   000EF0  6E5B               	movwf	1371,c
  2662   000EF2  DB0A               	rcall	WRITE_COMMAND_SSD1306
  2663                           
  2664                           ;'IF SSD1306_VCCSTATE = SSD1306_EXTERNALVCC THEN
  2665                           ;'WRITE_COMMAND_SSD1306(0XF1)
  2666   000EF4  0EF1               	movlw	241
  2667   000EF6  6E5B               	movwf	1371,c
  2668   000EF8  DB07               	rcall	WRITE_COMMAND_SSD1306
  2669                           
  2670                           ;'END IF
  2671                           ;'WRITE_COMMAND_SSD1306(SSD1306_SETVCOMDETECT)                 ' 0XDB
  2672   000EFA  0EDB               	movlw	219
  2673   000EFC  6E5B               	movwf	1371,c
  2674   000EFE  DB04               	rcall	WRITE_COMMAND_SSD1306
  2675                           
  2676                           ;'WRITE_COMMAND_SSD1306(0X40)
  2677   000F00  0E40               	movlw	64
  2678   000F02  6E5B               	movwf	1371,c
  2679   000F04  DB01               	rcall	WRITE_COMMAND_SSD1306
  2680                           
  2681                           ;'WRITE_COMMAND_SSD1306(SSD1306_DISPLAYALLON_RESUME)           ' 0XA4
  2682   000F06  0EA4               	movlw	164
  2683   000F08  6E5B               	movwf	1371,c
  2684   000F0A  DAFE               	rcall	WRITE_COMMAND_SSD1306
  2685                           
  2686                           ;'WRITE_COMMAND_SSD1306(SSD1306_NORMALDISPLAY)                 ' 0XA6
  2687   000F0C  0EA6               	movlw	166
  2688   000F0E  6E5B               	movwf	1371,c
  2689   000F10  DAFB               	rcall	WRITE_COMMAND_SSD1306
  2690                           
  2691                           ;'CLEAR SCREEN HERE
  2692                           ;'GLCDCLS_SSD1306
  2693   000F12  EC4F  F003         	call	GLCDCLS_SSD1306
  2694                           
  2695                           ;'WRITE_COMMAND_SSD1306(SSD1306_DISPLAYON)                     '--TURN ON OLED PANEL
  2696   000F16  0EAF               	movlw	175
  2697   000F18  6E5B               	movwf	1371,c
  2698   000F1A  D2F6               	bra	WRITE_COMMAND_SSD1306
  2699   000F1C                     INITPPS:
  2700                           	callstack 0
  2701                           
  2702                           ;'MODULE: I2C1
  2703                           ;'RB6PPS = 0X001C    // SCL1 > RB6
  2704   000F1C  0E1C               	movlw	28
  2705   000F1E  0103               	banksel	807
  2706   000F20  6F27               	movwf	807,b
  2707                           
  2708                           ;'I2C1SCLPPS = 0X000E    // RB6 > SCL1 (BI-DIRECTIONAL)
  2709   000F22  0E0E               	movlw	14
  2710   000F24  6FAD               	movwf	941,b
  2711                           
  2712                           ;'RB5PPS = 0X001D    // SDA1 > RB5
  2713   000F26  0E1D               	movlw	29
  2714   000F28  6F26               	movwf	806,b
  2715                           
  2716                           ;'I2C1SDAPPS = 0X000D    // RB5 > SDA1 (BI-DIRECTIONAL)
  2717   000F2A  0E0D               	movlw	13
  2718   000F2C  6FAE               	movwf	942,b
  2719                           
  2720                           ;'MODULE: UART PIN DIRECTIONS
  2721                           ;'DIR PORTB.7 OUT    // MAKE TX1 PIN AN OUTPUT
  2722   000F2E  9E8E               	bcf	1166,7,c
  2723                           
  2724                           ;'MODULE: UART1
  2725                           ;'RB7PPS = 0X0013    // TX1 > RB7
  2726   000F30  0E13               	movlw	19
  2727   000F32  6F28               	movwf	808,b
  2728   000F34  0100               	banksel	0
  2729   000F36  0012               	return	
  2730   000F38                     INITRANDOM:
  2731                           	callstack 0
  2732                           
  2733                           ;'DIM RANDOMSEED AS WORD
  2734                           ;'RANDOMSEED = RANDSTART
  2735   000F38  0E3D               	movlw	61
  2736   000F3A  6E56               	movwf	1366,c
  2737   000F3C  0E8A               	movlw	138
  2738   000F3E  6E57               	movwf	1367,c
  2739   000F40  0012               	return	
  2740   000F42                     INITSYS:
  2741                           	callstack 0
  2742                           
  2743                           ;'CLEAR BSR
  2744                           ;'MOVLB 0
  2745   000F42  0100               	movlb	0
  2746                           
  2747                           ;'ASM SHOWDEBUG DEFAULT SETTINGS FOR MICROCONTROLLERS WITH _OSCCON1_
  2748                           ;DEFAULT OSCCON1,NOSC HFINTOSC; NDIV 1 - COMMON AS THIS SIMPLY SETS THE HFINTOSC
  2749                           ;'OSCCON1 = 0X60
  2750   000F44  0E60               	movlw	96
  2751   000F46  6F7A               	movwf	122,b
  2752                           
  2753                           ;'DEFAULT VALUE TYPICALLY, CSWHOLD MAY PROCEED; SOSCPWR LOW POWER
  2754                           ;'OSCCON3 = 0X00
  2755   000F48  6B7C               	clrf	124,b
  2756                           
  2757                           ;'DEFAULT VALUE TYPICALLY, MFOEN DISABLED; LFOEN DISABLED; ADOEN DISABLED; SOSCEN DISABLED; EXTOEN DISABLED; HFOEN DISABLED
  2758                           ;'OSCEN = 0X00
  2759   000F4A  6B7E               	clrf	126,b
  2760                           
  2761                           ;'DEFAULT VALUE
  2762                           ;'OSCTUNE = 0X00
  2763   000F4C  6B7F               	clrf	127,b
  2764                           
  2765                           ;'ASM SHOWDEBUG THE MCU IS A CHIP FAMILY 16
  2766                           ;'SECTION SUPPORTS MANY MCUS, 18FXXK40, 18FXXK42 ETC THAT HAVE NDIV3 BIT
  2767                           ;'ASM SHOWDEBUG OSCCON TYPE IS 101
  2768                           ;'OSCCON1 = 0X60          // SETTING OSCCON1 IMPLIES CLEARING CLEAR NDIV3:0
  2769   000F4E  0E60               	movlw	96
  2770   000F50  6F7A               	movwf	122,b
  2771                           
  2772                           ;'OSCFRQ = 0B00001000  '64MHZ
  2773   000F52  0E08               	movlw	8
  2774   000F54  6F80               	movwf	128,b
  2775                           
  2776                           ;'ASM SHOWDEBUG _COMPLETE_THE_CHIP_SETUP_OF_BSR_ADCS_ANSEL_AND_OTHER_KEY_SETUP_REGISTERS_OR_REGISTER_BITS
  2777                           ;'CLEAR TBLPTRU
  2778                           ;'TBLPTRU = 0
  2779   000F56  6AF8               	clrf	tblptru,c
  2780                           
  2781                           ;'ENSURE ALL PORTS ARE SET FOR DIGITAL I/O AND, TURN OFF A/D
  2782                           ;'SET ADFM OFF
  2783   000F58  0102               	banksel	559
  2784   000F5A  952F               	bcf	559,2,b
  2785                           
  2786                           ;'SWITCH OFF A/D VAR(ADCON0)
  2787                           ;'SET ADCON0.ADON OFF
  2788   000F5C  9F2F               	bcf	559,7,b
  2789                           
  2790                           ;'ANSELA = 0
  2791   000F5E  0104               	banksel	1046
  2792   000F60  6B16               	clrf	1046,b
  2793                           
  2794                           ;'ANSELB = 0
  2795   000F62  6B20               	clrf	1056,b
  2796                           
  2797                           ;'ANSELC = 0
  2798   000F64  6B2A               	clrf	1066,b
  2799                           
  2800                           ;'TURN OFF ALL PORTS
  2801                           ;'PORTA = 0
  2802   000F66  6A87               	clrf	1159,c
  2803                           
  2804                           ;'PORTB = 0
  2805   000F68  6A88               	clrf	1160,c
  2806                           
  2807                           ;'PORTC = 0
  2808   000F6A  6A89               	clrf	1161,c
  2809   000F6C  0100               	banksel	0
  2810   000F6E  0012               	return	
  2811   000F70                     PSET_SSD1306:
  2812                           	callstack 0
  2813                           
  2814                           ;'SET PIXEL AT X, Y ON LCD TO STATE
  2815                           ;'X IS 0 TO 127
  2816                           ;'Y IS 0 TO 63
  2817                           ;'ORIGIN IN TOP LEFT
  2818                           ;'ANYTHING OFF SCREEN WITH BE REJECTED
  2819                           ;'IF GLCDX => GLCD_WIDTH OR GLCDY => GLCD_HEIGHT THEN
  2820   000F70  C536 F505          	movff	1334,1285
  2821   000F74  0E80               	movlw	128
  2822   000F76  6E09               	movwf	1289,c
  2823   000F78  DA78               	rcall	SYSCOMPLESSTHAN
  2824   000F7A  1E00               	comf	1280,f,c
  2825   000F7C  C500 F570          	movff	1280,1392
  2826   000F80  C537 F505          	movff	1335,1285
  2827   000F84  0E40               	movlw	64
  2828   000F86  6E09               	movwf	1289,c
  2829   000F88  DA70               	rcall	SYSCOMPLESSTHAN
  2830   000F8A  1E00               	comf	1280,f,c
  2831   000F8C  0105               	banksel	1392
  2832   000F8E  5170               	movf	1392,w,b
  2833   000F90  1000               	iorwf	1280,w,c
  2834   000F92  6F6C               	movwf	1388,b
  2835   000F94  A16C               	btfss	1388,0,b
  2836   000F96  D002               	bra	ENDIF46
  2837                           
  2838                           ;'EXIT SUB
  2839   000F98  0100               	banksel	0
  2840   000F9A  0012               	return	
  2841   000F9C                     ENDIF46:
  2842                           	callstack 0
  2843                           
  2844                           ;'1.14 ADDRESSES CORRECT DEVICE HORIZONAL PAGE
  2845                           ;'DON'T NEED TO DO THESE CALCULATIONS FOR ((CWG1CON1) and 0FFh), 5, b LOWMEMORY_GLCD_MODE
  2846                           ;'SSD1306_BUFFERLOCATIONCALC = ( GLCDY / 8 )* GLCD_WIDTH
  2847                           ;'FASTER THAN /8
  2848                           ;'SSD1306_BUFFERLOCATIONCALC = GLCDY
  2849   000F9C  C537 F55C          	movff	1335,1372
  2850   000FA0  6A5D               	clrf	1373,c
  2851                           
  2852                           ;'REPEAT 3
  2853   000FA2  0E03               	movlw	3
  2854   000FA4  6F6A               	movwf	1386,b
  2855   000FA6                     SYSREPEATLOOP6:
  2856                           	callstack 0
  2857                           
  2858                           ;'SET C OFF
  2859   000FA6  90D8               	bcf	status,0,c
  2860                           
  2861                           ;'ROTATE SSD1306_BUFFERLOCATIONCALC RIGHT
  2862   000FA8  325D               	rrcf	1373,f,c
  2863   000FAA  325C               	rrcf	1372,f,c
  2864                           
  2865                           ;'END REPEAT
  2866   000FAC  2F6A               	decfsz	1386,f,b
  2867   000FAE  D7FB               	bra	SYSREPEATLOOP6
  2868   000FB0                     SYSREPEATLOOPEND6:
  2869                           	callstack 0
  2870                           
  2871                           ;'FASTER THAN * 128
  2872                           ;'SET C OFF
  2873   000FB0  90D8               	bcf	status,0,c
  2874                           
  2875                           ;'REPEAT 7
  2876   000FB2  0E07               	movlw	7
  2877   000FB4  6F6A               	movwf	1386,b
  2878   000FB6                     SYSREPEATLOOP7:
  2879                           	callstack 0
  2880                           
  2881                           ;'ROTATE SSD1306_BUFFERLOCATIONCALC LEFT
  2882   000FB6  365C               	rlcf	1372,f,c
  2883   000FB8  365D               	rlcf	1373,f,c
  2884                           
  2885                           ;'END REPEAT
  2886   000FBA  2F6A               	decfsz	1386,f,b
  2887   000FBC  D7FC               	bra	SYSREPEATLOOP7
  2888   000FBE                     SYSREPEATLOOPEND7:
  2889                           	callstack 0
  2890                           
  2891                           ;'SSD1306_BUFFERLOCATIONCALC = GLCDX + SSD1306_BUFFERLOCATIONCALC + 1
  2892   000FBE  505C               	movf	1372,w,c
  2893   000FC0  2436               	addwf	1334,w,c
  2894   000FC2  6F6C               	movwf	1388,b
  2895   000FC4  6B70               	clrf	1392,b
  2896   000FC6  505D               	movf	1373,w,c
  2897   000FC8  2170               	addwfc	1392,w,b
  2898   000FCA  6F6D               	movwf	1389,b
  2899   000FCC  0E01               	movlw	1
  2900   000FCE  256C               	addwf	1388,w,b
  2901   000FD0  6E5C               	movwf	1372,c
  2902   000FD2  0E00               	movlw	0
  2903   000FD4  216D               	addwfc	1389,w,b
  2904   000FD6  6E5D               	movwf	1373,c
  2905                           
  2906                           ;'ANYTHING BEYOND BUFFER BOUNDARY?
  2907                           ;'WHY? X = 127 AND Y = 64 (Y IS OVER 63!) WILL HAVE PASSED FIRST CHECK....
  2908                           ;'IF SSD1306_BUFFERLOCATIONCALC > GLCD_HEIGHT * GLCD_WIDTH THEN
  2909   000FD8  C55C F509          	movff	1372,1289
  2910   000FDC  C55D F50A          	movff	1373,1290
  2911   000FE0  6A05               	clrf	1285,c
  2912   000FE2  0E20               	movlw	32
  2913   000FE4  6E06               	movwf	1286,c
  2914   000FE6  0100               	banksel	0
  2915   000FE8  DA45               	rcall	SYSCOMPLESSTHAN16
  2916   000FEA  B000               	btfsc	1280,0,c
  2917                           
  2918                           ;'EXIT SUB
  2919   000FEC  0012               	return	
  2920                           
  2921                           ;'END IF
  2922                           ;'GLCDDATATEMP = SSD1306_BUFFERALIAS(SSD1306_BUFFERLOCATIONCALC)
  2923   000FEE  EE04 F0FF          	lfsr	0,4351
  2924   000FF2  505C               	movf	1372,w,c
  2925   000FF4  26E9               	addwf	fsr0l,f,c
  2926   000FF6  505D               	movf	1373,w,c
  2927   000FF8  22EA               	addwfc	fsr0h,f,c
  2928   000FFA  C4EF F526          	movff	indf0,1318
  2929                           
  2930                           ;'CHANGE DATA TO SET/CLEAR PIXEL
  2931                           ;'GLCDBITNO = GLCDY AND 7
  2932   000FFE  0E07               	movlw	7
  2933   001000  1437               	andwf	1335,w,c
  2934   001002  6E22               	movwf	1314,c
  2935                           
  2936                           ;'IF GLCDCOLOUR.0 = 0 THEN
  2937   001004  B024               	btfsc	1316,0,c
  2938   001006  D004               	bra	ELSE48_1
  2939                           
  2940                           ;'GLCDCHANGE = 254
  2941   001008  0EFE               	movlw	254
  2942   00100A  6E23               	movwf	1315,c
  2943                           
  2944                           ;'SET C ON
  2945   00100C  80D8               	bsf	status,0,c
  2946                           
  2947                           ;'ELSE
  2948   00100E  D003               	bra	ENDIF48
  2949   001010                     ELSE48_1:
  2950                           	callstack 0
  2951                           
  2952                           ;'GLCDCHANGE = 1
  2953   001010  0E01               	movlw	1
  2954   001012  6E23               	movwf	1315,c
  2955                           
  2956                           ;'SET C OFF
  2957   001014  90D8               	bcf	status,0,c
  2958   001016                     ENDIF48:
  2959                           	callstack 0
  2960                           
  2961                           ;'REPEAT GLCDBITNO
  2962   001016  C522 F56A          	movff	1314,1386
  2963   00101A  0105               	banksel	1386
  2964   00101C  536A               	movf	1386,f,b
  2965   00101E  B4D8               	btfsc	status,2,c
  2966   001020  D003               	bra	SYSREPEATLOOPEND8
  2967   001022                     SYSREPEATLOOP8:
  2968                           	callstack 0
  2969                           
  2970                           ;'ROTATE GLCDCHANGE LEFT
  2971   001022  3623               	rlcf	1315,f,c
  2972                           
  2973                           ;'END REPEAT
  2974   001024  2F6A               	decfsz	1386,f,b
  2975   001026  D7FD               	bra	SYSREPEATLOOP8
  2976   001028                     SYSREPEATLOOPEND8:
  2977                           	callstack 0
  2978                           
  2979                           ;'IF GLCDCOLOUR.0 = 0 THEN
  2980   001028  B024               	btfsc	1316,0,c
  2981   00102A  D004               	bra	ELSE49_1
  2982                           
  2983                           ;'GLCDDATATEMP = GLCDDATATEMP AND GLCDCHANGE
  2984   00102C  5026               	movf	1318,w,c
  2985   00102E  1423               	andwf	1315,w,c
  2986   001030  6E26               	movwf	1318,c
  2987                           
  2988                           ;'ELSE
  2989   001032  D003               	bra	ENDIF49
  2990   001034                     ELSE49_1:
  2991                           	callstack 0
  2992                           
  2993                           ;'GLCDDATATEMP = GLCDDATATEMP OR GLCDCHANGE
  2994   001034  5026               	movf	1318,w,c
  2995   001036  1023               	iorwf	1315,w,c
  2996   001038  6E26               	movwf	1318,c
  2997   00103A                     ENDIF49:
  2998                           	callstack 0
  2999                           
  3000                           ;'ADDED 1.14 TO ISOLATE FROM FULL GLCD MODE
  3001                           ;'REVISED 1.14 TO ISOLATE FROM LOW MEMORY MODE
  3002                           ;'IF SSD1306_BUFFERALIAS(SSD1306_BUFFERLOCATIONCALC) <> GLCDDATATEMP THEN
  3003   00103A  EE04 F0FF          	lfsr	0,4351
  3004   00103E  505C               	movf	1372,w,c
  3005   001040  26E9               	addwf	fsr0l,f,c
  3006   001042  505D               	movf	1373,w,c
  3007   001044  22EA               	addwfc	fsr0h,f,c
  3008   001046  5026               	movf	1318,w,c
  3009   001048  5CEF               	subwf	indf0,w,c
  3010   00104A  B4D8               	btfsc	status,2,c
  3011   00104C  D012               	bra	ENDIF50
  3012                           
  3013                           ;'SSD1306_BUFFERALIAS(SSD1306_BUFFERLOCATIONCALC) = GLCDDATATEMP
  3014   00104E  EE04 F0FF          	lfsr	0,4351
  3015   001052  505C               	movf	1372,w,c
  3016   001054  26E9               	addwf	fsr0l,f,c
  3017   001056  505D               	movf	1373,w,c
  3018   001058  22EA               	addwfc	fsr0h,f,c
  3019   00105A  C526 F4EF          	movff	1318,indf0
  3020                           
  3021                           ;'CURSOR_POSITION_SSD1306 ( GLCDX, GLCDY )
  3022   00105E  C536 F54A          	movff	1334,1354
  3023   001062  C537 F54B          	movff	1335,1355
  3024   001066  0100               	banksel	0
  3025   001068  EC96  F001         	call	CURSOR_POSITION_SSD1306
  3026                           
  3027                           ;'WRITE_DATA_SSD1306 ( GLCDDATATEMP )
  3028   00106C  C526 F55B          	movff	1318,1371
  3029   001070  DA55               	rcall	WRITE_DATA_SSD1306
  3030   001072                     ENDIF50:
  3031                           	callstack 0
  3032   001072  0100               	banksel	0
  3033   001074  0012               	return	
  3034   001076                     FN_RANDOM:
  3035                           	callstack 0
  3036                           
  3037                           ;'REPEAT 7
  3038   001076  0E07               	movlw	7
  3039   001078  0105               	banksel	1385
  3040   00107A  6F69               	movwf	1385,b
  3041   00107C                     SYSREPEATLOOP5:
  3042                           	callstack 0
  3043                           
  3044                           ;'DIM RANDOMTEMP AS WORD
  3045                           ;'DIM RANDOMSEED AS WORD
  3046                           ;'RANDOMTEMP = RANDOMSEED
  3047   00107C  C556 F558          	movff	1366,1368
  3048   001080  C557 F559          	movff	1367,1369
  3049                           
  3050                           ;'ROTATE RANDOMTEMP LEFT SIMPLE
  3051   001084  3459               	rlcf	1369,w,c
  3052   001086  3658               	rlcf	1368,f,c
  3053   001088  3659               	rlcf	1369,f,c
  3054                           
  3055                           ;'TAPS AT 16, 15, 13, 11, AND WITH B'1101 0100 0000 0000' = D800
  3056                           ;'EXPANDED BELOW CALCULATION TO REDUCE COMPLEXITY OF CALC
  3057                           ;'RANDOMSEED = RANDOMTEMP XOR (NOT (RANDOMSEED AND 1) + 1 AND 0XB400)
  3058   00108A  0E01               	movlw	1
  3059   00108C  1456               	andwf	1366,w,c
  3060   00108E  6F6E               	movwf	1390,b
  3061   001090  6B6F               	clrf	1391,b
  3062   001092  1D6E               	comf	1390,w,b
  3063   001094  6F6C               	movwf	1388,b
  3064   001096  1D6F               	comf	1391,w,b
  3065   001098  6F6D               	movwf	1389,b
  3066   00109A  0E01               	movlw	1
  3067   00109C  256C               	addwf	1388,w,b
  3068   00109E  6F6E               	movwf	1390,b
  3069   0010A0  0E00               	movlw	0
  3070   0010A2  216D               	addwfc	1389,w,b
  3071   0010A4  6F6F               	movwf	1391,b
  3072   0010A6  6B6C               	clrf	1388,b
  3073   0010A8  0EB4               	movlw	180
  3074   0010AA  156F               	andwf	1391,w,b
  3075   0010AC  6F6D               	movwf	1389,b
  3076   0010AE  5058               	movf	1368,w,c
  3077   0010B0  196C               	xorwf	1388,w,b
  3078   0010B2  6E56               	movwf	1366,c
  3079   0010B4  5059               	movf	1369,w,c
  3080   0010B6  196D               	xorwf	1389,w,b
  3081   0010B8  6E57               	movwf	1367,c
  3082                           
  3083                           ;'EXPANDED BELOW CALCULATION TO REDUCE COMPLEXITY OF CALC
  3084                           ;'RANDOMSEED = NOT (RANDOMSEED AND 1) + 1
  3085                           ;'RANDOMSEED = RANDOMSEED AND 0XB400
  3086                           ;'RANDOMSEED = RANDOMTEMP XOR RANDOMSEED
  3087                           ;'RANDOM = RANDOM XOR RANDOMSEED_H
  3088   0010BA  5055               	movf	1365,w,c
  3089   0010BC  1857               	xorwf	1367,w,c
  3090   0010BE  6E55               	movwf	1365,c
  3091                           
  3092                           ;'END REPEAT
  3093   0010C0  2F69               	decfsz	1385,f,b
  3094   0010C2  D7DC               	bra	SYSREPEATLOOP5
  3095   0010C4                     SYSREPEATLOOPEND5:
  3096                           	callstack 0
  3097   0010C4  0100               	banksel	0
  3098   0010C6  0012               	return	
  3099   0010C8                     SI2CINIT:
  3100                           	callstack 0
  3101                           
  3102                           ;'ASM SHOWDEBUG  THIS METHOD SETS THE MSSP MODULES FOR K-MODE FAMILY CHIPS
  3103                           ;'DIR HI2C_DATA OUT
  3104   0010C8  9A8E               	bcf	1166,5,c
  3105                           
  3106                           ;'DIR HI2C_CLOCK OUT
  3107   0010CA  9C8E               	bcf	1166,6,c
  3108                           
  3109                           ;'I2C1CON1 = I2C1I2C1CON1DEFAULT
  3110   0010CC  0E80               	movlw	128
  3111   0010CE  0101               	banksel	487
  3112   0010D0  6FE7               	movwf	487,b
  3113                           
  3114                           ;'I2C1CON2 = I2C1I2C1CON2DEFAULT
  3115   0010D2  0E21               	movlw	33
  3116   0010D4  6FE8               	movwf	488,b
  3117                           
  3118                           ;'I2C1CLK =  I2C1CLOCKSOURCE
  3119   0010D6  0E03               	movlw	3
  3120   0010D8  6FF9               	movwf	505,b
  3121                           
  3122                           ;'I2C1CON0 = I2C1I2C1CON0DEFAULT
  3123   0010DA  0E84               	movlw	132
  3124   0010DC  6FE6               	movwf	486,b
  3125                           
  3126                           ;'I2C1PIR = 0    ;CLEAR ALL THE ERROR FLAGS
  3127   0010DE  6BEA               	clrf	490,b
  3128                           
  3129                           ;'I2C1ERR = 0
  3130   0010E0  6BEC               	clrf	492,b
  3131                           
  3132                           ;'I2C1CON0.EN=1
  3133   0010E2  8FE6               	bsf	486,7,b
  3134                           
  3135                           ;'COMMENCE I2C PROTOCOL
  3136                           ;'I2C1CON2.ACNT = 0
  3137   0010E4  9FE8               	bcf	488,7,b
  3138                           
  3139                           ;'I2C1CON2.ABD=0
  3140   0010E6  99E8               	bcf	488,4,b
  3141                           
  3142                           ;'I2C1CON0.MDR=1
  3143   0010E8  87E6               	bsf	486,3,b
  3144                           
  3145                           ;'INITIALISE CORRECT STATE OF I2C MODULE. NOT SURE WHY THIS IS NEEDED BUT IT IS. MICROCHIP FAILED TO EXPLAIN WHY THIS IS REQUIRED. BUT, IT IS.
  3146                           ;'SI2CSTART
  3147   0010EA  0100               	banksel	0
  3148   0010EC  D87F               	rcall	SI2CSTART
  3149                           
  3150                           ;'SI2CSEND ( 0XFF )
  3151   0010EE  683F               	setf	1343,c
  3152   0010F0  D803               	rcall	SI2CSEND
  3153                           
  3154                           ;'SI2CSTOP
  3155   0010F2  D881               	rcall	SI2CSTOP
  3156                           
  3157                           ;'HI2CCURRENTMODE = 0
  3158   0010F4  6A3D               	clrf	1341,c
  3159   0010F6  0012               	return	
  3160   0010F8                     SI2CSEND:
  3161                           	callstack 0
  3162   0010F8                     SYSSELECT4CASE1:
  3163                           	callstack 0
  3164   0010F8  0E02               	movlw	2
  3165   0010FA  5C3B               	subwf	1339,w,c
  3166   0010FC  A4D8               	btfss	status,2,c
  3167   0010FE  D01D               	bra	SYSSELECT4CASE2
  3168                           
  3169                           ;'HI2CWAITMSSPTIMEOUT = 0
  3170   001100  6A3E               	clrf	1342,c
  3171   001102                     SYSDOLOOP_S3:
  3172                           	callstack 0
  3173   001102  0EFF               	movlw	255
  3174   001104  5C3E               	subwf	1342,w,c
  3175   001106  B0D8               	btfsc	status,0,c
  3176   001108  D012               	bra	SYSDOLOOP_E3
  3177                           
  3178                           ;'HI2CWAITMSSPTIMEOUT++
  3179   00110A  2A3E               	incf	1342,f,c
  3180                           
  3181                           ;'WAIT FOR THIS EVENT
  3182                           ;'IF I2C1STAT1.TXBE = 1 THEN
  3183   00110C  0101               	banksel	485
  3184   00110E  ABE5               	btfss	485,5,b
  3185   001110  D009               	bra	ELSE19_1
  3186                           
  3187                           ;'SET THE BYTE COUNT TO 1, PLACE OUTBYTE IN REGISTER, AND WAIT FOR HARDWARE STATE MACHINE
  3188                           ;'I2C1CNT = 1
  3189   001112  0E01               	movlw	1
  3190   001114  6FED               	movwf	493,b
  3191                           
  3192                           ;'I2C1TXB = I2CBYTE
  3193   001116  C53F F1F0          	movff	1343,496
  3194                           
  3195                           ;'SI2CWAIT4ACK
  3196   00111A  0100               	banksel	0
  3197   00111C  D891               	rcall	SI2CWAIT4ACK
  3198                           
  3199                           ;'SI2CWAIT4MDR
  3200   00111E  D8B2               	rcall	SI2CWAIT4MDR
  3201                           
  3202                           ;'EXIT SUB
  3203   001120  0012               	return	
  3204                           
  3205                           ;'ELSE
  3206   001122  D004               	bra	ENDIF19
  3207   001124                     ELSE19_1:
  3208                           	callstack 0
  3209                           
  3210                           ;'WAIT 1 US
  3211   001124  0E05               	movlw	5
  3212   001126  6E00               	movwf	1280,c
  3213   001128                     DELAYUS4:
  3214                           	callstack 0
  3215   001128  2E00               	decfsz	1280,f,c
  3216   00112A  D7FE               	bra	DELAYUS4
  3217   00112C                     ENDIF19:
  3218                           	callstack 0
  3219                           
  3220                           ;'LOOP
  3221   00112C  D7EA               	bra	SYSDOLOOP_S3
  3222   00112E                     SYSDOLOOP_E3:
  3223                           	callstack 0
  3224                           
  3225                           ;'IF HI2CWAITMSSPTIMEOUT = 255 THEN HI2C1LASTERROR = HI2C1LASTERROR OR I2C1_TXBE_TIMEOUT
  3226   00112E  283E               	incf	1342,w,c
  3227   001130  A4D8               	btfss	status,2,c
  3228   001132  D002               	bra	ENDIF20
  3229                           
  3230                           ;'IF HI2CWAITMSSPTIMEOUT = 255 THEN HI2C1LASTERROR = HI2C1LASTERROR OR I2C1_TXBE_TIMEOUT
  3231   001134  0E02               	movlw	2
  3232   001136  123A               	iorwf	1338,f,c
  3233   001138                     ENDIF20:
  3234                           	callstack 0
  3235                           
  3236                           ;'CASE 1  'A START
  3237   001138  D057               	bra	SYSSELECTEND4
  3238   00113A                     SYSSELECT4CASE2:
  3239                           	callstack 0
  3240   00113A  043B               	decf	1339,w,c
  3241   00113C  A4D8               	btfss	status,2,c
  3242   00113E  D02D               	bra	SYSSELECT4CASE3
  3243                           
  3244                           ;'CLEAR THE OUTPUT BUFFERS, SET BYTE COUNT TO ZERO, CLEAR EVENT AND PLACE SLAVE ADDRESS IN REGISTER
  3245                           ;'I2C1STAT1.CLRBF = 1
  3246   001140  0101               	banksel	485
  3247   001142  85E5               	bsf	485,2,b
  3248                           
  3249                           ;'I2C1CNT = 0
  3250   001144  6BED               	clrf	493,b
  3251                           
  3252                           ;'I2C1PIR.SCIF = 0
  3253   001146  91EA               	bcf	490,0,b
  3254                           
  3255                           ;'I2C1ADB1 = I2CBYTE
  3256   001148  C53F F1F2          	movff	1343,498
  3257                           
  3258                           ;'SET TO START
  3259                           ;'I2C1CON0.S = 1
  3260   00114C  8BE6               	bsf	486,5,b
  3261                           
  3262                           ;'HI2CWAITMSSPTIMEOUT = 0
  3263   00114E  6A3E               	clrf	1342,c
  3264   001150                     SYSDOLOOP_S4:
  3265                           	callstack 0
  3266   001150  0EFF               	movlw	255
  3267   001152  5C3E               	subwf	1342,w,c
  3268   001154  B0D8               	btfsc	status,0,c
  3269   001156  D01B               	bra	SYSDOLOOP_E4
  3270                           
  3271                           ;'HI2CWAITMSSPTIMEOUT++
  3272   001158  2A3E               	incf	1342,f,c
  3273                           
  3274                           ;'WAIT FOR THIS EVENT
  3275                           ;'IF I2C1PIR.SCIF = 1 THEN
  3276   00115A  A1EA               	btfss	490,0,b
  3277   00115C  D013               	bra	ELSE21_1
  3278                           
  3279                           ;'WAIT HI2CITSCLWAITPERIOD US
  3280   00115E  0E02               	movlw	2
  3281   001160  6E01               	movwf	1281,c
  3282   001162                     DELAYUSO5:
  3283                           	callstack 0
  3284   001162  6A00               	clrf	1280,c
  3285   001164                     DELAYUS5:
  3286                           	callstack 0
  3287   001164  2E00               	decfsz	1280,f,c
  3288   001166  D7FE               	bra	DELAYUS5
  3289   001168  2E01               	decfsz	1281,f,c
  3290   00116A  D7FB               	bra	DELAYUSO5
  3291   00116C  0E13               	movlw	19
  3292   00116E  6E00               	movwf	1280,c
  3293   001170                     DELAYUS6:
  3294                           	callstack 0
  3295   001170  2E00               	decfsz	1280,f,c
  3296   001172  D7FE               	bra	DELAYUS6
  3297                           
  3298                           ;'HI2C1STATEMACHINE = 2  'SET ((WDTTMR) and 0FFh), 2, b MACHINE TO SEND ((I2C1STAT0) and 0FFh), 3, b
  3299   001174  0E02               	movlw	2
  3300   001176  6E3B               	movwf	1339,c
  3301                           
  3302                           ;'HI2CACKPOLLSTATE = I2C1CON1.5
  3303   001178  6A3C               	clrf	1340,c
  3304   00117A  BBE7               	btfsc	487,5,b
  3305   00117C  2A3C               	incf	1340,f,c
  3306                           
  3307                           ;'EXIT SUB
  3308   00117E  0100               	banksel	0
  3309   001180  0012               	return	
  3310                           
  3311                           ;'ELSE
  3312   001182  D004               	bra	ENDIF21
  3313   001184                     ELSE21_1:
  3314                           	callstack 0
  3315                           
  3316                           ;'WAIT 1 US
  3317   001184  0E05               	movlw	5
  3318   001186  6E00               	movwf	1280,c
  3319   001188                     DELAYUS7:
  3320                           	callstack 0
  3321   001188  2E00               	decfsz	1280,f,c
  3322   00118A  D7FE               	bra	DELAYUS7
  3323   00118C                     ENDIF21:
  3324                           	callstack 0
  3325                           
  3326                           ;'LOOP
  3327   00118C  D7E1               	bra	SYSDOLOOP_S4
  3328   00118E                     SYSDOLOOP_E4:
  3329                           	callstack 0
  3330                           
  3331                           ;'IF HI2CWAITMSSPTIMEOUT = 255 THEN HI2C1LASTERROR = HI2C1LASTERROR OR I2C1_START_TIMEOUT
  3332   00118E  283E               	incf	1342,w,c
  3333   001190  A4D8               	btfss	status,2,c
  3334   001192  D002               	bra	ENDIF22
  3335                           
  3336                           ;'IF HI2CWAITMSSPTIMEOUT = 255 THEN HI2C1LASTERROR = HI2C1LASTERROR OR I2C1_START_TIMEOUT
  3337   001194  0E04               	movlw	4
  3338   001196  123A               	iorwf	1338,f,c
  3339   001198                     ENDIF22:
  3340                           	callstack 0
  3341                           
  3342                           ;'CASE 3  'A RESTART
  3343   001198  D027               	bra	SYSSELECTEND4
  3344   00119A                     SYSSELECT4CASE3:
  3345                           	callstack 0
  3346   00119A  0E03               	movlw	3
  3347   00119C  5C3B               	subwf	1339,w,c
  3348   00119E  A4D8               	btfss	status,2,c
  3349   0011A0  D023               	bra	SYSSELECTEND4
  3350   0011A2                     SYSWAITLOOP1:
  3351                           	callstack 0
  3352   0011A2  0101               	banksel	484
  3353   0011A4  BBE4               	btfsc	484,5,b
  3354   0011A6  D7FD               	bra	SYSWAITLOOP1
  3355                           
  3356                           ;'SET COUNT TO ZERO, PLACE SLAVE ADDRESS IN REGISTER AND CLEAR EVENT
  3357                           ;'I2C1CNT = 0
  3358   0011A8  6BED               	clrf	493,b
  3359                           
  3360                           ;'I2C1ADB1 = I2CBYTE
  3361   0011AA  C53F F1F2          	movff	1343,498
  3362                           
  3363                           ;'I2C1PIR.SCIF = 0
  3364   0011AE  91EA               	bcf	490,0,b
  3365                           
  3366                           ;'HI2CWAITMSSPTIMEOUT = 0
  3367   0011B0  6A3E               	clrf	1342,c
  3368   0011B2                     SYSDOLOOP_S5:
  3369                           	callstack 0
  3370   0011B2  0EFF               	movlw	255
  3371   0011B4  5C3E               	subwf	1342,w,c
  3372   0011B6  B0D8               	btfsc	status,0,c
  3373   0011B8  D012               	bra	SYSDOLOOP_E5
  3374                           
  3375                           ;'HI2CWAITMSSPTIMEOUT++
  3376   0011BA  2A3E               	incf	1342,f,c
  3377                           
  3378                           ;'WAIT FOR THIS EVENT
  3379                           ;'IF I2C1PIR.SCIF = 1 THEN
  3380   0011BC  A1EA               	btfss	490,0,b
  3381   0011BE  D008               	bra	ELSE23_1
  3382                           
  3383                           ;'HI2C1STATEMACHINE = 2  'SET ((WDTTMR) and 0FFh), 2, b MACHINE TO SEND ((I2C1STAT0) and 0FFh), 3, b
  3384   0011C0  0E02               	movlw	2
  3385   0011C2  6E3B               	movwf	1339,c
  3386                           
  3387                           ;'HI2CACKPOLLSTATE = I2C1CON1.5
  3388   0011C4  6A3C               	clrf	1340,c
  3389   0011C6  BBE7               	btfsc	487,5,b
  3390   0011C8  2A3C               	incf	1340,f,c
  3391                           
  3392                           ;'EXIT SUB
  3393   0011CA  0100               	banksel	0
  3394   0011CC  0012               	return	
  3395                           
  3396                           ;'ELSE
  3397   0011CE  D006               	bra	ENDIF23
  3398   0011D0                     ELSE23_1:
  3399                           	callstack 0
  3400                           
  3401                           ;'SET AS START AND CLEAR RESTART
  3402                           ;'I2C1CON0.S = 1
  3403   0011D0  8BE6               	bsf	486,5,b
  3404                           
  3405                           ;'I2C1CON0.RSEN=0
  3406   0011D2  9DE6               	bcf	486,6,b
  3407                           
  3408                           ;'WAIT 1 US
  3409   0011D4  0E05               	movlw	5
  3410   0011D6  6E00               	movwf	1280,c
  3411   0011D8                     DELAYUS8:
  3412                           	callstack 0
  3413   0011D8  2E00               	decfsz	1280,f,c
  3414   0011DA  D7FE               	bra	DELAYUS8
  3415   0011DC                     ENDIF23:
  3416                           	callstack 0
  3417                           
  3418                           ;'LOOP
  3419   0011DC  D7EA               	bra	SYSDOLOOP_S5
  3420   0011DE                     SYSDOLOOP_E5:
  3421                           	callstack 0
  3422                           
  3423                           ;'IF HI2CWAITMSSPTIMEOUT = 255 THEN HI2C1LASTERROR = HI2C1LASTERROR OR I2C1_RESTART_TIMEOUT
  3424   0011DE  283E               	incf	1342,w,c
  3425   0011E0  A4D8               	btfss	status,2,c
  3426   0011E2  D002               	bra	ENDIF24
  3427                           
  3428                           ;'IF HI2CWAITMSSPTIMEOUT = 255 THEN HI2C1LASTERROR = HI2C1LASTERROR OR I2C1_RESTART_TIMEOUT
  3429   0011E4  0E08               	movlw	8
  3430   0011E6  123A               	iorwf	1338,f,c
  3431   0011E8                     ENDIF24:
  3432                           	callstack 0
  3433   0011E8                     SYSSELECTEND4:
  3434                           	callstack 0
  3435   0011E8  0100               	banksel	0
  3436   0011EA  0012               	return	
  3437   0011EC                     SI2CSTART:
  3438                           	callstack 0
  3439                           
  3440                           ;'ASM SHOWDEBUG  REDIRECTED FOR K-MODE FAMILY PROBALBY CALLED HI2CSTART
  3441                           ;'ASM SHOWDEBUG  THIS METHOD SETS THE REGISTERS AND REGISTER BITS TO GENERATE THE I2C  START SIGNAL. MASTER_MODE ONLY.
  3442                           ;'HI2C1STATEMACHINE = 1
  3443   0011EC  0E01               	movlw	1
  3444   0011EE  6E3B               	movwf	1339,c
  3445                           
  3446                           ;'HI2CWAITMSSPTIMEOUT = FALSE
  3447   0011F0  6A3E               	clrf	1342,c
  3448                           
  3449                           ;'CLEAR THE ERROR STATE VARIABLE
  3450                           ;'HI2C1LASTERROR = I2C1_GOOD
  3451   0011F2  6A3A               	clrf	1338,c
  3452   0011F4  0012               	return	
  3453   0011F6                     SI2CSTOP:
  3454                           	callstack 0
  3455                           
  3456                           ;'ASM SHOWDEBUG  REDIRECTED FOR K-MODE FAMILY PROBALBY CALLED HI2CSTOP
  3457                           ;'ASM SHOWDEBUG  THIS METHOD SETS THE REGISTERS AND REGISTER BITS TO GENERATE THE I2C  STOP SIGNAL
  3458                           ;'WAITS UP TO 254US THEN SET THE ERROR STATE
  3459                           ;'HI2C1STATEMACHINE = 0
  3460   0011F6  6A3B               	clrf	1339,c
  3461                           
  3462                           ;'HI2CWAITMSSPTIMEOUT = 0
  3463   0011F8  6A3E               	clrf	1342,c
  3464   0011FA                     SYSDOLOOP_S2:
  3465                           	callstack 0
  3466   0011FA  0EFF               	movlw	255
  3467   0011FC  5C3E               	subwf	1342,w,c
  3468   0011FE  B0D8               	btfsc	status,0,c
  3469   001200  D018               	bra	SYSDOLOOP_E2
  3470                           
  3471                           ;'HI2CWAITMSSPTIMEOUT++
  3472   001202  2A3E               	incf	1342,f,c
  3473                           
  3474                           ;'WAIT TILL THIS EVENT
  3475                           ;'IF I2C1PIR.PCIF = 1 THEN
  3476   001204  0101               	banksel	490
  3477   001206  A5EA               	btfss	490,2,b
  3478   001208  D00F               	bra	ELSE17_1
  3479                           
  3480                           ;'SI2CWAIT4STOP
  3481   00120A  0100               	banksel	0
  3482   00120C  D853               	rcall	SI2CWAIT4STOP
  3483                           
  3484                           ;'TSCL WAIT, PART OF THE SPECIFICIATION OF THE I2C MODULE
  3485                           ;'WAIT HI2CITSCLWAITPERIOD US
  3486   00120E  0E02               	movlw	2
  3487   001210  6E01               	movwf	1281,c
  3488   001212                     DELAYUSO1:
  3489                           	callstack 0
  3490   001212  6A00               	clrf	1280,c
  3491   001214                     DELAYUS1:
  3492                           	callstack 0
  3493   001214  2E00               	decfsz	1280,f,c
  3494   001216  D7FE               	bra	DELAYUS1
  3495   001218  2E01               	decfsz	1281,f,c
  3496   00121A  D7FB               	bra	DELAYUSO1
  3497   00121C  0E13               	movlw	19
  3498   00121E  6E00               	movwf	1280,c
  3499   001220                     DELAYUS2:
  3500                           	callstack 0
  3501   001220  2E00               	decfsz	1280,f,c
  3502   001222  D7FE               	bra	DELAYUS2
  3503                           
  3504                           ;'EXIT SUB
  3505   001224  0012               	return	
  3506                           
  3507                           ;'ELSE
  3508   001226  D004               	bra	ENDIF17
  3509   001228                     ELSE17_1:
  3510                           	callstack 0
  3511                           
  3512                           ;'WAIT 1 US
  3513   001228  0E05               	movlw	5
  3514   00122A  6E00               	movwf	1280,c
  3515   00122C                     DELAYUS3:
  3516                           	callstack 0
  3517   00122C  2E00               	decfsz	1280,f,c
  3518   00122E  D7FE               	bra	DELAYUS3
  3519   001230                     ENDIF17:
  3520                           	callstack 0
  3521                           
  3522                           ;'LOOP
  3523   001230  D7E4               	bra	SYSDOLOOP_S2
  3524   001232                     SYSDOLOOP_E2:
  3525                           	callstack 0
  3526                           
  3527                           ;'IF HI2CWAITMSSPTIMEOUT = 255 THEN HI2C1LASTERROR = HI2C1LASTERROR OR I2C1_STOP_TIMEOUT
  3528   001232  283E               	incf	1342,w,c
  3529   001234  A4D8               	btfss	status,2,c
  3530   001236  D002               	bra	ENDIF18
  3531                           
  3532                           ;'IF HI2CWAITMSSPTIMEOUT = 255 THEN HI2C1LASTERROR = HI2C1LASTERROR OR I2C1_STOP_TIMEOUT
  3533   001238  0E80               	movlw	128
  3534   00123A  123A               	iorwf	1338,f,c
  3535   00123C                     ENDIF18:
  3536                           	callstack 0
  3537   00123C  0100               	banksel	0
  3538   00123E  0012               	return	
  3539   001240                     SI2CWAIT4ACK:
  3540                           	callstack 0
  3541                           
  3542                           ;'HI2CWAITMSSPTIMEOUT = 0
  3543   001240  6A3E               	clrf	1342,c
  3544   001242                     SYSDOLOOP_S6:
  3545                           	callstack 0
  3546   001242  0EFF               	movlw	255
  3547   001244  5C3E               	subwf	1342,w,c
  3548   001246  B0D8               	btfsc	status,0,c
  3549   001248  D016               	bra	SYSDOLOOP_E6
  3550                           
  3551                           ;'HI2CWAITMSSPTIMEOUT++
  3552   00124A  2A3E               	incf	1342,f,c
  3553                           
  3554                           ;'WAIT FOR THIS EVENT
  3555                           ;'IF I2C1CON1.ACKSTAT = 0 THEN
  3556   00124C  0101               	banksel	487
  3557   00124E  BBE7               	btfsc	487,5,b
  3558   001250  D00D               	bra	ELSE27_1
  3559                           
  3560                           ;'SET STATUS
  3561                           ;'HI2CACKPOLLSTATE = !I2C1CON1.ACKSTAT
  3562   001252  0105               	banksel	1388
  3563   001254  6B6C               	clrf	1388,b
  3564   001256  0101               	banksel	487
  3565   001258  ABE7               	btfss	487,5,b
  3566   00125A  D002               	bra	ENDIF29
  3567   00125C  0105               	banksel	1388
  3568   00125E  2B6C               	incf	1388,f,b
  3569   001260                     ENDIF29:
  3570                           	callstack 0
  3571   001260  0105               	banksel	1388
  3572   001262  1D6C               	comf	1388,w,b
  3573   001264  6E3C               	movwf	1340,c
  3574                           
  3575                           ;'EXIT SUB
  3576   001266  0100               	banksel	0
  3577   001268  0012               	return	
  3578                           
  3579                           ;'ELSE
  3580   00126A  D004               	bra	ENDIF27
  3581   00126C                     ELSE27_1:
  3582                           	callstack 0
  3583                           
  3584                           ;'WAIT 1 US
  3585   00126C  0E05               	movlw	5
  3586   00126E  6E00               	movwf	1280,c
  3587   001270                     DELAYUS9:
  3588                           	callstack 0
  3589   001270  2E00               	decfsz	1280,f,c
  3590   001272  D7FE               	bra	DELAYUS9
  3591   001274                     ENDIF27:
  3592                           	callstack 0
  3593                           
  3594                           ;'LOOP
  3595   001274  D7E6               	bra	SYSDOLOOP_S6
  3596   001276                     SYSDOLOOP_E6:
  3597                           	callstack 0
  3598                           
  3599                           ;'IF HI2CWAITMSSPTIMEOUT = 255 THEN HI2C1LASTERROR = HI2C1LASTERROR OR I2C1_ACK_TIMEOUT
  3600   001276  283E               	incf	1342,w,c
  3601   001278  A4D8               	btfss	status,2,c
  3602   00127A  D002               	bra	ENDIF28
  3603                           
  3604                           ;'IF HI2CWAITMSSPTIMEOUT = 255 THEN HI2C1LASTERROR = HI2C1LASTERROR OR I2C1_ACK_TIMEOUT
  3605   00127C  0E20               	movlw	32
  3606   00127E  123A               	iorwf	1338,f,c
  3607   001280                     ENDIF28:
  3608                           	callstack 0
  3609                           
  3610                           ;'HI2CWAITMSSPTIMEOUT IS NOW TRUE = 255
  3611   001280  0100               	banksel	0
  3612   001282  0012               	return	
  3613   001284                     SI2CWAIT4MDR:
  3614                           	callstack 0
  3615                           
  3616                           ;'HI2CWAITMSSPTIMEOUT = 0
  3617   001284  6A3E               	clrf	1342,c
  3618   001286                     SYSDOLOOP_S7:
  3619                           	callstack 0
  3620   001286  0EFF               	movlw	255
  3621   001288  5C3E               	subwf	1342,w,c
  3622   00128A  B0D8               	btfsc	status,0,c
  3623   00128C  D00C               	bra	SYSDOLOOP_E7
  3624                           
  3625                           ;'HI2CWAITMSSPTIMEOUT++
  3626   00128E  2A3E               	incf	1342,f,c
  3627                           
  3628                           ;'WAIT FOR THIS EVENT
  3629                           ;'IF I2C1CON0.MDR = 0 THEN
  3630   001290  0101               	banksel	486
  3631   001292  B7E6               	btfsc	486,3,b
  3632   001294  D003               	bra	ELSE30_1
  3633                           
  3634                           ;'EXIT SUB
  3635   001296  0100               	banksel	0
  3636   001298  0012               	return	
  3637                           
  3638                           ;'ELSE
  3639   00129A  D004               	bra	ENDIF30
  3640   00129C                     ELSE30_1:
  3641                           	callstack 0
  3642                           
  3643                           ;'WAIT 1 US
  3644   00129C  0E05               	movlw	5
  3645   00129E  6E00               	movwf	1280,c
  3646   0012A0                     DELAYUS10:
  3647                           	callstack 0
  3648   0012A0  2E00               	decfsz	1280,f,c
  3649   0012A2  D7FE               	bra	DELAYUS10
  3650   0012A4                     ENDIF30:
  3651                           	callstack 0
  3652                           
  3653                           ;'LOOP
  3654   0012A4  D7F0               	bra	SYSDOLOOP_S7
  3655   0012A6                     SYSDOLOOP_E7:
  3656                           	callstack 0
  3657                           
  3658                           ;'IF HI2CWAITMSSPTIMEOUT = 255 THEN HI2C1LASTERROR = HI2C1LASTERROR OR I2C1_MDR_TIMEOUT
  3659   0012A6  283E               	incf	1342,w,c
  3660   0012A8  A4D8               	btfss	status,2,c
  3661   0012AA  D002               	bra	ENDIF31
  3662                           
  3663                           ;'IF HI2CWAITMSSPTIMEOUT = 255 THEN HI2C1LASTERROR = HI2C1LASTERROR OR I2C1_MDR_TIMEOUT
  3664   0012AC  0E40               	movlw	64
  3665   0012AE  123A               	iorwf	1338,f,c
  3666   0012B0                     ENDIF31:
  3667                           	callstack 0
  3668                           
  3669                           ;'HI2CWAITMSSPTIMEOUT IS NOW TRUE = 255
  3670   0012B0  0100               	banksel	0
  3671   0012B2  0012               	return	
  3672   0012B4                     SI2CWAIT4STOP:
  3673                           	callstack 0
  3674                           
  3675                           ;'HI2CWAITMSSPTIMEOUT = 0
  3676   0012B4  6A3E               	clrf	1342,c
  3677   0012B6                     SYSDOLOOP_S8:
  3678                           	callstack 0
  3679   0012B6  0EFF               	movlw	255
  3680   0012B8  5C3E               	subwf	1342,w,c
  3681   0012BA  B0D8               	btfsc	status,0,c
  3682   0012BC  D00C               	bra	SYSDOLOOP_E8
  3683                           
  3684                           ;'HI2CWAITMSSPTIMEOUT++
  3685   0012BE  2A3E               	incf	1342,f,c
  3686                           
  3687                           ;'WAIT FOR THIS EVENT
  3688                           ;'IF I2C1PIR.PCIF = 1 THEN
  3689   0012C0  0101               	banksel	490
  3690   0012C2  A5EA               	btfss	490,2,b
  3691   0012C4  D003               	bra	ELSE32_1
  3692                           
  3693                           ;'EXIT SUB
  3694   0012C6  0100               	banksel	0
  3695   0012C8  0012               	return	
  3696                           
  3697                           ;'ELSE
  3698   0012CA  D004               	bra	ENDIF32
  3699   0012CC                     ELSE32_1:
  3700                           	callstack 0
  3701                           
  3702                           ;'WAIT 1 US
  3703   0012CC  0E05               	movlw	5
  3704   0012CE  6E00               	movwf	1280,c
  3705   0012D0                     DELAYUS11:
  3706                           	callstack 0
  3707   0012D0  2E00               	decfsz	1280,f,c
  3708   0012D2  D7FE               	bra	DELAYUS11
  3709   0012D4                     ENDIF32:
  3710                           	callstack 0
  3711                           
  3712                           ;'LOOP
  3713   0012D4  D7F0               	bra	SYSDOLOOP_S8
  3714   0012D6                     SYSDOLOOP_E8:
  3715                           	callstack 0
  3716                           
  3717                           ;'IF HI2CWAITMSSPTIMEOUT = 255 THEN HI2C1LASTERROR = HI2C1LASTERROR OR I2C1_STOP_TIMEOUT
  3718   0012D6  283E               	incf	1342,w,c
  3719   0012D8  A4D8               	btfss	status,2,c
  3720   0012DA  D002               	bra	ENDIF33
  3721                           
  3722                           ;'IF HI2CWAITMSSPTIMEOUT = 255 THEN HI2C1LASTERROR = HI2C1LASTERROR OR I2C1_STOP_TIMEOUT
  3723   0012DC  0E80               	movlw	128
  3724   0012DE  123A               	iorwf	1338,f,c
  3725   0012E0                     ENDIF33:
  3726                           	callstack 0
  3727                           
  3728                           ;'HI2CWAITMSSPTIMEOUT IS NOW TRUE = 255
  3729   0012E0  0100               	banksel	0
  3730   0012E2  0012               	return	
  3731   0012E4                     SPRITE1:
  3732                           	callstack 0
  3733   0012E4  0E09               	movlw	9
  3734   0012E6  6007               	cpfslt	1287,c
  3735   0012E8  0C00               	retlw	0
  3736   0012EA  5007               	movf	1287,w,c
  3737   0012EC  0F06               	addlw	low TABLESPRITE1
  3738   0012EE  6EF6               	movwf	tblptrl,c
  3739   0012F0  0E13               	movlw	high TABLESPRITE1
  3740   0012F2  B0D8               	btfsc	status,0,c
  3741   0012F4  0F01               	addlw	1
  3742   0012F6  6EF7               	movwf	tblptrh,c
  3743   0012F8  0E00               	movlw	low (TABLESPRITE1 shr (0+16))
  3744   0012FA  B0D8               	btfsc	status,0,c
  3745   0012FC  0F01               	addlw	1
  3746   0012FE  6EF8               	movwf	tblptru,c
  3747   001300  0008               	tblrd		*
  3748   001302  50F5               	movf	tablat,w,c
  3749   001304  0012               	return	
  3750   001306                     TABLESPRITE1:
  3751                           	callstack 0
  3752   001306  08 00 00 80 FF 38 00 00 FF 	db	8,0,0,128,255,56,0,0,255
  3753   00130F  00                 	align	2	;X4
  3754   001310                     SPRITE2:
  3755                           	callstack 0
  3756   001310  0E09               	movlw	9
  3757   001312  6007               	cpfslt	1287,c
  3758   001314  0C00               	retlw	0
  3759   001316  5007               	movf	1287,w,c
  3760   001318  0F32               	addlw	low TABLESPRITE2
  3761   00131A  6EF6               	movwf	tblptrl,c
  3762   00131C  0E13               	movlw	high TABLESPRITE2
  3763   00131E  B0D8               	btfsc	status,0,c
  3764   001320  0F01               	addlw	1
  3765   001322  6EF7               	movwf	tblptrh,c
  3766   001324  0E00               	movlw	low (TABLESPRITE2 shr (0+16))
  3767   001326  B0D8               	btfsc	status,0,c
  3768   001328  0F01               	addlw	1
  3769   00132A  6EF8               	movwf	tblptru,c
  3770   00132C  0008               	tblrd		*
  3771   00132E  50F5               	movf	tablat,w,c
  3772   001330  0012               	return	
  3773   001332                     TABLESPRITE2:
  3774                           	callstack 0
  3775   001332  08 00 3C 40 FF 44 00 3C C3 	db	8,0,60,64,255,68,0,60,195
  3776   00133B  00                 	align	2	;X4
  3777   00133C                     SPRITE3:
  3778                           	callstack 0
  3779   00133C  0E09               	movlw	9
  3780   00133E  6007               	cpfslt	1287,c
  3781   001340  0C00               	retlw	0
  3782   001342  5007               	movf	1287,w,c
  3783   001344  0F5E               	addlw	low TABLESPRITE3
  3784   001346  6EF6               	movwf	tblptrl,c
  3785   001348  0E13               	movlw	high TABLESPRITE3
  3786   00134A  B0D8               	btfsc	status,0,c
  3787   00134C  0F01               	addlw	1
  3788   00134E  6EF7               	movwf	tblptrh,c
  3789   001350  0E00               	movlw	low (TABLESPRITE3 shr (0+16))
  3790   001352  B0D8               	btfsc	status,0,c
  3791   001354  0F01               	addlw	1
  3792   001356  6EF8               	movwf	tblptru,c
  3793   001358  0008               	tblrd		*
  3794   00135A  50F5               	movf	tablat,w,c
  3795   00135C  0012               	return	
  3796   00135E                     TABLESPRITE3:
  3797                           	callstack 0
  3798   00135E  08 00 5A 20 FF 82 3C 66 A5 	db	8,0,90,32,255,130,60,102,165
  3799   001367  00                 	align	2	;X4
  3800   001368                     SPRITE4:
  3801                           	callstack 0
  3802   001368  0E09               	movlw	9
  3803   00136A  6007               	cpfslt	1287,c
  3804   00136C  0C00               	retlw	0
  3805   00136E  5007               	movf	1287,w,c
  3806   001370  0F8A               	addlw	low TABLESPRITE4
  3807   001372  6EF6               	movwf	tblptrl,c
  3808   001374  0E13               	movlw	high TABLESPRITE4
  3809   001376  B0D8               	btfsc	status,0,c
  3810   001378  0F01               	addlw	1
  3811   00137A  6EF7               	movwf	tblptrh,c
  3812   00137C  0E00               	movlw	low (TABLESPRITE4 shr (0+16))
  3813   00137E  B0D8               	btfsc	status,0,c
  3814   001380  0F01               	addlw	1
  3815   001382  6EF8               	movwf	tblptru,c
  3816   001384  0008               	tblrd		*
  3817   001386  50F5               	movf	tablat,w,c
  3818   001388  0012               	return	
  3819   00138A                     TABLESPRITE4:
  3820                           	callstack 0
  3821   00138A  08 00 5A 10 FF 18 3C 5A A5 	db	8,0,90,16,255,24,60,90,165
  3822   001393  00                 	align	2	;X4
  3823   001394                     SPRITE5:
  3824                           	callstack 0
  3825   001394  0E09               	movlw	9
  3826   001396  6007               	cpfslt	1287,c
  3827   001398  0C00               	retlw	0
  3828   00139A  5007               	movf	1287,w,c
  3829   00139C  0FB6               	addlw	low TABLESPRITE5
  3830   00139E  6EF6               	movwf	tblptrl,c
  3831   0013A0  0E13               	movlw	high TABLESPRITE5
  3832   0013A2  B0D8               	btfsc	status,0,c
  3833   0013A4  0F01               	addlw	1
  3834   0013A6  6EF7               	movwf	tblptrh,c
  3835   0013A8  0E00               	movlw	low (TABLESPRITE5 shr (0+16))
  3836   0013AA  B0D8               	btfsc	status,0,c
  3837   0013AC  0F01               	addlw	1
  3838   0013AE  6EF8               	movwf	tblptru,c
  3839   0013B0  0008               	tblrd		*
  3840   0013B2  50F5               	movf	tablat,w,c
  3841   0013B4  0012               	return	
  3842   0013B6                     TABLESPRITE5:
  3843                           	callstack 0
  3844   0013B6  08 00 5A 08 FF 82 3C 5A A5 	db	8,0,90,8,255,130,60,90,165
  3845   0013BF  00                 	align	2	;X4
  3846   0013C0                     SPRITE6:
  3847                           	callstack 0
  3848   0013C0  0E09               	movlw	9
  3849   0013C2  6007               	cpfslt	1287,c
  3850   0013C4  0C00               	retlw	0
  3851   0013C6  5007               	movf	1287,w,c
  3852   0013C8  0FE2               	addlw	low TABLESPRITE6
  3853   0013CA  6EF6               	movwf	tblptrl,c
  3854   0013CC  0E13               	movlw	high TABLESPRITE6
  3855   0013CE  B0D8               	btfsc	status,0,c
  3856   0013D0  0F01               	addlw	1
  3857   0013D2  6EF7               	movwf	tblptrh,c
  3858   0013D4  0E00               	movlw	low (TABLESPRITE6 shr (0+16))
  3859   0013D6  B0D8               	btfsc	status,0,c
  3860   0013D8  0F01               	addlw	1
  3861   0013DA  6EF8               	movwf	tblptru,c
  3862   0013DC  0008               	tblrd		*
  3863   0013DE  50F5               	movf	tablat,w,c
  3864   0013E0  0012               	return	
  3865   0013E2                     TABLESPRITE6:
  3866                           	callstack 0
  3867   0013E2  08 00 5A 04 FF 44 3C 66 A5 	db	8,0,90,4,255,68,60,102,165
  3868   0013EB  00                 	align	2	;X4
  3869   0013EC                     SPRITE7:
  3870                           	callstack 0
  3871   0013EC  0E09               	movlw	9
  3872   0013EE  6007               	cpfslt	1287,c
  3873   0013F0  0C00               	retlw	0
  3874   0013F2  5007               	movf	1287,w,c
  3875   0013F4  0F0E               	addlw	low TABLESPRITE7
  3876   0013F6  6EF6               	movwf	tblptrl,c
  3877   0013F8  0E14               	movlw	high TABLESPRITE7
  3878   0013FA  B0D8               	btfsc	status,0,c
  3879   0013FC  0F01               	addlw	1
  3880   0013FE  6EF7               	movwf	tblptrh,c
  3881   001400  0E00               	movlw	low (TABLESPRITE7 shr (0+16))
  3882   001402  B0D8               	btfsc	status,0,c
  3883   001404  0F01               	addlw	1
  3884   001406  6EF8               	movwf	tblptru,c
  3885   001408  0008               	tblrd		*
  3886   00140A  50F5               	movf	tablat,w,c
  3887   00140C  0012               	return	
  3888   00140E                     TABLESPRITE7:
  3889                           	callstack 0
  3890   00140E  08 00 3C 02 FF 38 00 3C C3 	db	8,0,60,2,255,56,0,60,195
  3891   001417  00                 	align	2	;X4
  3892   001418                     SPRITE8:
  3893                           	callstack 0
  3894   001418  0E09               	movlw	9
  3895   00141A  6007               	cpfslt	1287,c
  3896   00141C  0C00               	retlw	0
  3897   00141E  5007               	movf	1287,w,c
  3898   001420  0F3A               	addlw	low TABLESPRITE8
  3899   001422  6EF6               	movwf	tblptrl,c
  3900   001424  0E14               	movlw	high TABLESPRITE8
  3901   001426  B0D8               	btfsc	status,0,c
  3902   001428  0F01               	addlw	1
  3903   00142A  6EF7               	movwf	tblptrh,c
  3904   00142C  0E00               	movlw	low (TABLESPRITE8 shr (0+16))
  3905   00142E  B0D8               	btfsc	status,0,c
  3906   001430  0F01               	addlw	1
  3907   001432  6EF8               	movwf	tblptru,c
  3908   001434  0008               	tblrd		*
  3909   001436  50F5               	movf	tablat,w,c
  3910   001438  0012               	return	
  3911   00143A                     TABLESPRITE8:
  3912                           	callstack 0
  3913   00143A  08 00 00 01 FF 00 00 00 FF 	db	8,0,0,1,255,0,0,0,255
  3914   001443  00                 	align	2	;X4
  3915   001444                     FN_SWAP4:
  3916                           	callstack 0
  3917                           
  3918                           ;'SWAPF SWAP4IN, W
  3919   001444  0105               	banksel	1377
  3920   001446  3961               	swapf	1377,w,b
  3921                           
  3922                           ;'MOVWF SWAP4
  3923   001448  6F60               	movwf	1376,b
  3924   00144A  0100               	banksel	0
  3925   00144C  0012               	return	
  3926   00144E                     SYSCOMPEQUAL:
  3927                           	callstack 0
  3928                           
  3929                           ;'DIM SYSBYTETEMPA, SYSBYTETEMPB, SYSBYTETEMPX AS BYTE
  3930                           ;'SETF SYSBYTETEMPX
  3931   00144E  6800               	setf	1280,c
  3932                           
  3933                           ;'MOVF SYSBYTETEMPB, W
  3934   001450  5009               	movf	1289,w,c
  3935                           
  3936                           ;'CPFSEQ SYSBYTETEMPA
  3937   001452  6205               	cpfseq	1285,c
  3938                           
  3939                           ;'CLRF SYSBYTETEMPX
  3940   001454  6A00               	clrf	1280,c
  3941   001456  0012               	return	
  3942   001458                     SYSCOMPEQUAL16:
  3943                           	callstack 0
  3944                           
  3945                           ;'DIM SYSWORDTEMPA AS WORD
  3946                           ;'DIM SYSWORDTEMPB AS WORD
  3947                           ;'DIM SYSBYTETEMPX AS BYTE
  3948                           ;'CLRF SYSBYTETEMPX
  3949   001458  6A00               	clrf	1280,c
  3950                           
  3951                           ;'TEST LOW, EXIT IF FALSE
  3952                           ;'MOVF SYSWORDTEMPB, W
  3953   00145A  5009               	movf	1289,w,c
  3954                           
  3955                           ;'CPFSEQ SYSWORDTEMPA
  3956   00145C  6205               	cpfseq	1285,c
  3957                           
  3958                           ;'RETURN
  3959   00145E  0012               	return	
  3960                           
  3961                           ;'TEST HIGH, EXIT IF FALSE
  3962                           ;'MOVF SYSWORDTEMPB_H, W
  3963   001460  500A               	movf	1290,w,c
  3964                           
  3965                           ;'CPFSEQ SYSWORDTEMPA_H
  3966   001462  6206               	cpfseq	1286,c
  3967                           
  3968                           ;'RETURN
  3969   001464  0012               	return	
  3970                           
  3971                           ;'SETF SYSBYTETEMPX
  3972   001466  6800               	setf	1280,c
  3973   001468  0012               	return	
  3974   00146A                     SYSCOMPLESSTHAN:
  3975                           	callstack 0
  3976                           
  3977                           ;'DIM SYSBYTETEMPA, SYSBYTETEMPB, SYSBYTETEMPX AS BYTE
  3978                           ;'SETF SYSBYTETEMPX
  3979   00146A  6800               	setf	1280,c
  3980                           
  3981                           ;'MOVF SYSBYTETEMPB, W
  3982   00146C  5009               	movf	1289,w,c
  3983                           
  3984                           ;'CPFSLT SYSBYTETEMPA
  3985   00146E  6005               	cpfslt	1285,c
  3986                           
  3987                           ;'CLRF SYSBYTETEMPX
  3988   001470  6A00               	clrf	1280,c
  3989   001472  0012               	return	
  3990   001474                     SYSCOMPLESSTHAN16:
  3991                           	callstack 0
  3992                           
  3993                           ;'DIM SYSWORDTEMPA AS WORD
  3994                           ;'DIM SYSWORDTEMPB AS WORD
  3995                           ;'DIM SYSBYTETEMPX AS BYTE
  3996                           ;'CLRF SYSBYTETEMPX
  3997   001474  6A00               	clrf	1280,c
  3998                           
  3999                           ;'TEST HIGH, EXIT IF MORE
  4000                           ;'MOVF SYSWORDTEMPA_H,W
  4001   001476  5006               	movf	1286,w,c
  4002                           
  4003                           ;'SUBWF SYSWORDTEMPB_H,W
  4004   001478  5C0A               	subwf	1290,w,c
  4005                           
  4006                           ;BTFSS STATUS,0
  4007   00147A  A0D8               	btfss	status,0,c
  4008                           
  4009                           ;'RETURN
  4010   00147C  0012               	return	
  4011                           
  4012                           ;'TEST HIGH, EXIT TRUE IF LESS
  4013                           ;'MOVF SYSWORDTEMPB_H,W
  4014   00147E  500A               	movf	1290,w,c
  4015                           
  4016                           ;'SUBWF SYSWORDTEMPA_H,W
  4017   001480  5C06               	subwf	1286,w,c
  4018                           
  4019                           ;'BNC SCLT16TRUE
  4020   001482  E304               	bnc	SCLT16TRUE
  4021                           
  4022                           ;'TEST LOW, EXIT IF MORE OR EQUAL
  4023                           ;'MOVF SYSWORDTEMPB,W
  4024   001484  5009               	movf	1289,w,c
  4025                           
  4026                           ;'SUBWF SYSWORDTEMPA,W
  4027   001486  5C05               	subwf	1285,w,c
  4028                           
  4029                           ;BTFSC STATUS,0
  4030   001488  B0D8               	btfsc	status,0,c
  4031                           
  4032                           ;'RETURN
  4033   00148A  0012               	return	
  4034   00148C                     SCLT16TRUE:
  4035                           	callstack 0
  4036                           
  4037                           ;'COMF SYSBYTETEMPX,F
  4038   00148C  1E00               	comf	1280,f,c
  4039   00148E  0012               	return	
  4040   001490                     SYSDIVSUB:
  4041                           	callstack 0
  4042                           
  4043                           ;'DIM SYSBYTETEMPA AS BYTE
  4044                           ;'DIM SYSBYTETEMPB AS BYTE
  4045                           ;'DIM SYSBYTETEMPX AS BYTE
  4046                           ;'CHECK FOR DIV/0
  4047                           ;'MOVF SYSBYTETEMPB, F
  4048   001490  5209               	movf	1289,f,c
  4049                           
  4050                           ;BTFSC STATUS,2
  4051   001492  B4D8               	btfsc	status,2,c
  4052                           
  4053                           ;'RETURN
  4054   001494  0012               	return	
  4055                           
  4056                           ;'MAIN CALC ROUTINE
  4057                           ;'SYSBYTETEMPX = 0
  4058   001496  6A00               	clrf	1280,c
  4059                           
  4060                           ;'SYSDIVLOOP = 8
  4061   001498  0E08               	movlw	8
  4062   00149A  6E04               	movwf	1284,c
  4063   00149C                     SYSDIV8START:
  4064                           	callstack 0
  4065                           
  4066                           ;BCF STATUS,0
  4067   00149C  90D8               	bcf	status,0,c
  4068                           
  4069                           ;'RLF SYSBYTETEMPA, F
  4070   00149E  3605               	rlcf	1285,f,c
  4071                           
  4072                           ;'RLF SYSBYTETEMPX, F
  4073   0014A0  3600               	rlcf	1280,f,c
  4074                           
  4075                           ;'MOVF SYSBYTETEMPB, W
  4076   0014A2  5009               	movf	1289,w,c
  4077                           
  4078                           ;'SUBWF SYSBYTETEMPX, F
  4079   0014A4  5E00               	subwf	1280,f,c
  4080                           
  4081                           ;'BSF SYSBYTETEMPA, 0
  4082   0014A6  8005               	bsf	1285,0,c
  4083                           
  4084                           ;BTFSC STATUS,0
  4085   0014A8  B0D8               	btfsc	status,0,c
  4086                           
  4087                           ;'GOTO DIV8NOTNEG
  4088   0014AA  D003               	bra	DIV8NOTNEG
  4089                           
  4090                           ;'BCF SYSBYTETEMPA, 0
  4091   0014AC  9005               	bcf	1285,0,c
  4092                           
  4093                           ;'MOVF SYSBYTETEMPB, W
  4094   0014AE  5009               	movf	1289,w,c
  4095                           
  4096                           ;'ADDWF SYSBYTETEMPX, F
  4097   0014B0  2600               	addwf	1280,f,c
  4098   0014B2                     DIV8NOTNEG:
  4099                           	callstack 0
  4100                           
  4101                           ;'DECFSZ SYSDIVLOOP, F
  4102   0014B2  2E04               	decfsz	1284,f,c
  4103                           
  4104                           ;'GOTO SYSDIV8START
  4105   0014B4  D7F3               	bra	SYSDIV8START
  4106   0014B6  0012               	return	
  4107   0014B8                     SYSREADSTRING:
  4108                           	callstack 0
  4109                           
  4110                           ;'DIM SYSCALCTEMPA AS BYTE
  4111                           ;'DIM SYSSTRINGLENGTH AS BYTE
  4112                           ;'CHIPFAMILY 16 SUPPORT
  4113                           ;'GET LENGTH
  4114                           ;'TBLRD*+
  4115   0014B8  0009               	tblrd		*+
  4116                           
  4117                           ;MOVFF TABLAT,SYSCALCTEMPA
  4118   0014BA  C4F5 F505          	movff	tablat,1285
  4119                           
  4120                           ;MOVFF TABLAT,INDF1
  4121   0014BE  C4F5 F4E7          	movff	tablat,indf1
  4122                           
  4123                           ;'GOTO SYSSTRINGREADCHECK
  4124   0014C2  D004               	bra	SYSSTRINGREADCHECK
  4125   0014C4                     SYSREADSTRINGPART:
  4126                           	callstack 0
  4127                           
  4128                           ;'TBLRD*+
  4129   0014C4  0009               	tblrd		*+
  4130                           
  4131                           ;MOVF TABLAT,W
  4132   0014C6  50F5               	movf	tablat,w,c
  4133                           
  4134                           ;'MOVWF SYSCALCTEMPA
  4135   0014C8  6E05               	movwf	1285,c
  4136                           
  4137                           ;'ADDWF SYSSTRINGLENGTH,F
  4138   0014CA  2606               	addwf	1286,f,c
  4139   0014CC                     SYSSTRINGREADCHECK:
  4140                           	callstack 0
  4141                           
  4142                           ;'IF LENGTH IS 0, EXIT
  4143                           ;'MOVF SYSCALCTEMPA,F
  4144   0014CC  5205               	movf	1285,f,c
  4145                           
  4146                           ;BTFSC STATUS,2
  4147   0014CE  B4D8               	btfsc	status,2,c
  4148                           
  4149                           ;'RETURN
  4150   0014D0  0012               	return	
  4151   0014D2                     SYSSTRINGREAD:
  4152                           	callstack 0
  4153                           
  4154                           ;'COPY CHAR
  4155                           ;'TBLRD*+
  4156   0014D2  0009               	tblrd		*+
  4157                           
  4158                           ;MOVFF TABLAT,PREINC1
  4159   0014D4  C4F5 F4E4          	movff	tablat,preinc1
  4160                           
  4161                           ;'DECFSZ SYSCALCTEMPA, F
  4162   0014D8  2E05               	decfsz	1285,f,c
  4163                           
  4164                           ;'GOTO SYSSTRINGREAD
  4165   0014DA  D7FB               	bra	SYSSTRINGREAD
  4166   0014DC  0012               	return	
  4167   0014DE                     SYSSTRINGTABLES:
  4168                           	callstack 0
  4169   0014DE                     STRINGTABLE1:
  4170                           	callstack 0
  4171   0014DE  07 47 43 42 41 53 49 43 	db	7,71,67,66,65,83,73,67
  4172   0014E6                     	align	2	;X3
  4173   0014E6                     STRINGTABLE2:
  4174                           	callstack 0
  4175   0014E6  11 47 4C 43 44 20 4C 69 62 72 61 72 79 20 32 30 32 34 	db	17,71,76,67,68,32,76,105,98,114,97,114,121,32,50,48,50,52
  4176   0014F8                     	align	2	;X3
  4177   0014F8                     STRINGTABLE3:
  4178                           	callstack 0
  4179   0014F8  0E 53 70 72 69 74 65 20 53 75 70 70 6F 72 74 	db	14,83,112,114,105,116,101,32,83,117,112,112,111,114,116
  4180   001507  00                 	align	2	;X3
  4181   001508                     WRITE_COMMAND_SSD1306:
  4182                           	callstack 0
  4183                           
  4184                           ;'HI2CSTART
  4185   001508  DE71               	rcall	SI2CSTART
  4186                           
  4187                           ;'HI2CSEND GLCD_I2C_ADDRESS
  4188   00150A  0E78               	movlw	120
  4189   00150C  6E3F               	movwf	1343,c
  4190   00150E  DDF4               	rcall	SI2CSEND
  4191                           
  4192                           ;'HI2CSEND 0X00
  4193   001510  6A3F               	clrf	1343,c
  4194   001512  DDF2               	rcall	SI2CSEND
  4195                           
  4196                           ;'HI2CSEND SSD1306SENDBYTE
  4197   001514  C55B F53F          	movff	1371,1343
  4198   001518  DDEF               	rcall	SI2CSEND
  4199                           
  4200                           ;'HI2CSTOP
  4201   00151A  D66D               	bra	SI2CSTOP
  4202   00151C                     WRITE_DATA_SSD1306:
  4203                           	callstack 0
  4204                           
  4205                           ;'HI2CSTART
  4206   00151C  DE67               	rcall	SI2CSTART
  4207                           
  4208                           ;'HI2CSEND GLCD_I2C_ADDRESS
  4209   00151E  0E78               	movlw	120
  4210   001520  6E3F               	movwf	1343,c
  4211   001522  DDEA               	rcall	SI2CSEND
  4212                           
  4213                           ;'HI2CSEND 0X40
  4214   001524  0E40               	movlw	64
  4215   001526  6E3F               	movwf	1343,c
  4216   001528  DDE7               	rcall	SI2CSEND
  4217                           
  4218                           ;'HI2CSEND SSD1306SENDBYTE
  4219   00152A  C55B F53F          	movff	1371,1343
  4220   00152E  DDE4               	rcall	SI2CSEND
  4221                           
  4222                           ;'HI2CSTOP
  4223   001530  D662               	bra	SI2CSTOP
  4224                           
  4225                           ;'********************************************************************************
  4226   001532                     	align	2	;X2
  4227                           
  4228                           	psect	config
  4229                           
  4230                           ;Config register CONFIG1 @ 0x300000
  4231                           ;	External Oscillator Selection
  4232                           ;	FEXTOSC = OFF, Oscillator not enabled
  4233                           ;	Reset Oscillator Selection
  4234                           ;	RSTOSC = HFINTOSC_1MHZ, HFINTOSC with HFFRQ = 4 MHz and CDIV = 4:1
  4235   300000                     	org	3145728
  4236   300000  EC                 	db	236
  4237                           
  4238                           ;Config register CONFIG2 @ 0x300001
  4239                           ;	Clock out Enable bit
  4240                           ;	CLKOUTEN = OFF, CLKOUT function is disabled
  4241                           ;	PRLOCKED One-Way Set Enable bit
  4242                           ;	PR1WAY = OFF, PRLOCKED bit can be set and cleared repeatedly
  4243                           ;	Boot Block enable bit
  4244                           ;	BBEN = OFF, User PFM code protection disabled
  4245                           ;	Clock Switch Enable bit
  4246                           ;	CSWEN = ON, Writing to NOSC and NDIV is allowed
  4247                           ;	Fail-Safe Clock Monitor Enable bit
  4248                           ;	FCMEN = ON, Fail-Safe Clock Monitor enabled
  4249                           ;	Fail-Safe Clock Monitor - Primary XTAL Enable bit
  4250                           ;	FCMENP = OFF, Fail-Safe Clock Monitor disabled
  4251                           ;	Fail-Safe Clock Monitor - Secondary XTAL Enable bit
  4252                           ;	FCMENS = OFF, Fail-Safe Clock Monitor Disabled
  4253   300001                     	org	3145729
  4254   300001  3D                 	db	61
  4255                           
  4256                           ;Config register CONFIG3 @ 0x300002
  4257                           ;	MCLR Enable bit
  4258                           ;	MCLRE = INTMCLR, If LVP = 0, MCLR pin function is port defined function; If LVP =1, RE3 pin fuction is MCLR
  4259                           ;	Power-up timer selection bits
  4260                           ;	PWRTS = PWRT_OFF, PWRT is disabled
  4261                           ;	Multi-vector enable bit
  4262                           ;	MVECEN = OFF, Interrupt contoller does not use vector table to prioritze interrupts
  4263                           ;	IVTLOCK bit One-way set enable bit
  4264                           ;	IVT1WAY = OFF, IVTLOCKED bit can be cleared and set repeatedly
  4265                           ;	Low Power BOR Enable bit
  4266                           ;	LPBOREN = OFF, Low-Power BOR disabled
  4267                           ;	Brown-out Reset Enable bits
  4268                           ;	BOREN = OFF, Brown-out Reset disabled
  4269   300002                     	org	3145730
  4270   300002  26                 	db	38
  4271                           
  4272                           ;Config register CONFIG4 @ 0x300003
  4273                           ;	Brown-out Reset Voltage Selection bits
  4274                           ;	BORV = VBOR_2P85, Brown-out Reset Voltage (VBOR) set to 2.8V
  4275                           ;	PPSLOCK bit One-Way Set Enable bit
  4276                           ;	PPS1WAY = OFF, PPSLOCKED bit can be set and cleared repeatedly (subject to the unlock sequence)
  4277                           ;	Stack Full/Underflow Reset Enable bit
  4278                           ;	STVREN = OFF, Stack full/underflow will not cause Reset
  4279                           ;	Low Voltage Programming Enable bit
  4280                           ;	LVP = OFF, HV on MCLR/VPP must be used for programming
  4281                           ;	Debug enable bit
  4282                           ;	DEBUG = OFF, Backround debugger disabled
  4283                           ;	Extended Instruction Set Enable bit
  4284                           ;	XINST = OFF, Extended Instruction Set and Indexed Addressing Mode disabled
  4285   300003                     	org	3145731
  4286   300003  C4                 	db	196
  4287                           
  4288                           ;Config register CONFIG5 @ 0x300004
  4289                           ;	WDT Period selection bits
  4290                           ;	WDTCPS = WDTCPS_0, Divider ratio 1:32
  4291                           ;	WDT operating mode
  4292                           ;	WDTE = OFF, WDT Disabled; SEN is ignored
  4293   300004                     	org	3145732
  4294   300004  80                 	db	128
  4295                           
  4296                           ;Config register CONFIG6 @ 0x300005
  4297                           ;	WDT Window Select bits
  4298                           ;	WDTCWS = WDTCWS_0, window delay = 87.5; no software control; keyed access required
  4299                           ;	WDT input clock selector
  4300                           ;	WDTCCS = LFINTOSC, WDT reference clock is the 31.0 kHz LFINTOSC (when WDTE != 0b00)
  4301   300005                     	org	3145733
  4302   300005  C0                 	db	192
  4303                           
  4304                           ;Config register CONFIG7 @ 0x300006
  4305                           ;	VDDIO2 supply mode bit
  4306                           ;	VDDIO2MD = STANDARD_RANGE, Standard Operating Range (VDDIO2 >= 1.62V)
  4307                           ;	VDDIO3 supply mode bit
  4308                           ;	VDDIO3MD = STANDARD_RANGE, Standard Operating Range (VDDIO3 >= 1.62V)
  4309   300006                     	org	3145734
  4310   300006  FF                 	db	255
  4311                           
  4312                           ;Config register CONFIG8 @ 0x300007
  4313                           ;	Boot Block Size Selection bits
  4314                           ;	BBSIZE = BBSIZE_128, Boot Block size is 128 words
  4315   300007                     	org	3145735
  4316   300007  00                 	db	0
  4317                           
  4318                           ;Config register CONFIG10 @ 0x300008
  4319                           ;	Boot Block Write Protection bit
  4320                           ;	WRTB = OFF, Boot Block is not write-protected
  4321                           ;	Configuration Register Write Protection bit
  4322                           ;	WRTC = OFF, Configuration registers are not write-protected
  4323                           ;	Data EEPROM Write Protection bit
  4324                           ;	WRTD = OFF, Data EEPROM is not write-protected
  4325                           ;	Storage Area Flash (SAF) Write Protection bit
  4326                           ;	WRTSAF = OFF, SAF is not write-protected
  4327                           ;	Application Block Write Protection bit
  4328                           ;	WRTAPP = OFF, Application Block is not write-protected
  4329   300008                     	org	3145736
  4330   300008  FF                 	db	255
  4331                           
  4332                           ;Config register CONFIG11 @ 0x300009
  4333                           ;	User Program Flash Memory (PFM) Code Protection bit
  4334                           ;	CP = OFF, User PFM code protection is disabled
  4335   300009                     	org	3145737
  4336   300009  FF                 	db	255
  4337                           
  4338                           ;Config register CONFIG12 @ 0x30000A
  4339                           ;	Data EEPROM Code Protection bit
  4340                           ;	CPD = OFF, Data EEPROM code protection is disabled
  4341   30000A                     	org	3145738
  4342   30000A  FF                 	db	255
  4343                           
  4344                           ;Config register CONFIG14 @ 0x300018
  4345                           ;	unspecified, using default values
  4346                           ;	SAF Lock Enable bit
  4347                           ;	SAFLOCK = 0x1, unprogrammed default
  4348   300018                     	org	3145752
  4349   300018  FF                 	db	255
  4350                           
  4351                           ;Config register CONFIG9 @ 0x300019
  4352                           ;	unspecified, using default values
  4353                           ;	SAF Block Size Selection bits
  4354                           ;	SAFSZ = 0xFF, unprogrammed default
  4355   300019                     	org	3145753
  4356   300019  FF                 	db	255
  4357                           tosu	equ	0x4FF
  4358                           tosh	equ	0x4FE
  4359                           tosl	equ	0x4FD
  4360                           stkptr	equ	0x4FC
  4361                           pclatu	equ	0x4FB
  4362                           pclath	equ	0x4FA
  4363                           pcl	equ	0x4F9
  4364                           tblptru	equ	0x4F8
  4365                           tblptrh	equ	0x4F7
  4366                           tblptrl	equ	0x4F6
  4367                           tablat	equ	0x4F5
  4368                           prodh	equ	0x4F4
  4369                           prodl	equ	0x4F3
  4370                           indf0	equ	0x4EF
  4371                           postinc0	equ	0x4EE
  4372                           postdec0	equ	0x4ED
  4373                           preinc0	equ	0x4EC
  4374                           plusw0	equ	0x4EB
  4375                           fsr0h	equ	0x4EA
  4376                           fsr0l	equ	0x4E9
  4377                           wreg	equ	0x4E8
  4378                           indf1	equ	0x4E7
  4379                           postinc1	equ	0x4E6
  4380                           postdec1	equ	0x4E5
  4381                           preinc1	equ	0x4E4
  4382                           plusw1	equ	0x4E3
  4383                           fsr1h	equ	0x4E2
  4384                           fsr1l	equ	0x4E1
  4385                           bsr	equ	0x4E0
  4386                           indf2	equ	0x4DF
  4387                           postinc2	equ	0x4DE
  4388                           postdec2	equ	0x4DD
  4389                           preinc2	equ	0x4DC
  4390                           plusw2	equ	0x4DB
  4391                           fsr2h	equ	0x4DA
  4392                           fsr2l	equ	0x4D9
  4393                           status	equ	0x4D8


Microchip Technology PIC18 Macro Assembler V2.46 build 20240104201356 
Symbol Table                                                                                                                                               Sat Feb 17 18:24:43 2024

                            COL 0516                              ROW 055A             GLCDDRAWCHAR_SSD1306 07C2                             DIRX 051C  
                           DIRY 051D                             FSR0 04E9                             CURX 051A                             CURY 051B  
                           LOCX 054A                             LOCY 054B                             OLDX 054C                             OLDY 054D  
                          AFSR0 04E9                            BOX19 020E                            GLCDX 0536                            GLCDY 0537  
                          INDF0 04EF                            INDF1 04E7                            FSR0H 04EA                            OSCEN 007E  
                          PRODL 04F3                            PORTA 0487                            PORTB 0488                            PORTC 0489  
                          SWAP4 0560                            TRISA 048D                            TRISB 048E                            TRISC 048F  
                SYSCOMPLESSTHAN 146A                     LINECOLOUR_H 0541                           ADCON0 022F                           ENDIF1 013C  
                         ENDIF2 0150                           ENDIF3 0196                           ENDIF4 01E0                           ENDIF5 018E  
                         ANSELA 0416                           ENDIF6 01D8                           ANSELB 0420                           ENDIF7 0DB4  
                         ANSELC 042A                           RB5PPS 0326                           RB6PPS 0327                           RB7PPS 0328  
                         LINEX1 0542                           LINEX2 0544                           LINEY1 0546                           LINEY2 0548  
                         TABLAT 04F5                           RANDOM 0555                     SI2CWAIT4ACK 1240                           OSCFRQ 0080  
                         TBLPTR 04F6                     SI2CWAIT4MDR 1284                           STATUS 04D8            SYSFORLOOPABSVALUE8_H 0563  
                     I2C1SDAPPS 03AE                       I2C1SCLPPS 03AD                    STRINGPOINTER 055F           GLCDDRAWSPRITE_SSD1306 098C  
              SYSREADSTRINGPART 14C4                          I2C1CLK 01F9                          I2C1CNT 01ED                          I2C1ERR 01EC  
                        I2C1PIR 01EA                          I2C1TXB 01F0                          I2CBYTE 053F                     TABLESPRITE1 1306  
                   TABLESPRITE2 1332                     TABLESPRITE3 135E                     TABLESPRITE4 138A                     TABLESPRITE5 13B6  
                   TABLESPRITE6 13E2                     TABLESPRITE7 140E                     TABLESPRITE8 143A                          CHARCOL 050C  
                        AFSR0_H 04EA                          CHARROW 0513                          DELAY_S 03AA                          ENDIF20 1138  
                        ENDIF12 0E3E                          ENDIF21 118C                          ENDIF13 023E                          ENDIF30 12A4  
                        ENDIF22 1198                          ENDIF14 026E                          ENDIF31 12B0                          ENDIF23 11DC  
                        ENDIF15 02CC                          ENDIF32 12D4                          ENDIF24 11E8                          ENDIF40 082C  
                        ENDIF16 032A                          ENDIF33 12E0                          ENDIF17 1230                          ENDIF41 08F6  
                        ENDIF18 123C                          ENDIF50 1072                          ENDIF42 093E                          ENDIF34 06E8  
                        ENDIF27 1274                          ENDIF19 112C                          ENDIF43 095E                          ENDIF28 1280  
                        ENDIF36 07B6                          ENDIF29 1260                          ENDIF37 077E                          ENDIF46 0F9C  
                        ENDIF38 07B6                          ENDIF39 07E6                          ENDIF48 1016                          ENDIF49 103A  
               INITGLCD_SSD1306 0E4E                          ELSE1_1 013A                          ELSE2_1 014E                          ELSE3_1 0180  
                        ELSE4_1 01CA                          ELSE5_1 018A                          ELSE6_1 01D4                          ELSE7_1 0B20  
                   RANDOMSEED_H 0557                     RANDOMTEMP_H 0559                          INITPPS 0F1C                          INITSYS 0F42  
                        OSCCON1 007A                          OSCCON3 007C               WRITE_DATA_SSD1306 151C                          TBLPTRH 04F7  
                        PREINC1 04E4                          TBLPTRU 04F8                          OSCTUNE 007F                    SI2CWAIT4STOP 12B4  
                        SWAP4IN 0561                          SPRITE1 12E4                          SPRITE2 1310                          SPRITE3 133C  
                        SPRITE4 1368                          SPRITE5 1394                          SPRITE6 13C0                          SPRITE7 13EC  
                        SPRITE8 1418                       CHARLOCX_H 0510                       CHARLOCY_H 0512                       DELAYTEMP2 0501  
                SYSFORLOOPEND10 0980                  SYSFORLOOPEND11 0970                  SYSFORLOOPEND12 095E                  SYSFORLOOPEND13 093E  
                     DIV8NOTNEG 14B2                       GLCDCHANGE 0523                  SYSFORLOOPSTEP7 0564                       GLCDCOLOUR 0524  
                        isa$std 0001                       GLCDTEMP_H 0535                       GLCDPRINT7 0DB6                     SSD1306_PAGE 055E  
                     DRAWLINE_H 051F          CURSOR_POSITION_SSD1306 032C         SYSLCDPRINTDATAHANDLER_H 0567                 GLCDBACKGROUND_H 0521  
                     LINECOLOUR 0540                       INITRANDOM 0F38                SYSCOMPLESSTHAN16 1474                         I2C1ADB1 01F2  
            SYSFORLOOPABSVALUE8 0562                         I2C1CON0 01E6                         I2C1CON1 01E7                         I2C1CON2 01E8  
                     RANDOMSEED 0556                       RANDOMTEMP 0558                         CHARCODE 050B                         CHARCOLS 050E  
                       HI2CINIT 0E48                         HI2CMODE 0E4C                         CHARLOCX 050F                         CHARLOCY 0511  
                       CHARROWS 0515                         DELAYUS1 1214                         DELAYUS2 1220                         DELAYUS3 122C  
                       DELAYUS4 1128                         DELAYUS5 1164                         DELAYUS6 1170                         DELAYUS7 1188  
                       DELAYUS8 11D8                         DELAYUS9 1270                         DELAY_MS 038E                       SCLT16TRUE 148C  
                       ELSE21_1 1184                         ELSE30_1 129C                         ELSE23_1 11D0                         ELSE32_1 12CC  
                       ELSE17_1 1228                         ELSE41_1 08D0                         ELSE27_1 126C                         ELSE19_1 1124  
                       ELSE36_1 0780                         ELSE48_1 1010                         ELSE49_1 1034                         GLCDTEMP 0534  
                       DRAWLINE 051E             GLCDFNTDEFAULTHEIGHT 0528                   GLCDBACKGROUND 0520                         SI2CINIT 10C8  
                       SI2CSEND 10F8                         LINEX1_H 0543                         LINEX2_H 0545                         LINEY1_H 0547  
                       LINEY2_H 0549                         SI2CSTOP 11F6                    SYSREADSTRING 14B8                         FN_SWAP4 1444  
                       DS_START 03AA                         RESETVEC 0000                         POSCHARX 054E                         POSCHARY 0550  
                     POSCHARX_H 054F                    SYSSELECTEND1 0AE6                    SYSSELECTEND2 0C14                    SYSSELECTEND3 0D62  
                  SYSSELECTEND4 11E8                    SYSSELECTEND5 0890              SSD1306_BUFFERALIAS 10FF                         SYSTEMP1 056C  
                       SYSTEMP2 056E                         SYSTEMP3 0570                  SYSSELECT1CASE1 0A4A                  SYSSELECT1CASE2 0A5C  
                SYSSELECT1CASE3 0A70                  SYSSELECT1CASE4 0A84                  SYSSELECT1CASE5 0A98                  SYSSELECT1CASE6 0AAC  
                SYSSELECT1CASE7 0AC0                  SYSSELECT1CASE8 0AD4                  SYSSELECT2CASE1 0B86                  SYSSELECT2CASE2 0B96  
                SYSSELECT2CASE3 0BA8                  SYSSELECT2CASE4 0BBA                  SYSSELECT2CASE5 0BCC                  SYSSELECT2CASE6 0BDE  
                SYSSELECT2CASE7 0BF0                  SYSSELECT2CASE8 0C02                  SYSSELECT3CASE1 0CD6                  SYSSELECT3CASE2 0CE6  
                SYSSELECT3CASE3 0CF8                  SYSSELECT3CASE4 0D0A                  SYSSELECT3CASE5 0D1C                  SYSSELECT3CASE6 0D2E  
                SYSSELECT3CASE7 0D40                  SYSSELECT3CASE8 0D52                  SYSSELECT4CASE1 10F8                  SYSSELECT4CASE2 113A  
                SYSSELECT4CASE3 119A                  SYSSELECT5CASE1 0830                  SYSSELECT5CASE2 0842                  SYSSELECT5CASE3 0856  
                SYSSELECT5CASE4 086A                  SYSSELECT5CASE5 087E            WRITE_COMMAND_SSD1306 1508       SSD1306_BUFFERLOCATIONCALC 055C  
                SYSREPEATLOOP10 0366                    SYSWAITTEMPMS 0502                    SYSWAITTEMPUS 0505         GLCDPRINT_STRING_COUNTER 0532  
                     SYSDIVLOOP 0504                     PSET_SSD1306 0F70                       SYSTEMP1_H 056D                       SYSTEMP2_H 056F  
                  BASPROGRAMEND 020A                    SYSSTRINGREAD 14D2                   GLCDFNTDEFAULT 0527                       SYSSTRINGA 0507  
                 GLCDFOREGROUND 052B     SSD1306_BUFFERLOCATIONCALC_H 055D              HI2CWAITMSSPTIMEOUT 053E                SYSREPEATLOOPEND1 099E  
              SYSREPEATLOOPEND2 09B4                SYSREPEATLOOPEND3 0C2E                SYSREPEATLOOPEND4 0D7A                SYSREPEATLOOPEND5 10C4  
              SYSREPEATLOOPEND6 0FB0                SYSREPEATLOOPEND7 0FBE                SYSREPEATLOOPEND8 1028                SYSREPEATLOOPEND9 033E  
                SYSWAITTEMPMS_H 0503                  SYSWAITTEMPUS_H 0506                      CURRCHARCOL 0517                      CURRCHARVAL 0519  
                    CURRCHARROW 0518                   GLCDPRINTLOC_H 0531                   SYSCOMPEQUAL16 1458                   GLCDROTATEBITS 0533  
                      I2C1STAT0 01E4                        I2C1STAT1 01E5                     STRINGTABLE1 14DE                     STRINGTABLE2 14E6  
                   STRINGTABLE3 14F8           SYSLCDPRINTDATAHANDLER 0566                   HI2C1LASTERROR 053A                  HI2CCURRENTMODE 053D  
                      CHARCOL_H 050D                        CHARROW_H 0514                        DELAYUS10 12A0                        DELAYUS11 12D0  
                      DELAYTEMP 0500                        DELAYUSO1 1212                        DELAYUSO5 1162                     SYSCALCTEMPA 0505  
                 SYSFORLOOPEND1 0B1C                   SYSFORLOOPEND2 0C66                   SYSFORLOOPEND3 0DB2                   SYSFORLOOPEND4 0E3E  
                 SYSFORLOOPEND5 02CC                   SYSFORLOOPEND6 032A                   SYSFORLOOPEND7 06E8                   SYSFORLOOPEND8 07B6  
                 SYSFORLOOPEND9 0726                        GLCDBITNO 0522                     SYSDIV8START 149C                        DMS_INNER 0398  
                      DMS_OUTER 0394                        DMS_START 0390                     SYSCOMPEQUAL 144E                        SI2CSTART 11EC  
                   SYSDOLOOP_E1 0208                     SYSDOLOOP_E2 1232                     SYSDOLOOP_E3 112E                     SYSDOLOOP_E4 118E  
                   SYSDOLOOP_E5 11DE                     SYSDOLOOP_E6 1276                     SYSDOLOOP_E7 12A6                     SYSDOLOOP_E8 12D6  
                   SYSDOLOOP_S1 0150                     SYSDOLOOP_S2 11FA                     SYSDOLOOP_S3 1102                     SYSDOLOOP_S4 1150  
                   SYSDOLOOP_S5 11B2                     SYSDOLOOP_S6 1242                     SYSDOLOOP_S7 1286                     SYSDOLOOP_S8 12B6  
                      FN_RANDOM 1076                     SYSFORLOOP10 082E                     SYSFORLOOP11 0896                     SYSFORLOOP12 089E  
                   SYSFORLOOP13 08A4               SYSSTRINGREADCHECK 14CC                     SYSBYTETEMPA 0505                     SYSBYTETEMPB 0509  
                   SYSBYTETEMPX 0500                        PRINTLOCX 0551                        PRINTLOCY 0553                   SYSREPEATLOOP1 0996  
                 SYSREPEATLOOP2 09AA                   SYSREPEATLOOP3 0C26                   SYSREPEATLOOP4 0D70                   SYSREPEATLOOP5 107C  
                 SYSREPEATLOOP6 0FA6                   SYSREPEATLOOP7 0FB6                   SYSREPEATLOOP8 1022                   SYSREPEATLOOP9 0336  
                   SYSWAITLOOP1 11A2                   SYSREPEATTEMP1 0568                   SYSREPEATTEMP5 0569                   SYSREPEATTEMP6 056A  
                 SYSREPEATTEMP9 056B                     SYSWAITTEMPS 0504                  BASPROGRAMSTART 000C                   GLCD_YORDINATE 0538  
                    PRINTLOCX_H 0552                      PRINTLOCY_H 0554                        SYSDIVSUB 1490                  SYSSTRINGLENGTH 0506  
                SYSSTRINGPARAM1 10ED                  SYSSTRINGTABLES 14DE                     SYSSTRINGA_H 0508                     SYSWORDTEMPA 0505  
                   SYSWORDTEMPB 0509                 HI2CACKPOLLSTATE 053C                    GLCDFONTWIDTH 052A                 GLCDFOREGROUND_H 052C  
               GLCD_YORDINATE_H 0539                  SSD1306SENDBYTE 055B                      SYSFORLOOP1 0A48                      SYSFORLOOP2 0B84  
                    SYSFORLOOP3 0CD4                      SYSFORLOOP4 0DD4                      SYSFORLOOP5 0276                      SYSFORLOOP6 02D4  
                    SYSFORLOOP7 06A8                      SYSFORLOOP8 06EC                      SYSFORLOOP9 0714               GLCDFNTDEFAULTSIZE 0529  
                   GLCDCHARCOL3 03BA                     GLCDCHARCOL4 044E                     GLCDCHARCOL5 04E2                     GLCDCHARCOL6 0576  
                   GLCDCHARCOL7 060A                     GLCDDATATEMP 0526                SYSFORLOOPSTEP7_H 0565                     GLCDHICHANGE 052D  
                GLCDCLS_SSD1306 069E                     GLCDCOLOUR_H 0525                     GLCDLOCHANGE 052E                        isa$xinst 0000  
                 SYSWORDTEMPA_H 0506                   SYSWORDTEMPB_H 050A                     GLCDPRINTLEN 052F                     GLCDPRINTLOC 0530  
              TABLEGLCDCHARCOL3 03DC                TABLEGLCDCHARCOL4 0470                TABLEGLCDCHARCOL5 0504                TABLEGLCDCHARCOL6 0598  
              TABLEGLCDCHARCOL7 062C                HI2C1STATEMACHINE 053B               SYSREPEATLOOPEND10 0370  
